 genealogy

 Timestamp is 6570307e (Wed Dec  6 09:27:42 2023)

 Preferred load address is 0000000140000000

 Start         Length     Name                   Class
 0001:00000000 0012cb00H .text                   CODE
 0001:0012cb00 00000b90H .text$mn                CODE
 0001:0012d690 00000040H .text$mn$00             CODE
 0001:0012d6d0 00007685H .text$unlikely          CODE
 0001:00134d55 00000036H .text$x                 CODE
 0002:00000000 000002f8H .idata$5                DATA
 0002:000002f8 00000038H .00cfg                  DATA
 0002:00000330 00000008H .CRT$XCA                DATA
 0002:00000338 00000008H .CRT$XCAA               DATA
 0002:00000340 00000008H .CRT$XCT                DATA
 0002:00000348 00000008H .CRT$XCZ                DATA
 0002:00000350 00000008H .CRT$XIA                DATA
 0002:00000358 00000008H .CRT$XIAA               DATA
 0002:00000360 00000008H .CRT$XIAC               DATA
 0002:00000368 00000008H .CRT$XIZ                DATA
 0002:00000370 00000008H .CRT$XLA                DATA
 0002:00000378 00000008H .CRT$XLB                DATA
 0002:00000380 00000008H .CRT$XLZ                DATA
 0002:00000388 00000008H .CRT$XPA                DATA
 0002:00000390 00000008H .CRT$XPZ                DATA
 0002:00000398 00000008H .CRT$XTA                DATA
 0002:000003a0 00000020H .CRT$XTZ                DATA
 0002:000003a8 00000000H .gehcont$y              DATA
 0002:000003a8 00000000H .gfids$y                DATA
 0002:000003c0 00079ac0H .rdata                  DATA
 0002:00079e80 00000000H .rdata$CastGuardVftablesA DATA
 0002:00079e80 00000000H .rdata$CastGuardVftablesC DATA
 0002:00079e80 00000028H .rdata$T                DATA
 0002:00079ea8 00000074H .rdata$r                DATA
 0002:00079f1c 00000050H .rdata$voltmd           DATA
 0002:00079f6c 000003bcH .rdata$zzzdbg           DATA
 0002:0007a328 00000008H .rtc$IAA                DATA
 0002:0007a330 00000008H .rtc$IZZ                DATA
 0002:0007a338 00000008H .rtc$TAA                DATA
 0002:0007a340 00000008H .rtc$TZZ                DATA
 0002:0007a348 00000008H .tls                    DATA
 0002:0007a350 00000088H .tls$                   DATA
 0002:0007a3d8 00000008H .tls$ZZZ                DATA
 0002:0007a3e0 00020474H .xdata                  DATA
 0002:0009a854 00000000H .edata                  DATA
 0002:0009a854 000000c8H .idata$2                DATA
 0002:0009a91c 00000014H .idata$3                DATA
 0002:0009a930 000002f8H .idata$4                DATA
 0002:0009ac28 0000078aH .idata$6                DATA
 0003:00000000 000001d8H .data                   DATA
 0003:000001d8 00000028H .data$rs                DATA
 0003:00000200 000001f8H .bss                    DATA
 0004:00000000 0000aa64H .pdata                  DATA

  Address         Publics by Value              Rva+Base               Lib:Object

 0000:00000000       __AbsoluteZero             0000000000000000     <absolute>
 0000:00000000       ___safe_se_handler_count   0000000000000000     <absolute>
 0000:00000000       ___safe_se_handler_table   0000000000000000     <absolute>
 0000:00000000       __arm64x_extra_rfe_table   0000000000000000     <absolute>
 0000:00000000       __arm64x_extra_rfe_table_size 0000000000000000     <absolute>
 0000:00000000       __arm64x_native_entrypoint 0000000000000000     <absolute>
 0000:00000000       __arm64x_redirection_metadata 0000000000000000     <absolute>
 0000:00000000       __arm64x_redirection_metadata_count 0000000000000000     <absolute>
 0000:00000000       __dynamic_value_reloc_table 0000000000000000     <absolute>
 0000:00000000       __enclave_config           0000000000000000     <absolute>
 0000:00000000       __guard_check_icall_a64n_fptr 0000000000000000     <absolute>
 0000:00000000       __guard_eh_cont_count      0000000000000000     <absolute>
 0000:00000000       __guard_eh_cont_table      0000000000000000     <absolute>
 0000:00000000       __guard_fids_count         0000000000000000     <absolute>
 0000:00000000       __guard_fids_table         0000000000000000     <absolute>
 0000:00000000       __guard_iat_count          0000000000000000     <absolute>
 0000:00000000       __guard_iat_table          0000000000000000     <absolute>
 0000:00000000       __guard_longjmp_count      0000000000000000     <absolute>
 0000:00000000       __guard_longjmp_table      0000000000000000     <absolute>
 0000:00000000       __hybrid_auxiliary_delayload_iat 0000000000000000     <absolute>
 0000:00000000       __hybrid_auxiliary_delayload_iat_copy 0000000000000000     <absolute>
 0000:00000000       __hybrid_auxiliary_iat     0000000000000000     <absolute>
 0000:00000000       __hybrid_auxiliary_iat_copy 0000000000000000     <absolute>
 0000:00000000       __hybrid_code_map          0000000000000000     <absolute>
 0000:00000000       __hybrid_code_map_count    0000000000000000     <absolute>
 0000:00000000       __hybrid_image_info_bitfield 0000000000000000     <absolute>
 0000:00000000       __x64_code_ranges_to_entry_points 0000000000000000     <absolute>
 0000:00000000       __x64_code_ranges_to_entry_points_count 0000000000000000     <absolute>
 0000:00000100       __guard_flags              0000000000000100     <absolute>
 0000:00000000       __ImageBase                0000000140000000     <linker-defined>
 0001:00000010       _ZN3std2rt10lang_start28_$u7b$$u7b$closure$u7d$$u7d$17h7ed487d187b27907E.llvm.5340089140799553351 0000000140001010 f   genealogy.genealogy.21e9e755dfa74b4b-cgu.0.rcgu.o
 0001:00000010       _ZN4core3ops8function6FnOnce40call_once$u7b$$u7b$vtable.shim$u7d$$u7d$17h9cb95f57d44042fbE.llvm.5340089140799553351 0000000140001010 f   genealogy.genealogy.21e9e755dfa74b4b-cgu.0.rcgu.o
 0001:00000030       _ZN42_$LT$$RF$T$u20$as$u20$core..fmt..Debug$GT$3fmt17h29ca9b918fc41d36E 0000000140001030 f   libregex_automata-464fc35d41c3d390:regex_automata-464fc35d41c3d390.regex_automata.ab23a1c50add178-cgu.14.rcgu.o
 0001:00000030       _ZN42_$LT$$RF$T$u20$as$u20$core..fmt..Debug$GT$3fmt17h8637363b2dccfde1E 0000000140001030 f   libgoblin-8ee2c552e4c10df6:goblin-8ee2c552e4c10df6.goblin.f087800e97e1b550-cgu.13.rcgu.o
 0001:000000d0       _ZN4core3ptr104drop_in_place$LT$alloc..vec..Vec$LT$$RF$intervaltree..Element$LT$u64$C$alloc..string..String$GT$$GT$$GT$17hc8f104fa19d6206fE.llvm.5340089140799553351 00000001400010d0 f   genealogy.genealogy.21e9e755dfa74b4b-cgu.0.rcgu.o
 0001:000000f0       _ZN4core3ptr79drop_in_place$LT$intervaltree..QueryIter$LT$u64$C$alloc..string..String$GT$$GT$17hce1d3bfbe61b2b8fE.llvm.5340089140799553351 00000001400010f0 f   genealogy.genealogy.21e9e755dfa74b4b-cgu.0.rcgu.o
 0001:00000120       _ZN43_$LT$log..NopLogger$u20$as$u20$log..Log$GT$3log17he9187ed05683a498E 0000000140001120 f   liblog-93adfd4aa7258f97:log-93adfd4aa7258f97.log.f6d58276e227d0ee-cgu.0.rcgu.o
 0001:00000120       _ZN43_$LT$log..NopLogger$u20$as$u20$log..Log$GT$5flush17hd68f94ae5eda2804E 0000000140001120 f   liblog-93adfd4aa7258f97:log-93adfd4aa7258f97.log.f6d58276e227d0ee-cgu.0.rcgu.o
 0001:00000120       _ZN4core3ptr103drop_in_place$LT$$RF$alloc..vec..Vec$LT$core..option..Option$LT$alloc..sync..Arc$LT$str$GT$$GT$$GT$$GT$17h017588612dea79deE.llvm.9692425724856445687 0000000140001120 f   libregex_automata-464fc35d41c3d390:regex_automata-464fc35d41c3d390.regex_automata.ab23a1c50add178-cgu.07.rcgu.o
 0001:00000120       _ZN4core3ptr104drop_in_place$LT$$RF$aho_corasick..packed..teddy..generic..Mask$LT$core..core_arch..x86..__m128i$GT$$GT$17h0b1e234ca6b8a3dbE.llvm.13302588950870518637 0000000140001120 f   libaho_corasick-b4d6ea81f1a61526:aho_corasick-b4d6ea81f1a61526.aho_corasick.7f4fbca99e96e6a8-cgu.08.rcgu.o
 0001:00000120       _ZN4core3ptr104drop_in_place$LT$$RF$aho_corasick..packed..teddy..generic..Mask$LT$core..core_arch..x86..__m256i$GT$$GT$17h434fa92a6f96168eE.llvm.13302588950870518637 0000000140001120 f   libaho_corasick-b4d6ea81f1a61526:aho_corasick-b4d6ea81f1a61526.aho_corasick.7f4fbca99e96e6a8-cgu.08.rcgu.o
 0001:00000120       _ZN4core3ptr105drop_in_place$LT$$RF$$LP$usize$C$core..option..Option$LT$$RF$str$GT$$C$goblin..pe..symbol..Symbol$RP$$GT$17h8b549c282348baaeE.llvm.8329107711877904777 0000000140001120 f   libgoblin-8ee2c552e4c10df6:goblin-8ee2c552e4c10df6.goblin.f087800e97e1b550-cgu.08.rcgu.o
 0001:00000120       _ZN4core3ptr105drop_in_place$LT$$RF$alloc..vec..Vec$LT$$LP$usize$C$aho_corasick..util..primitives..PatternID$RP$$GT$$GT$17habde57211333424aE.llvm.13302588950870518637 0000000140001120 f   libaho_corasick-b4d6ea81f1a61526:aho_corasick-b4d6ea81f1a61526.aho_corasick.7f4fbca99e96e6a8-cgu.08.rcgu.o
 0001:00000120       _ZN4core3ptr115drop_in_place$LT$$RF$$LP$regex_automata..util..primitives..StateID$C$regex_automata..dfa..onepass..Epsilons$RP$$GT$17h05f7a94c97fc4ee7E.llvm.9692425724856445687 0000000140001120 f   libregex_automata-464fc35d41c3d390:regex_automata-464fc35d41c3d390.regex_automata.ab23a1c50add178-cgu.07.rcgu.o
 0001:00000120       _ZN4core3ptr122drop_in_place$LT$$RF$core..result..Result$LT$$LP$$RF$str$C$goblin..mach..symbols..Nlist$RP$$C$goblin..error..Error$GT$$GT$17h4e68156f1c37d300E.llvm.8329107711877904777 0000000140001120 f   libgoblin-8ee2c552e4c10df6:goblin-8ee2c552e4c10df6.goblin.f087800e97e1b550-cgu.08.rcgu.o
 0001:00000120       _ZN4core3ptr124drop_in_place$LT$$RF$$LP$regex_automata..util..primitives..SmallIndex$C$regex_automata..util..primitives..SmallIndex$RP$$GT$17hc9bbad26095afab8E.llvm.9692425724856445687 0000000140001120 f   libregex_automata-464fc35d41c3d390:regex_automata-464fc35d41c3d390.regex_automata.ab23a1c50add178-cgu.07.rcgu.o
 0001:00000120       _ZN4core3ptr143drop_in_place$LT$$RF$std..collections..hash..map..HashMap$LT$alloc..sync..Arc$LT$str$GT$$C$regex_automata..util..primitives..SmallIndex$GT$$GT$17h74f6c8f7bc7ea699E.llvm.9692425724856445687 0000000140001120 f   libregex_automata-464fc35d41c3d390:regex_automata-464fc35d41c3d390.regex_automata.ab23a1c50add178-cgu.07.rcgu.o
 0001:00000120       _ZN4core3ptr190drop_in_place$LT$$RF$regex_automata..util..pool..inner..CacheLine$LT$std..sync..mutex..Mutex$LT$alloc..vec..Vec$LT$alloc..boxed..Box$LT$regex_automata..meta..regex..Cache$GT$$GT$$GT$$GT$$GT$17h9281b3b0d58a870dE.llvm.9692425724856445687 0000000140001120 f   libregex_automata-464fc35d41c3d390:regex_automata-464fc35d41c3d390.regex_automata.ab23a1c50add178-cgu.07.rcgu.o
 0001:00000120       _ZN4core3ptr23drop_in_place$LT$u8$GT$17h7dc896f775e0da41E.llvm.9692425724856445687 0000000140001120 f   libregex_automata-464fc35d41c3d390:regex_automata-464fc35d41c3d390.regex_automata.ab23a1c50add178-cgu.07.rcgu.o
 0001:00000120       _ZN4core3ptr25drop_in_place$LT$bool$GT$17h6b070a11ddb2485eE.llvm.573348780487807197 0000000140001120 f   libregex_syntax-1a078ef20d4d7dee:regex_syntax-1a078ef20d4d7dee.regex_syntax.936f5d3813beee8b-cgu.01.rcgu.o
 0001:00000120       _ZN4core3ptr25drop_in_place$LT$bool$GT$17hf0458b1465a1fd54E.llvm.9692425724856445687 0000000140001120 f   libregex_automata-464fc35d41c3d390:regex_automata-464fc35d41c3d390.regex_automata.ab23a1c50add178-cgu.07.rcgu.o
 0001:00000120       _ZN4core3ptr26drop_in_place$LT$usize$GT$17h8d6c44b8287c25b4E.llvm.573348780487807197 0000000140001120 f   libregex_syntax-1a078ef20d4d7dee:regex_syntax-1a078ef20d4d7dee.regex_syntax.936f5d3813beee8b-cgu.01.rcgu.o
 0001:00000120       _ZN4core3ptr26drop_in_place$LT$usize$GT$17hda1cb49dfc25de55E.llvm.14991035210720787909 0000000140001120 f   libaho_corasick-b4d6ea81f1a61526:aho_corasick-b4d6ea81f1a61526.aho_corasick.7f4fbca99e96e6a8-cgu.14.rcgu.o
 0001:00000120       _ZN4core3ptr26drop_in_place$LT$usize$GT$17hee90ca6553d1cea6E.llvm.551548863055934565 0000000140001120 f   libregex_automata-464fc35d41c3d390:regex_automata-464fc35d41c3d390.regex_automata.ab23a1c50add178-cgu.14.rcgu.o
 0001:00000120       _ZN4core3ptr26drop_in_place$LT$usize$GT$17hee90ca6553d1cea6E.llvm.9692425724856445687 0000000140001120 f   libregex_automata-464fc35d41c3d390:regex_automata-464fc35d41c3d390.regex_automata.ab23a1c50add178-cgu.07.rcgu.o
 0001:00000120       _ZN4core3ptr27drop_in_place$LT$$RF$u8$GT$17h2d567364d5d36e2dE.llvm.8329107711877904777 0000000140001120 f   libgoblin-8ee2c552e4c10df6:goblin-8ee2c552e4c10df6.goblin.f087800e97e1b550-cgu.08.rcgu.o
 0001:00000120       _ZN4core3ptr27drop_in_place$LT$$RF$u8$GT$17h8d1f40e293b89c5fE.llvm.13302588950870518637 0000000140001120 f   libaho_corasick-b4d6ea81f1a61526:aho_corasick-b4d6ea81f1a61526.aho_corasick.7f4fbca99e96e6a8-cgu.08.rcgu.o
 0001:00000120       _ZN4core3ptr27drop_in_place$LT$$RF$u8$GT$17h9e9c80556a1bc49eE.llvm.4264589526237034297 0000000140001120 f   libregex_syntax-1a078ef20d4d7dee:regex_syntax-1a078ef20d4d7dee.regex_syntax.936f5d3813beee8b-cgu.10.rcgu.o
 0001:00000120       _ZN4core3ptr27drop_in_place$LT$$RF$u8$GT$17hd84d32055009a374E.llvm.9692425724856445687 0000000140001120 f   libregex_automata-464fc35d41c3d390:regex_automata-464fc35d41c3d390.regex_automata.ab23a1c50add178-cgu.07.rcgu.o
 0001:00000120       _ZN4core3ptr28drop_in_place$LT$$RF$u16$GT$17hedd6524cc4aac977E.llvm.8329107711877904777 0000000140001120 f   libgoblin-8ee2c552e4c10df6:goblin-8ee2c552e4c10df6.goblin.f087800e97e1b550-cgu.08.rcgu.o
 0001:00000120       _ZN4core3ptr28drop_in_place$LT$$RF$u32$GT$17h2e7920c4ea5432bcE.llvm.8329107711877904777 0000000140001120 f   libgoblin-8ee2c552e4c10df6:goblin-8ee2c552e4c10df6.goblin.f087800e97e1b550-cgu.08.rcgu.o
 0001:00000120       _ZN4core3ptr28drop_in_place$LT$$RF$u64$GT$17hbef63cbd660d36e4E.llvm.8329107711877904777 0000000140001120 f   libgoblin-8ee2c552e4c10df6:goblin-8ee2c552e4c10df6.goblin.f087800e97e1b550-cgu.08.rcgu.o
 0001:00000120       _ZN4core3ptr29drop_in_place$LT$$RF$bool$GT$17h44c3131c2dcc6de6E.llvm.9692425724856445687 0000000140001120 f   libregex_automata-464fc35d41c3d390:regex_automata-464fc35d41c3d390.regex_automata.ab23a1c50add178-cgu.07.rcgu.o
 0001:00000120       _ZN4core3ptr29drop_in_place$LT$$RF$bool$GT$17h5ec87aa5e1f375b4E.llvm.573348780487807197 0000000140001120 f   libregex_syntax-1a078ef20d4d7dee:regex_syntax-1a078ef20d4d7dee.regex_syntax.936f5d3813beee8b-cgu.01.rcgu.o
 0001:00000120       _ZN4core3ptr29drop_in_place$LT$$RF$bool$GT$17hd90f65c1b8144b44E.llvm.13302588950870518637 0000000140001120 f   libaho_corasick-b4d6ea81f1a61526:aho_corasick-b4d6ea81f1a61526.aho_corasick.7f4fbca99e96e6a8-cgu.08.rcgu.o
 0001:00000120       _ZN4core3ptr29drop_in_place$LT$$RF$char$GT$17hbd1178c8cf94279dE.llvm.4264589526237034297 0000000140001120 f   libregex_syntax-1a078ef20d4d7dee:regex_syntax-1a078ef20d4d7dee.regex_syntax.936f5d3813beee8b-cgu.10.rcgu.o
 0001:00000120       _ZN4core3ptr30drop_in_place$LT$$RF$usize$GT$17h5c3caf930c57ddfeE.llvm.12241314740873085142 0000000140001120 f   libregex_automata-464fc35d41c3d390:regex_automata-464fc35d41c3d390.regex_automata.ab23a1c50add178-cgu.05.rcgu.o
 0001:00000120       _ZN4core3ptr30drop_in_place$LT$$RF$usize$GT$17h5c3caf930c57ddfeE.llvm.9692425724856445687 0000000140001120 f   libregex_automata-464fc35d41c3d390:regex_automata-464fc35d41c3d390.regex_automata.ab23a1c50add178-cgu.07.rcgu.o
 0001:00000120       _ZN4core3ptr30drop_in_place$LT$$RF$usize$GT$17hb5948b742960cbddE.llvm.14991035210720787909 0000000140001120 f   libaho_corasick-b4d6ea81f1a61526:aho_corasick-b4d6ea81f1a61526.aho_corasick.7f4fbca99e96e6a8-cgu.14.rcgu.o
 0001:00000120       _ZN4core3ptr30drop_in_place$LT$$RF$usize$GT$17hde36362d4a7ffb9fE.llvm.8329107711877904777 0000000140001120 f   libgoblin-8ee2c552e4c10df6:goblin-8ee2c552e4c10df6.goblin.f087800e97e1b550-cgu.08.rcgu.o
 0001:00000120       _ZN4core3ptr32drop_in_place$LT$$RF$$RF$str$GT$17hf031f4dc755220e2E.llvm.8329107711877904777 0000000140001120 f   libgoblin-8ee2c552e4c10df6:goblin-8ee2c552e4c10df6.goblin.f087800e97e1b550-cgu.08.rcgu.o
 0001:00000120       _ZN4core3ptr37drop_in_place$LT$core..fmt..Error$GT$17hdca4bd2f8c9b9354E.llvm.4878409327168373810 0000000140001120 f   libregex-0477f9e9a333a0e8:regex-0477f9e9a333a0e8.regex.bdffd6b571ecefc1-cgu.5.rcgu.o
 0001:00000120       _ZN4core3ptr43drop_in_place$LT$$RF$$LP$u8$C$usize$RP$$GT$17he4e4aa9f576a7967E.llvm.4264589526237034297 0000000140001120 f   libregex_syntax-1a078ef20d4d7dee:regex_syntax-1a078ef20d4d7dee.regex_syntax.936f5d3813beee8b-cgu.10.rcgu.o
 0001:00000120       _ZN4core3ptr46drop_in_place$LT$$RF$$LP$usize$C$usize$RP$$GT$17h4a07544f95ddc46fE.llvm.9692425724856445687 0000000140001120 f   libregex_automata-464fc35d41c3d390:regex_automata-464fc35d41c3d390.regex_automata.ab23a1c50add178-cgu.07.rcgu.o
 0001:00000120       _ZN4core3ptr46drop_in_place$LT$$RF$alloc..string..String$GT$17hc36b4f60afec8253E.llvm.15325843373374505680 0000000140001120 f   libregex-0477f9e9a333a0e8:regex-0477f9e9a333a0e8.regex.bdffd6b571ecefc1-cgu.4.rcgu.o
 0001:00000120       _ZN4core3ptr46drop_in_place$LT$$RF$alloc..string..String$GT$17hfa075223c214bc1aE.llvm.13302588950870518637 0000000140001120 f   libaho_corasick-b4d6ea81f1a61526:aho_corasick-b4d6ea81f1a61526.aho_corasick.7f4fbca99e96e6a8-cgu.08.rcgu.o
 0001:00000120       _ZN4core3ptr46drop_in_place$LT$$RF$goblin..elf..sym..Sym$GT$17h10efcb6dbd13fc2eE.llvm.8329107711877904777 0000000140001120 f   libgoblin-8ee2c552e4c10df6:goblin-8ee2c552e4c10df6.goblin.f087800e97e1b550-cgu.08.rcgu.o
 0001:00000120       _ZN4core3ptr47drop_in_place$LT$$RF$regex_syntax..ast..Ast$GT$17hfdffe1ca849f5660E.llvm.4264589526237034297 0000000140001120 f   libregex_syntax-1a078ef20d4d7dee:regex_syntax-1a078ef20d4d7dee.regex_syntax.936f5d3813beee8b-cgu.10.rcgu.o
 0001:00000120       _ZN4core3ptr47drop_in_place$LT$$RF$regex_syntax..hir..Hir$GT$17h3360d0e46cab7270E.llvm.4264589526237034297 0000000140001120 f   libregex_syntax-1a078ef20d4d7dee:regex_syntax-1a078ef20d4d7dee.regex_syntax.936f5d3813beee8b-cgu.10.rcgu.o
 0001:00000120       _ZN4core3ptr47drop_in_place$LT$regex_syntax..hir..LookSet$GT$17hd4900813f1429c34E.llvm.573348780487807197 0000000140001120 f   libregex_syntax-1a078ef20d4d7dee:regex_syntax-1a078ef20d4d7dee.regex_syntax.936f5d3813beee8b-cgu.01.rcgu.o
 0001:00000120       _ZN4core3ptr48drop_in_place$LT$$RF$goblin..archive..Member$GT$17h4f1914964ae2ffb9E.llvm.8329107711877904777 0000000140001120 f   libgoblin-8ee2c552e4c10df6:goblin-8ee2c552e4c10df6.goblin.f087800e97e1b550-cgu.08.rcgu.o
 0001:00000120       _ZN4core3ptr48drop_in_place$LT$$RF$regex_syntax..hir..Look$GT$17h8a33091c4f3d1b65E.llvm.573348780487807197 0000000140001120 f   libregex_syntax-1a078ef20d4d7dee:regex_syntax-1a078ef20d4d7dee.regex_syntax.936f5d3813beee8b-cgu.01.rcgu.o
 0001:00000120       _ZN4core3ptr49drop_in_place$LT$$RF$regex_syntax..hir..Class$GT$17hca2cb8cc513e311aE.llvm.573348780487807197 0000000140001120 f   libregex_syntax-1a078ef20d4d7dee:regex_syntax-1a078ef20d4d7dee.regex_syntax.936f5d3813beee8b-cgu.01.rcgu.o
 0001:00000120       _ZN4core3ptr49drop_in_place$LT$core..char..TryFromCharError$GT$17h4feb529d9d7eb19cE.llvm.1190860102792631389 0000000140001120 f   libregex_syntax-1a078ef20d4d7dee:regex_syntax-1a078ef20d4d7dee.regex_syntax.936f5d3813beee8b-cgu.14.rcgu.o
 0001:00000120       _ZN4core3ptr50drop_in_place$LT$$RF$alloc..vec..Vec$LT$u8$GT$$GT$17hea75a0a08f9917f1E.llvm.13302588950870518637 0000000140001120 f   libaho_corasick-b4d6ea81f1a61526:aho_corasick-b4d6ea81f1a61526.aho_corasick.7f4fbca99e96e6a8-cgu.08.rcgu.o
 0001:00000120       _ZN4core3ptr50drop_in_place$LT$$RF$goblin..elf..dynamic..Dyn$GT$17h9bf1eb0ca1bdb617E.llvm.8329107711877904777 0000000140001120 f   libgoblin-8ee2c552e4c10df6:goblin-8ee2c552e4c10df6.goblin.f087800e97e1b550-cgu.08.rcgu.o
 0001:00000120       _ZN4core3ptr50drop_in_place$LT$$RF$goblin..elf..reloc..Reloc$GT$17h4f7d6b192aa7245fE.llvm.8329107711877904777 0000000140001120 f   libgoblin-8ee2c552e4c10df6:goblin-8ee2c552e4c10df6.goblin.f087800e97e1b550-cgu.08.rcgu.o
 0001:00000120       _ZN4core3ptr51drop_in_place$LT$$RF$goblin..mach..fat..FatArch$GT$17hdbddfe9f948f3b66E.llvm.8329107711877904777 0000000140001120 f   libgoblin-8ee2c552e4c10df6:goblin-8ee2c552e4c10df6.goblin.f087800e97e1b550-cgu.08.rcgu.o
 0001:00000120       _ZN4core3ptr51drop_in_place$LT$$RF$goblin..pe..export..Export$GT$17h251444b0b5fd1eccE.llvm.8329107711877904777 0000000140001120 f   libgoblin-8ee2c552e4c10df6:goblin-8ee2c552e4c10df6.goblin.f087800e97e1b550-cgu.08.rcgu.o
 0001:00000120       _ZN4core3ptr51drop_in_place$LT$$RF$goblin..pe..import..Import$GT$17h739aeb849dbd3f55E.llvm.8329107711877904777 0000000140001120 f   libgoblin-8ee2c552e4c10df6:goblin-8ee2c552e4c10df6.goblin.f087800e97e1b550-cgu.08.rcgu.o
 0001:00000120       _ZN4core3ptr51drop_in_place$LT$$RF$regex_syntax..ast..Comment$GT$17hd54715380fe27bc4E.llvm.4264589526237034297 0000000140001120 f   libregex_syntax-1a078ef20d4d7dee:regex_syntax-1a078ef20d4d7dee.regex_syntax.936f5d3813beee8b-cgu.10.rcgu.o
 0001:00000120       _ZN4core3ptr51drop_in_place$LT$$RF$regex_syntax..hir..Capture$GT$17h6d555abdf9fbfe4bE.llvm.573348780487807197 0000000140001120 f   libregex_syntax-1a078ef20d4d7dee:regex_syntax-1a078ef20d4d7dee.regex_syntax.936f5d3813beee8b-cgu.01.rcgu.o
 0001:00000120       _ZN4core3ptr51drop_in_place$LT$$RF$regex_syntax..hir..Literal$GT$17hd0802eeae129121cE.llvm.573348780487807197 0000000140001120 f   libregex_syntax-1a078ef20d4d7dee:regex_syntax-1a078ef20d4d7dee.regex_syntax.936f5d3813beee8b-cgu.01.rcgu.o
 0001:00000120       _ZN4core3ptr52drop_in_place$LT$$RF$alloc..sync..Arc$LT$str$GT$$GT$17h239a5cf82c513753E.llvm.9692425724856445687 0000000140001120 f   libregex_automata-464fc35d41c3d390:regex_automata-464fc35d41c3d390.regex_automata.ab23a1c50add178-cgu.07.rcgu.o
 0001:00000120       _ZN4core3ptr52drop_in_place$LT$core..sync..atomic..AtomicUsize$GT$17h74a13f3c80f8f0f1E.llvm.8572194949199378180 0000000140001120 f   libregex_automata-464fc35d41c3d390:regex_automata-464fc35d41c3d390.regex_automata.ab23a1c50add178-cgu.08.rcgu.o
 0001:00000120       _ZN4core3ptr53drop_in_place$LT$$RF$regex_syntax..ast..FlagsItem$GT$17h8615073ee7b5a88eE.llvm.4264589526237034297 0000000140001120 f   libregex_syntax-1a078ef20d4d7dee:regex_syntax-1a078ef20d4d7dee.regex_syntax.936f5d3813beee8b-cgu.10.rcgu.o
 0001:00000120       _ZN4core3ptr53drop_in_place$LT$core..alloc..layout..LayoutError$GT$17h1360e75e6805dab6E.llvm.10500910617839526563 0000000140001120 f   libregex-0477f9e9a333a0e8:regex-0477f9e9a333a0e8.regex.bdffd6b571ecefc1-cgu.8.rcgu.o
 0001:00000120       _ZN4core3ptr53drop_in_place$LT$core..alloc..layout..LayoutError$GT$17hdb243149f83d8015E.llvm.551548863055934565 0000000140001120 f   libregex_automata-464fc35d41c3d390:regex_automata-464fc35d41c3d390.regex_automata.ab23a1c50add178-cgu.14.rcgu.o
 0001:00000120       _ZN4core3ptr54drop_in_place$LT$$RF$goblin..mach..exports..Export$GT$17h765dabe23d92c5bbE.llvm.8329107711877904777 0000000140001120 f   libgoblin-8ee2c552e4c10df6:goblin-8ee2c552e4c10df6.goblin.f087800e97e1b550-cgu.08.rcgu.o
 0001:00000120       _ZN4core3ptr54drop_in_place$LT$$RF$goblin..mach..imports..Import$GT$17h9f0a2b7634a3a345E.llvm.8329107711877904777 0000000140001120 f   libgoblin-8ee2c552e4c10df6:goblin-8ee2c552e4c10df6.goblin.f087800e97e1b550-cgu.08.rcgu.o
 0001:00000120       _ZN4core3ptr54drop_in_place$LT$$RF$regex_syntax..hir..Properties$GT$17h8b13e086f0af8ba2E.llvm.8572194949199378180 0000000140001120 f   libregex_automata-464fc35d41c3d390:regex_automata-464fc35d41c3d390.regex_automata.ab23a1c50add178-cgu.08.rcgu.o
 0001:00000120       _ZN4core3ptr54drop_in_place$LT$$RF$regex_syntax..hir..Properties$GT$17h8b13e086f0af8ba2E.llvm.9692425724856445687 0000000140001120 f   libregex_automata-464fc35d41c3d390:regex_automata-464fc35d41c3d390.regex_automata.ab23a1c50add178-cgu.07.rcgu.o
 0001:00000120       _ZN4core3ptr54drop_in_place$LT$$RF$regex_syntax..hir..Repetition$GT$17h699f2b48393ee559E.llvm.573348780487807197 0000000140001120 f   libregex_syntax-1a078ef20d4d7dee:regex_syntax-1a078ef20d4d7dee.regex_syntax.936f5d3813beee8b-cgu.01.rcgu.o
 0001:00000120       _ZN4core3ptr54drop_in_place$LT$$RF$regex_syntax..utf8..Utf8Range$GT$17h5ebce771f479fd9eE.llvm.9692425724856445687 0000000140001120 f   libregex_automata-464fc35d41c3d390:regex_automata-464fc35d41c3d390.regex_automata.ab23a1c50add178-cgu.07.rcgu.o
 0001:00000120       _ZN4core3ptr54drop_in_place$LT$core..num..error..TryFromIntError$GT$17h0854ec2f6ce20867E.llvm.5923153528386317138 0000000140001120 f   libregex_automata-464fc35d41c3d390:regex_automata-464fc35d41c3d390.regex_automata.ab23a1c50add178-cgu.09.rcgu.o
 0001:00000120       _ZN4core3ptr54drop_in_place$LT$core..option..Option$LT$usize$GT$$GT$17h35790155c63073cbE.llvm.573348780487807197 0000000140001120 f   libregex_syntax-1a078ef20d4d7dee:regex_syntax-1a078ef20d4d7dee.regex_syntax.936f5d3813beee8b-cgu.01.rcgu.o
 0001:00000120       _ZN4core3ptr55drop_in_place$LT$$RF$goblin..mach..segment..Section$GT$17hb5487cc87f724968E.llvm.8329107711877904777 0000000140001120 f   libgoblin-8ee2c552e4c10df6:goblin-8ee2c552e4c10df6.goblin.f087800e97e1b550-cgu.08.rcgu.o
 0001:00000120       _ZN4core3ptr55drop_in_place$LT$$RF$goblin..mach..segment..Segment$GT$17h3bd45d20351e89e3E.llvm.8329107711877904777 0000000140001120 f   libgoblin-8ee2c552e4c10df6:goblin-8ee2c552e4c10df6.goblin.f087800e97e1b550-cgu.08.rcgu.o
 0001:00000120       _ZN4core3ptr55drop_in_place$LT$$RF$regex_syntax..ast..CaptureName$GT$17hfa10628d43599b22E.llvm.4264589526237034297 0000000140001120 f   libregex_syntax-1a078ef20d4d7dee:regex_syntax-1a078ef20d4d7dee.regex_syntax.936f5d3813beee8b-cgu.10.rcgu.o
 0001:00000120       _ZN4core3ptr56drop_in_place$LT$$RF$regex_syntax..ast..ClassSetItem$GT$17he0454f1a14eb5ee5E.llvm.4264589526237034297 0000000140001120 f   libregex_syntax-1a078ef20d4d7dee:regex_syntax-1a078ef20d4d7dee.regex_syntax.936f5d3813beee8b-cgu.10.rcgu.o
 0001:00000120       _ZN4core3ptr56drop_in_place$LT$$RF$regex_syntax..utf8..ScalarRange$GT$17hf63ed109ad0974afE.llvm.4264589526237034297 0000000140001120 f   libregex_syntax-1a078ef20d4d7dee:regex_syntax-1a078ef20d4d7dee.regex_syntax.936f5d3813beee8b-cgu.10.rcgu.o
 0001:00000120       _ZN4core3ptr57drop_in_place$LT$aho_corasick..packed..api..MatchKind$GT$17h058bbe649b74eca3E.llvm.14991035210720787909 0000000140001120 f   libaho_corasick-b4d6ea81f1a61526:aho_corasick-b4d6ea81f1a61526.aho_corasick.7f4fbca99e96e6a8-cgu.14.rcgu.o
 0001:00000120       _ZN4core3ptr57drop_in_place$LT$regex_syntax..unicode..CaseFoldError$GT$17h7e0031a0c6cc2f67E.llvm.573348780487807197 0000000140001120 f   libregex_syntax-1a078ef20d4d7dee:regex_syntax-1a078ef20d4d7dee.regex_syntax.936f5d3813beee8b-cgu.01.rcgu.o
 0001:00000120       _ZN4core3ptr58drop_in_place$LT$$RF$$LP$char$C$$RF$$u5b$char$u5d$$RP$$GT$17hb4c032d9850fdb06E.llvm.4264589526237034297 0000000140001120 f   libregex_syntax-1a078ef20d4d7dee:regex_syntax-1a078ef20d4d7dee.regex_syntax.936f5d3813beee8b-cgu.10.rcgu.o
 0001:00000120       _ZN4core3ptr58drop_in_place$LT$$RF$core..option..Option$LT$usize$GT$$GT$17ha4350a99ba02de33E.llvm.9692425724856445687 0000000140001120 f   libregex_automata-464fc35d41c3d390:regex_automata-464fc35d41c3d390.regex_automata.ab23a1c50add178-cgu.07.rcgu.o
 0001:00000120       _ZN4core3ptr58drop_in_place$LT$$RF$regex_syntax..hir..literal..State$GT$17h827bac3e5c9fc2d3E.llvm.4264589526237034297 0000000140001120 f   libregex_syntax-1a078ef20d4d7dee:regex_syntax-1a078ef20d4d7dee.regex_syntax.936f5d3813beee8b-cgu.10.rcgu.o
 0001:00000120       _ZN4core3ptr59drop_in_place$LT$$RF$regex_syntax..hir..ClassBytesRange$GT$17h2b7dd8be60b00a9dE.llvm.4264589526237034297 0000000140001120 f   libregex_syntax-1a078ef20d4d7dee:regex_syntax-1a078ef20d4d7dee.regex_syntax.936f5d3813beee8b-cgu.10.rcgu.o
 0001:00000120       _ZN4core3ptr60drop_in_place$LT$$RF$regex_syntax..hir..literal..Literal$GT$17h83d55cd9a27da993E.llvm.4264589526237034297 0000000140001120 f   libregex_syntax-1a078ef20d4d7dee:regex_syntax-1a078ef20d4d7dee.regex_syntax.936f5d3813beee8b-cgu.10.rcgu.o
 0001:00000120       _ZN4core3ptr60drop_in_place$LT$regex_automata..util..look..LookMatcher$GT$17hff6470bb86a3f8c8E.llvm.9692425724856445687 0000000140001120 f   libregex_automata-464fc35d41c3d390:regex_automata-464fc35d41c3d390.regex_automata.ab23a1c50add178-cgu.07.rcgu.o
 0001:00000120       _ZN4core3ptr61drop_in_place$LT$$RF$regex_syntax..ast..parse..ClassState$GT$17h3dbac7b709852499E.llvm.4264589526237034297 0000000140001120 f   libregex_syntax-1a078ef20d4d7dee:regex_syntax-1a078ef20d4d7dee.regex_syntax.936f5d3813beee8b-cgu.10.rcgu.o
 0001:00000120       _ZN4core3ptr61drop_in_place$LT$$RF$regex_syntax..ast..parse..GroupState$GT$17hb0e17d905b8428f8E.llvm.4264589526237034297 0000000140001120 f   libregex_syntax-1a078ef20d4d7dee:regex_syntax-1a078ef20d4d7dee.regex_syntax.936f5d3813beee8b-cgu.10.rcgu.o
 0001:00000120       _ZN4core3ptr61drop_in_place$LT$$RF$regex_syntax..hir..ClassUnicodeRange$GT$17h158258cf8a65daa9E.llvm.4264589526237034297 0000000140001120 f   libregex_syntax-1a078ef20d4d7dee:regex_syntax-1a078ef20d4d7dee.regex_syntax.936f5d3813beee8b-cgu.10.rcgu.o
 0001:00000120       _ZN4core3ptr63drop_in_place$LT$$RF$regex_automata..meta..regex..RegexInfo$GT$17hbbbb59b40cbbb541E.llvm.8572194949199378180 0000000140001120 f   libregex_automata-464fc35d41c3d390:regex_automata-464fc35d41c3d390.regex_automata.ab23a1c50add178-cgu.08.rcgu.o
 0001:00000120       _ZN4core3ptr63drop_in_place$LT$$RF$regex_automata..util..search..Anchored$GT$17h60c110e5d3cb80f4E.llvm.9692425724856445687 0000000140001120 f   libregex_automata-464fc35d41c3d390:regex_automata-464fc35d41c3d390.regex_automata.ab23a1c50add178-cgu.07.rcgu.o
 0001:00000120       _ZN4core3ptr63drop_in_place$LT$$RF$regex_syntax..hir..translate..HirFrame$GT$17hb64c59d606d91982E.llvm.4264589526237034297 0000000140001120 f   libregex_syntax-1a078ef20d4d7dee:regex_syntax-1a078ef20d4d7dee.regex_syntax.936f5d3813beee8b-cgu.10.rcgu.o
 0001:00000120       _ZN4core3ptr64drop_in_place$LT$$RF$aho_corasick..util..primitives..StateID$GT$17h3b202234f15406bdE.llvm.13302588950870518637 0000000140001120 f   libaho_corasick-b4d6ea81f1a61526:aho_corasick-b4d6ea81f1a61526.aho_corasick.7f4fbca99e96e6a8-cgu.08.rcgu.o
 0001:00000120       _ZN4core3ptr64drop_in_place$LT$$RF$goblin..mach..load_command..LoadCommand$GT$17h4d3fdf36bcb2094fE.llvm.8329107711877904777 0000000140001120 f   libgoblin-8ee2c552e4c10df6:goblin-8ee2c552e4c10df6.goblin.f087800e97e1b550-cgu.08.rcgu.o
 0001:00000120       _ZN4core3ptr64drop_in_place$LT$$RF$goblin..pe..section_table..SectionTable$GT$17hf059832ff1e5dd34E.llvm.8329107711877904777 0000000140001120 f   libgoblin-8ee2c552e4c10df6:goblin-8ee2c552e4c10df6.goblin.f087800e97e1b550-cgu.08.rcgu.o
 0001:00000120       _ZN4core3ptr64drop_in_place$LT$$RF$regex_automata..hybrid..id..LazyStateID$GT$17h4970ebf75a11ced0E.llvm.9692425724856445687 0000000140001120 f   libregex_automata-464fc35d41c3d390:regex_automata-464fc35d41c3d390.regex_automata.ab23a1c50add178-cgu.07.rcgu.o
 0001:00000120       _ZN4core3ptr65drop_in_place$LT$$RF$regex_automata..dfa..onepass..Transition$GT$17h4c7a648b1add961fE.llvm.9692425724856445687 0000000140001120 f   libregex_automata-464fc35d41c3d390:regex_automata-464fc35d41c3d390.regex_automata.ab23a1c50add178-cgu.07.rcgu.o
 0001:00000120       _ZN4core3ptr65drop_in_place$LT$regex_automata..hybrid..id..LazyStateIDError$GT$17hd7e8b928ab0a192cE.llvm.8640288705726485972 0000000140001120 f   libregex_automata-464fc35d41c3d390:regex_automata-464fc35d41c3d390.regex_automata.ab23a1c50add178-cgu.06.rcgu.o
 0001:00000120       _ZN4core3ptr66drop_in_place$LT$$RF$aho_corasick..util..primitives..PatternID$GT$17h71daf1fe5c0282d4E.llvm.13302588950870518637 0000000140001120 f   libaho_corasick-b4d6ea81f1a61526:aho_corasick-b4d6ea81f1a61526.aho_corasick.7f4fbca99e96e6a8-cgu.08.rcgu.o
 0001:00000120       _ZN4core3ptr66drop_in_place$LT$$RF$regex_automata..util..primitives..StateID$GT$17h302c6c78ed7916b1E.llvm.9692425724856445687 0000000140001120 f   libregex_automata-464fc35d41c3d390:regex_automata-464fc35d41c3d390.regex_automata.ab23a1c50add178-cgu.07.rcgu.o
 0001:00000120       _ZN4core3ptr67drop_in_place$LT$$RF$goblin..elf..program_header..ProgramHeader$GT$17h42b72a2d92c572dcE.llvm.8329107711877904777 0000000140001120 f   libgoblin-8ee2c552e4c10df6:goblin-8ee2c552e4c10df6.goblin.f087800e97e1b550-cgu.08.rcgu.o
 0001:00000120       _ZN4core3ptr67drop_in_place$LT$$RF$goblin..elf..section_header..SectionHeader$GT$17h427f34467b232d69E.llvm.8329107711877904777 0000000140001120 f   libgoblin-8ee2c552e4c10df6:goblin-8ee2c552e4c10df6.goblin.f087800e97e1b550-cgu.08.rcgu.o
 0001:00000120       _ZN4core3ptr67drop_in_place$LT$aho_corasick..util..primitives..PatternIDError$GT$17h9d93fdaa0bc299d5E.llvm.14991035210720787909 0000000140001120 f   libaho_corasick-b4d6ea81f1a61526:aho_corasick-b4d6ea81f1a61526.aho_corasick.7f4fbca99e96e6a8-cgu.14.rcgu.o
 0001:00000120       _ZN4core3ptr67drop_in_place$LT$regex_automata..util..primitives..StateIDError$GT$17hda31a215e69d6dfaE.llvm.551548863055934565 0000000140001120 f   libregex_automata-464fc35d41c3d390:regex_automata-464fc35d41c3d390.regex_automata.ab23a1c50add178-cgu.14.rcgu.o
 0001:00000120       _ZN4core3ptr68drop_in_place$LT$$RF$goblin..pe..export..ExportAddressTableEntry$GT$17hd8191f11b3e3336aE.llvm.8329107711877904777 0000000140001120 f   libgoblin-8ee2c552e4c10df6:goblin-8ee2c552e4c10df6.goblin.f087800e97e1b550-cgu.08.rcgu.o
 0001:00000120       _ZN4core3ptr68drop_in_place$LT$$RF$regex_automata..util..primitives..PatternID$GT$17h7c6a038ec8937791E.llvm.9692425724856445687 0000000140001120 f   libregex_automata-464fc35d41c3d390:regex_automata-464fc35d41c3d390.regex_automata.ab23a1c50add178-cgu.07.rcgu.o
 0001:00000120       _ZN4core3ptr69drop_in_place$LT$$RF$regex_automata..util..primitives..SmallIndex$GT$17h1e8180ef6c24d7ffE.llvm.9692425724856445687 0000000140001120 f   libregex_automata-464fc35d41c3d390:regex_automata-464fc35d41c3d390.regex_automata.ab23a1c50add178-cgu.07.rcgu.o
 0001:00000120       _ZN4core3ptr70drop_in_place$LT$$RF$alloc..vec..Vec$LT$regex_syntax..hir..Hir$GT$$GT$17h243cdf3568e63cbcE.llvm.573348780487807197 0000000140001120 f   libregex_syntax-1a078ef20d4d7dee:regex_syntax-1a078ef20d4d7dee.regex_syntax.936f5d3813beee8b-cgu.01.rcgu.o
 0001:00000120       _ZN4core3ptr70drop_in_place$LT$$RF$regex_automata..nfa..thompson..builder..State$GT$17he0b512f18c683921E.llvm.9692425724856445687 0000000140001120 f   libregex_automata-464fc35d41c3d390:regex_automata-464fc35d41c3d390.regex_automata.ab23a1c50add178-cgu.07.rcgu.o
 0001:00000120       _ZN4core3ptr71drop_in_place$LT$$RF$regex_automata..nfa..thompson..nfa..Transition$GT$17hd2bdaa72ae69d6aaE.llvm.9692425724856445687 0000000140001120 f   libregex_automata-464fc35d41c3d390:regex_automata-464fc35d41c3d390.regex_automata.ab23a1c50add178-cgu.07.rcgu.o
 0001:00000120       _ZN4core3ptr72drop_in_place$LT$$RF$regex_automata..nfa..thompson..backtrack..Frame$GT$17h631951fc35ed8ae8E.llvm.9692425724856445687 0000000140001120 f   libregex_automata-464fc35d41c3d390:regex_automata-464fc35d41c3d390.regex_automata.ab23a1c50add178-cgu.07.rcgu.o
 0001:00000120       _ZN4core3ptr72drop_in_place$LT$$RF$regex_automata..util..determinize..state..State$GT$17h8bf453deb0bb6aafE.llvm.9692425724856445687 0000000140001120 f   libregex_automata-464fc35d41c3d390:regex_automata-464fc35d41c3d390.regex_automata.ab23a1c50add178-cgu.07.rcgu.o
 0001:00000120       _ZN4core3ptr72drop_in_place$LT$regex_automata..util..search..PatternSetInsertError$GT$17h64316cc74e67268dE.llvm.9692425724856445687 0000000140001120 f   libregex_automata-464fc35d41c3d390:regex_automata-464fc35d41c3d390.regex_automata.ab23a1c50add178-cgu.07.rcgu.o
 0001:00000120       _ZN4core3ptr73drop_in_place$LT$$RF$$LP$usize$C$goblin..elf..reloc..RelocSection$RP$$GT$17hd56a4cda5cc65aadE.llvm.8329107711877904777 0000000140001120 f   libgoblin-8ee2c552e4c10df6:goblin-8ee2c552e4c10df6.goblin.f087800e97e1b550-cgu.08.rcgu.o
 0001:00000120       _ZN4core3ptr74drop_in_place$LT$$RF$$RF$aho_corasick..util..prefilter..RareByteOffset$GT$17he6e853a574550345E.llvm.13302588950870518637 0000000140001120 f   libaho_corasick-b4d6ea81f1a61526:aho_corasick-b4d6ea81f1a61526.aho_corasick.7f4fbca99e96e6a8-cgu.08.rcgu.o
 0001:00000120       _ZN4core3ptr74drop_in_place$LT$$RF$goblin..pe..import..SyntheticImportDirectoryEntry$GT$17hce7b454c66c13732E.llvm.8329107711877904777 0000000140001120 f   libgoblin-8ee2c552e4c10df6:goblin-8ee2c552e4c10df6.goblin.f087800e97e1b550-cgu.08.rcgu.o
 0001:00000120       _ZN4core3ptr74drop_in_place$LT$$RF$regex_automata..nfa..thompson..compiler..Utf8Node$GT$17ha4614d662f6717dbE.llvm.9692425724856445687 0000000140001120 f   libregex_automata-464fc35d41c3d390:regex_automata-464fc35d41c3d390.regex_automata.ab23a1c50add178-cgu.07.rcgu.o
 0001:00000120       _ZN4core3ptr75drop_in_place$LT$$RF$regex_automata..meta..wrappers..ReverseHybridCache$GT$17h533a04c0d4622240E.llvm.8572194949199378180 0000000140001120 f   libregex_automata-464fc35d41c3d390:regex_automata-464fc35d41c3d390.regex_automata.ab23a1c50add178-cgu.08.rcgu.o
 0001:00000120       _ZN4core3ptr76drop_in_place$LT$$RF$goblin..pe..certificate_table..AttributeCertificate$GT$17h65c4c6daa1895806E.llvm.8329107711877904777 0000000140001120 f   libgoblin-8ee2c552e4c10df6:goblin-8ee2c552e4c10df6.goblin.f087800e97e1b550-cgu.08.rcgu.o
 0001:00000120       _ZN4core3ptr76drop_in_place$LT$$RF$goblin..pe..import..SyntheticImportLookupTableEntry$GT$17h339e7abce024c9e6E.llvm.8329107711877904777 0000000140001120 f   libgoblin-8ee2c552e4c10df6:goblin-8ee2c552e4c10df6.goblin.f087800e97e1b550-cgu.08.rcgu.o
 0001:00000120       _ZN4core3ptr76drop_in_place$LT$$RF$regex_automata..nfa..thompson..map..Utf8SuffixEntry$GT$17h5091f953fa031735E.llvm.9692425724856445687 0000000140001120 f   libregex_automata-464fc35d41c3d390:regex_automata-464fc35d41c3d390.regex_automata.ab23a1c50add178-cgu.07.rcgu.o
 0001:00000120       _ZN4core3ptr77drop_in_place$LT$$RF$aho_corasick..packed..teddy..generic..FatMaskBuilder$GT$17hf41963fa0a04f68fE.llvm.13302588950870518637 0000000140001120 f   libaho_corasick-b4d6ea81f1a61526:aho_corasick-b4d6ea81f1a61526.aho_corasick.7f4fbca99e96e6a8-cgu.08.rcgu.o
 0001:00000120       _ZN4core3ptr77drop_in_place$LT$$RF$regex_automata..nfa..thompson..map..Utf8BoundedEntry$GT$17h5ee31a6cc2f6f109E.llvm.9692425724856445687 0000000140001120 f   libregex_automata-464fc35d41c3d390:regex_automata-464fc35d41c3d390.regex_automata.ab23a1c50add178-cgu.07.rcgu.o
 0001:00000120       _ZN4core3ptr77drop_in_place$LT$$RF$regex_automata..nfa..thompson..pikevm..FollowEpsilon$GT$17haea326d776a45ae9E.llvm.9692425724856445687 0000000140001120 f   libregex_automata-464fc35d41c3d390:regex_automata-464fc35d41c3d390.regex_automata.ab23a1c50add178-cgu.07.rcgu.o
 0001:00000120       _ZN4core3ptr78drop_in_place$LT$$RF$aho_corasick..packed..teddy..generic..SlimMaskBuilder$GT$17h4c845f8808e1d970E.llvm.13302588950870518637 0000000140001120 f   libaho_corasick-b4d6ea81f1a61526:aho_corasick-b4d6ea81f1a61526.aho_corasick.7f4fbca99e96e6a8-cgu.08.rcgu.o
 0001:00000120       _ZN4core3ptr78drop_in_place$LT$$RF$regex_automata..nfa..thompson..range_trie..SplitRange$GT$17h0552a94075a86445E.llvm.9692425724856445687 0000000140001120 f   libregex_automata-464fc35d41c3d390:regex_automata-464fc35d41c3d390.regex_automata.ab23a1c50add178-cgu.07.rcgu.o
 0001:00000120       _ZN4core3ptr80drop_in_place$LT$$RF$core..option..Option$LT$alloc..sync..Arc$LT$str$GT$$GT$$GT$17hba01ea6bbf224022E.llvm.9692425724856445687 0000000140001120 f   libregex_automata-464fc35d41c3d390:regex_automata-464fc35d41c3d390.regex_automata.ab23a1c50add178-cgu.07.rcgu.o
 0001:00000120       _ZN4core3ptr82drop_in_place$LT$$RF$$LP$usize$C$aho_corasick..util..primitives..PatternID$RP$$GT$17h997b6a132ae8a599E.llvm.13302588950870518637 0000000140001120 f   libaho_corasick-b4d6ea81f1a61526:aho_corasick-b4d6ea81f1a61526.aho_corasick.7f4fbca99e96e6a8-cgu.08.rcgu.o
 0001:00000120       _ZN4core3ptr84drop_in_place$LT$$RF$alloc..boxed..Box$LT$regex_automata..meta..regex..Cache$GT$$GT$17hf64899e0c5fde420E.llvm.9692425724856445687 0000000140001120 f   libregex_automata-464fc35d41c3d390:regex_automata-464fc35d41c3d390.regex_automata.ab23a1c50add178-cgu.07.rcgu.o
 0001:00000120       _ZN4core3ptr85drop_in_place$LT$$RF$core..option..Option$LT$core..num..nonzero..NonZeroUsize$GT$$GT$17ha12c24995dce9f8eE.llvm.4264589526237034297 0000000140001120 f   libregex_syntax-1a078ef20d4d7dee:regex_syntax-1a078ef20d4d7dee.regex_syntax.936f5d3813beee8b-cgu.10.rcgu.o
 0001:00000120       _ZN4core3ptr85drop_in_place$LT$std..rt..lang_start$LT$$LP$$RP$$GT$..$u7b$$u7b$closure$u7d$$u7d$$GT$17h2b9a0f261c2b3924E.llvm.5340089140799553351 0000000140001120 f   genealogy.genealogy.21e9e755dfa74b4b-cgu.0.rcgu.o
 0001:00000120       _ZN4core3ptr89drop_in_place$LT$$RF$alloc..vec..Vec$LT$aho_corasick..util..primitives..PatternID$GT$$GT$17h35dddc71e0266559E.llvm.13302588950870518637 0000000140001120 f   libaho_corasick-b4d6ea81f1a61526:aho_corasick-b4d6ea81f1a61526.aho_corasick.7f4fbca99e96e6a8-cgu.08.rcgu.o
 0001:00000120       _ZN4core3ptr92drop_in_place$LT$core..option..Option$LT$regex_automata..util..primitives..PatternID$GT$$GT$17h658cf8deb3a6c8aaE.llvm.9692425724856445687 0000000140001120 f   libregex_automata-464fc35d41c3d390:regex_automata-464fc35d41c3d390.regex_automata.ab23a1c50add178-cgu.07.rcgu.o
 0001:00000120       _ZN4core3ptr96drop_in_place$LT$$RF$core..option..Option$LT$goblin..pe..data_directories..DataDirectory$GT$$GT$17h1192256c106e41e5E.llvm.8329107711877904777 0000000140001120 f   libgoblin-8ee2c552e4c10df6:goblin-8ee2c552e4c10df6.goblin.f087800e97e1b550-cgu.08.rcgu.o
 0001:00000120       _ZN4core3ptr97drop_in_place$LT$$RF$alloc..vec..Vec$LT$regex_automata..nfa..thompson..compiler..Utf8Node$GT$$GT$17h7edd1bf877b42a83E.llvm.1376675858812116721 0000000140001120 f   libregex_automata-464fc35d41c3d390:regex_automata-464fc35d41c3d390.regex_automata.ab23a1c50add178-cgu.12.rcgu.o
 0001:00000120       _ZN4core3ptr98drop_in_place$LT$$RF$core..option..Option$LT$regex_automata..util..primitives..NonMaxUsize$GT$$GT$17hb1bd844802af605dE.llvm.9692425724856445687 0000000140001120 f   libregex_automata-464fc35d41c3d390:regex_automata-464fc35d41c3d390.regex_automata.ab23a1c50add178-cgu.07.rcgu.o
 0001:00000120       _ZN4core3ptr99drop_in_place$LT$$RF$alloc..vec..Vec$LT$regex_automata..nfa..thompson..map..Utf8SuffixEntry$GT$$GT$17hba3964cbaa5f2232E.llvm.551548863055934565 0000000140001120 f   libregex_automata-464fc35d41c3d390:regex_automata-464fc35d41c3d390.regex_automata.ab23a1c50add178-cgu.14.rcgu.o
 0001:00000130       _ZN5alloc7raw_vec11finish_grow17h61adcd43b27d5525E.llvm.16767093431010521806 0000000140001130 f   libregex-0477f9e9a333a0e8:regex-0477f9e9a333a0e8.regex.bdffd6b571ecefc1-cgu.0.rcgu.o
 0001:00000130       _ZN5alloc7raw_vec11finish_grow17h6b8942b36c3d0e47E.llvm.2759523984934839503 0000000140001130 f   libregex_automata-464fc35d41c3d390:regex_automata-464fc35d41c3d390.regex_automata.ab23a1c50add178-cgu.00.rcgu.o
 0001:00000130       _ZN5alloc7raw_vec11finish_grow17h8c7ab63f239ca788E.llvm.16759937970949886344 0000000140001130 f   libgenealogy-4468c333aa2128b5:genealogy-4468c333aa2128b5.genealogy.75c246340fa38059-cgu.01.rcgu.o
 0001:00000130       _ZN5alloc7raw_vec11finish_grow17h8e8ff63bbf062f83E.llvm.8476091186981259595 0000000140001130 f   libgoblin-8ee2c552e4c10df6:goblin-8ee2c552e4c10df6.goblin.f087800e97e1b550-cgu.01.rcgu.o
 0001:00000130       _ZN5alloc7raw_vec11finish_grow17h9c6a121f7e24a875E.llvm.14578065799956869066 0000000140001130 f   libregex_syntax-1a078ef20d4d7dee:regex_syntax-1a078ef20d4d7dee.regex_syntax.936f5d3813beee8b-cgu.03.rcgu.o
 0001:00000130       _ZN5alloc7raw_vec11finish_grow17ha9638df8f067e27eE.llvm.5340089140799553351 0000000140001130 f   genealogy.genealogy.21e9e755dfa74b4b-cgu.0.rcgu.o
 0001:00000130       _ZN5alloc7raw_vec11finish_grow17habc0c01e58f126feE.llvm.1483170823093544132 0000000140001130 f   libaho_corasick-b4d6ea81f1a61526:aho_corasick-b4d6ea81f1a61526.aho_corasick.7f4fbca99e96e6a8-cgu.02.rcgu.o
 0001:000001c0       _ZN65_$LT$alloc..vec..Vec$LT$T$C$A$GT$$u20$as$u20$core..fmt..Debug$GT$3fmt17h0e1d6c9548a67df9E 00000001400011c0 f   genealogy.genealogy.21e9e755dfa74b4b-cgu.0.rcgu.o
 0001:00000320       _ZN95_$LT$intervaltree..QueryIter$LT$K$C$V$GT$$u20$as$u20$core..iter..traits..iterator..Iterator$GT$4next17hf6ab462b9a88915cE.llvm.5340089140799553351 0000000140001320 f   genealogy.genealogy.21e9e755dfa74b4b-cgu.0.rcgu.o
 0001:00000540       _ZN98_$LT$alloc..vec..Vec$LT$T$GT$$u20$as$u20$alloc..vec..spec_from_iter..SpecFromIter$LT$T$C$I$GT$$GT$9from_iter17h3289667c7aa461edE 0000000140001540 f   genealogy.genealogy.21e9e755dfa74b4b-cgu.0.rcgu.o
 0001:00000770       _ZN4core3ptr97drop_in_place$LT$alloc..vec..Vec$LT$intervaltree..Node$LT$u64$C$alloc..string..String$GT$$GT$$GT$17hd9496def416e3d96E.llvm.14477547794709756972 0000000140001770 f   libgenealogy-4468c333aa2128b5:genealogy-4468c333aa2128b5.genealogy.75c246340fa38059-cgu.08.rcgu.o
 0001:000007f0       _ZN4core3ptr58drop_in_place$LT$alloc..boxed..Box$LT$$u5b$u8$u5d$$GT$$GT$17hd593b281bdd22a64E.llvm.11096930176126508055 00000001400017f0 f   libaho_corasick-b4d6ea81f1a61526:aho_corasick-b4d6ea81f1a61526.aho_corasick.7f4fbca99e96e6a8-cgu.01.rcgu.o
 0001:000007f0       _ZN4core3ptr58drop_in_place$LT$alloc..boxed..Box$LT$$u5b$u8$u5d$$GT$$GT$17hd593b281bdd22a64E.llvm.7917853756767569682 00000001400017f0 f   libaho_corasick-b4d6ea81f1a61526:aho_corasick-b4d6ea81f1a61526.aho_corasick.7f4fbca99e96e6a8-cgu.12.rcgu.o
 0001:00000d70       main                       0000000140001d70 f   genealogy.genealogy.21e9e755dfa74b4b-cgu.1.rcgu.o
 0001:00000db0       __rust_alloc               0000000140001db0 f   genealogy.2g4sswzbnwlvzl21.rcgu.o
 0001:00000dc0       __rust_dealloc             0000000140001dc0 f   genealogy.2g4sswzbnwlvzl21.rcgu.o
 0001:00000dd0       __rust_realloc             0000000140001dd0 f   genealogy.2g4sswzbnwlvzl21.rcgu.o
 0001:00000de0       __rust_alloc_zeroed        0000000140001de0 f   genealogy.2g4sswzbnwlvzl21.rcgu.o
 0001:00000df0       __rust_alloc_error_handler 0000000140001df0 f   genealogy.2g4sswzbnwlvzl21.rcgu.o
 0001:00001250       _ZN4core3ptr139drop_in_place$LT$std..collections..hash..map..HashMap$LT$alloc..sync..Arc$LT$str$GT$$C$regex_automata..util..primitives..SmallIndex$GT$$GT$17h431826e3248b9084E.llvm.9592236424118357698 0000000140002250 f   libgenealogy-4468c333aa2128b5:genealogy-4468c333aa2128b5.genealogy.75c246340fa38059-cgu.03.rcgu.o
 0001:00001250       _ZN4core3ptr139drop_in_place$LT$std..collections..hash..map..HashMap$LT$alloc..sync..Arc$LT$str$GT$$C$regex_automata..util..primitives..SmallIndex$GT$$GT$17hbfe9bf4e5a9d3a46E.llvm.16234871685531041024 0000000140002250 f   libregex_automata-464fc35d41c3d390:regex_automata-464fc35d41c3d390.regex_automata.ab23a1c50add178-cgu.01.rcgu.o
 0001:00001ab0       _ZN4core3ptr167drop_in_place$LT$core..iter..adapters..map..Map$LT$alloc..vec..into_iter..IntoIter$LT$u8$GT$$C$regex_syntax..hir..Hir..alternation..$u7b$$u7b$closure$u7d$$u7d$$GT$$GT$17h13dec2bd6c37c5b8E.llvm.2631318121689656173 0000000140002ab0 f   libregex_syntax-1a078ef20d4d7dee:regex_syntax-1a078ef20d4d7dee.regex_syntax.936f5d3813beee8b-cgu.02.rcgu.o
 0001:00001ab0       _ZN4core3ptr42drop_in_place$LT$alloc..string..String$GT$17h380f03c1e66a2711E.llvm.4878409327168373810 0000000140002ab0 f   libregex-0477f9e9a333a0e8:regex-0477f9e9a333a0e8.regex.bdffd6b571ecefc1-cgu.5.rcgu.o
 0001:00001ab0       _ZN4core3ptr42drop_in_place$LT$alloc..string..String$GT$17h9db2d95252ebd0ebE.llvm.9943199653127586387 0000000140002ab0 f   libgenealogy-4468c333aa2128b5:genealogy-4468c333aa2128b5.genealogy.75c246340fa38059-cgu.00.rcgu.o
 0001:00001ab0       _ZN4core3ptr42drop_in_place$LT$alloc..string..String$GT$17hb72a6eff1fce3dbbE.llvm.16234871685531041024 0000000140002ab0 f   libregex_automata-464fc35d41c3d390:regex_automata-464fc35d41c3d390.regex_automata.ab23a1c50add178-cgu.01.rcgu.o
 0001:00001ab0       _ZN4core3ptr42drop_in_place$LT$alloc..string..String$GT$17hfbb2dc8c9bd76251E.llvm.2631318121689656173 0000000140002ab0 f   libregex_syntax-1a078ef20d4d7dee:regex_syntax-1a078ef20d4d7dee.regex_syntax.936f5d3813beee8b-cgu.02.rcgu.o
 0001:00001ab0       _ZN4core3ptr46drop_in_place$LT$alloc..vec..Vec$LT$u8$GT$$GT$17h0ee0f6813f1b602cE.llvm.16234871685531041024 0000000140002ab0 f   libregex_automata-464fc35d41c3d390:regex_automata-464fc35d41c3d390.regex_automata.ab23a1c50add178-cgu.01.rcgu.o
 0001:00001ab0       _ZN4core3ptr46drop_in_place$LT$alloc..vec..Vec$LT$u8$GT$$GT$17h46b3d6bf7e0208afE.llvm.14991035210720787909 0000000140002ab0 f   libaho_corasick-b4d6ea81f1a61526:aho_corasick-b4d6ea81f1a61526.aho_corasick.7f4fbca99e96e6a8-cgu.14.rcgu.o
 0001:00001ab0       _ZN4core3ptr46drop_in_place$LT$alloc..vec..Vec$LT$u8$GT$$GT$17h6e73a32d242b6220E.llvm.2631318121689656173 0000000140002ab0 f   libregex_syntax-1a078ef20d4d7dee:regex_syntax-1a078ef20d4d7dee.regex_syntax.936f5d3813beee8b-cgu.02.rcgu.o
 0001:00001ab0       _ZN4core3ptr48drop_in_place$LT$alloc..vec..Vec$LT$bool$GT$$GT$17h9fcf230577bfed1eE.llvm.16234871685531041024 0000000140002ab0 f   libregex_automata-464fc35d41c3d390:regex_automata-464fc35d41c3d390.regex_automata.ab23a1c50add178-cgu.01.rcgu.o
 0001:00001ab0       _ZN4core3ptr51drop_in_place$LT$regex_syntax..ast..CaptureName$GT$17hf8ee09c30153f663E.llvm.2631318121689656173 0000000140002ab0 f   libregex_syntax-1a078ef20d4d7dee:regex_syntax-1a078ef20d4d7dee.regex_syntax.936f5d3813beee8b-cgu.02.rcgu.o
 0001:00001ab0       _ZN4core3ptr56drop_in_place$LT$regex_syntax..hir..literal..Literal$GT$17hdfe470c6ca6e619aE.llvm.2631318121689656173 0000000140002ab0 f   libregex_syntax-1a078ef20d4d7dee:regex_syntax-1a078ef20d4d7dee.regex_syntax.936f5d3813beee8b-cgu.02.rcgu.o
 0001:00001ab0       _ZN4core3ptr74drop_in_place$LT$intervaltree..Node$LT$u64$C$alloc..string..String$GT$$GT$17h3e7531777a78c4d7E.llvm.9592236424118357698 0000000140002ab0 f   libgenealogy-4468c333aa2128b5:genealogy-4468c333aa2128b5.genealogy.75c246340fa38059-cgu.03.rcgu.o
 0001:00001ab0       _ZN4core3ptr78drop_in_place$LT$regex_automata..util..determinize..state..StateBuilderNFA$GT$17h0936ece9132ee320E.llvm.5923153528386317138 0000000140002ab0 f   libregex_automata-464fc35d41c3d390:regex_automata-464fc35d41c3d390.regex_automata.ab23a1c50add178-cgu.09.rcgu.o
 0001:00001ab0       _ZN4core3ptr80drop_in_place$LT$regex_automata..util..determinize..state..StateBuilderEmpty$GT$17he029cbdbfa3dc1f6E.llvm.5923153528386317138 0000000140002ab0 f   libregex_automata-464fc35d41c3d390:regex_automata-464fc35d41c3d390.regex_automata.ab23a1c50add178-cgu.09.rcgu.o
 0001:00001ab0       _ZN4core3ptr82drop_in_place$LT$regex_automata..util..determinize..state..StateBuilderMatches$GT$17hf390cf0c31055f01E.llvm.5923153528386317138 0000000140002ab0 f   libregex_automata-464fc35d41c3d390:regex_automata-464fc35d41c3d390.regex_automata.ab23a1c50add178-cgu.09.rcgu.o
 0001:00001b20       _ZN4core3ptr68drop_in_place$LT$regex_automata..util..determinize..state..State$GT$17h59a8334346997aebE.llvm.9592236424118357698 0000000140002b20 f   libgenealogy-4468c333aa2128b5:genealogy-4468c333aa2128b5.genealogy.75c246340fa38059-cgu.03.rcgu.o
 0001:00001b20       _ZN4core3ptr68drop_in_place$LT$regex_automata..util..determinize..state..State$GT$17h90adeed6ba87a5a6E.llvm.16234871685531041024 0000000140002b20 f   libregex_automata-464fc35d41c3d390:regex_automata-464fc35d41c3d390.regex_automata.ab23a1c50add178-cgu.01.rcgu.o
 0001:00001c80       _ZN4core3ptr55drop_in_place$LT$regex_automata..hybrid..dfa..Cache$GT$17h4801ea5a1c29708cE.llvm.13069747341390513184 0000000140002c80 f   libregex_automata-464fc35d41c3d390:regex_automata-464fc35d41c3d390.regex_automata.ab23a1c50add178-cgu.04.rcgu.o
 0001:00002210       _ZN4core3ptr45drop_in_place$LT$regex..builders..Builder$GT$17h723733f3cf756ab9E.llvm.165974447228441868 0000000140003210 f   libregex-0477f9e9a333a0e8:regex-0477f9e9a333a0e8.regex.bdffd6b571ecefc1-cgu.3.rcgu.o
 0001:00002370       _ZN4core3ptr61drop_in_place$LT$regex_automata..util..search..MatchError$GT$17h2e6b061dee5af297E.llvm.8184359522858241340 0000000140003370 f   libregex_automata-464fc35d41c3d390:regex_automata-464fc35d41c3d390.regex_automata.ab23a1c50add178-cgu.15.rcgu.o
 0001:00002370       _ZN72_$LT$alloc..boxed..Box$LT$T$C$A$GT$$u20$as$u20$core..ops..drop..Drop$GT$4drop17h32fdc33cf761734bE.llvm.8454077967597911764 0000000140003370 f   libregex_syntax-1a078ef20d4d7dee:regex_syntax-1a078ef20d4d7dee.regex_syntax.936f5d3813beee8b-cgu.08.rcgu.o
 0001:00002480       _ZN4core3ptr64drop_in_place$LT$regex_automata..meta..wrappers..PikeVMCache$GT$17h06509c26aeeeaa20E.llvm.8572194949199378180 0000000140003480 f   libregex_automata-464fc35d41c3d390:regex_automata-464fc35d41c3d390.regex_automata.ab23a1c50add178-cgu.08.rcgu.o
 0001:00002650       _ZN4core3ptr76drop_in_place$LT$regex_automata..meta..wrappers..BoundedBacktrackerCache$GT$17h43ffe2ba7a8afe5cE.llvm.8572194949199378180 0000000140003650 f   libregex_automata-464fc35d41c3d390:regex_automata-464fc35d41c3d390.regex_automata.ab23a1c50add178-cgu.08.rcgu.o
 0001:00003350       _ZN9genealogy9Genealogy3new17h0dc2da9d6044cc55E 0000000140004350 f   libgenealogy-4468c333aa2128b5:genealogy-4468c333aa2128b5.genealogy.75c246340fa38059-cgu.00.rcgu.o
 0001:00006b20       _ZN9genealogy9Genealogy11query_point17h65e63901da941b26E 0000000140007b20 f   libgenealogy-4468c333aa2128b5:genealogy-4468c333aa2128b5.genealogy.75c246340fa38059-cgu.00.rcgu.o
 0001:000079a0       _ZN62_$LT$genealogy..GenealogyError$u20$as$u20$core..fmt..Debug$GT$3fmt17ha14b18019aa21e44E 00000001400089a0 f   libgenealogy-4468c333aa2128b5:genealogy-4468c333aa2128b5.genealogy.75c246340fa38059-cgu.00.rcgu.o
 0001:000079c0       _ZN3std3sys6common12thread_local10fast_local12Key$LT$T$GT$14try_initialize17h450cc21c01633e82E.llvm.3112582964432657225 00000001400089c0 f   libgenealogy-4468c333aa2128b5:genealogy-4468c333aa2128b5.genealogy.75c246340fa38059-cgu.10.rcgu.o
 0001:00007a50       _ZN3std3sys6common12thread_local10fast_local12Key$LT$T$GT$14try_initialize17hafb3323b3b3710f0E.llvm.3112582964432657225 0000000140008a50 f   libgenealogy-4468c333aa2128b5:genealogy-4468c333aa2128b5.genealogy.75c246340fa38059-cgu.10.rcgu.o
 0001:00007a50       _ZN3std3sys6common12thread_local10fast_local12Key$LT$T$GT$14try_initialize17hbaa5af0b5107121dE.llvm.4281819601847883408 0000000140008a50 f   libregex_automata-464fc35d41c3d390:regex_automata-464fc35d41c3d390.regex_automata.ab23a1c50add178-cgu.11.rcgu.o
 0001:00007aa0       _ZN42_$LT$$RF$T$u20$as$u20$core..fmt..Debug$GT$3fmt17h20ff640c45000094E 0000000140008aa0 f   libregex_automata-464fc35d41c3d390:regex_automata-464fc35d41c3d390.regex_automata.ab23a1c50add178-cgu.12.rcgu.o
 0001:00007aa0       _ZN42_$LT$$RF$T$u20$as$u20$core..fmt..Debug$GT$3fmt17h26e1ebf328b76935E 0000000140008aa0 f   libaho_corasick-b4d6ea81f1a61526:aho_corasick-b4d6ea81f1a61526.aho_corasick.7f4fbca99e96e6a8-cgu.08.rcgu.o
 0001:00007aa0       _ZN42_$LT$$RF$T$u20$as$u20$core..fmt..Debug$GT$3fmt17h2eb19995183e4d96E 0000000140008aa0 f   libgoblin-8ee2c552e4c10df6:goblin-8ee2c552e4c10df6.goblin.f087800e97e1b550-cgu.14.rcgu.o
 0001:00007aa0       _ZN42_$LT$$RF$T$u20$as$u20$core..fmt..Debug$GT$3fmt17h4cd9a70fa3053b74E 0000000140008aa0 f   libaho_corasick-b4d6ea81f1a61526:aho_corasick-b4d6ea81f1a61526.aho_corasick.7f4fbca99e96e6a8-cgu.08.rcgu.o
 0001:00007aa0       _ZN42_$LT$$RF$T$u20$as$u20$core..fmt..Debug$GT$3fmt17had32084f0ecac392E 0000000140008aa0 f   libregex_syntax-1a078ef20d4d7dee:regex_syntax-1a078ef20d4d7dee.regex_syntax.936f5d3813beee8b-cgu.15.rcgu.o
 0001:00007aa0       _ZN42_$LT$$RF$T$u20$as$u20$core..fmt..Debug$GT$3fmt17hcba07481ad45a69dE 0000000140008aa0 f   libgenealogy-4468c333aa2128b5:genealogy-4468c333aa2128b5.genealogy.75c246340fa38059-cgu.10.rcgu.o
 0001:00007aa0       _ZN42_$LT$$RF$T$u20$as$u20$core..fmt..Debug$GT$3fmt17hcf3600fe60e021dfE 0000000140008aa0 f   libgoblin-8ee2c552e4c10df6:goblin-8ee2c552e4c10df6.goblin.f087800e97e1b550-cgu.14.rcgu.o
 0001:00007aa0       _ZN42_$LT$$RF$T$u20$as$u20$core..fmt..Debug$GT$3fmt17hea7c3fc991bff905E 0000000140008aa0 f   libregex_automata-464fc35d41c3d390:regex_automata-464fc35d41c3d390.regex_automata.ab23a1c50add178-cgu.12.rcgu.o
 0001:00007b00       _ZN4core3ptr122drop_in_place$LT$alloc..vec..Vec$LT$alloc..vec..Vec$LT$core..option..Option$LT$alloc..sync..Arc$LT$str$GT$$GT$$GT$$GT$$GT$17h4866dc560eecb5a9E.llvm.551548863055934565 0000000140008b00 f   libregex_automata-464fc35d41c3d390:regex_automata-464fc35d41c3d390.regex_automata.ab23a1c50add178-cgu.14.rcgu.o
 0001:00007c00       _ZN4core3ptr50drop_in_place$LT$regex_syntax..hir..Properties$GT$17h35788f14a74d975fE.llvm.1190860102792631389 0000000140008c00 f   libregex_syntax-1a078ef20d4d7dee:regex_syntax-1a078ef20d4d7dee.regex_syntax.936f5d3813beee8b-cgu.14.rcgu.o
 0001:00007c00       _ZN4core3ptr50drop_in_place$LT$regex_syntax..hir..Properties$GT$17h35788f14a74d975fE.llvm.1213798052808953091 0000000140008c00 f   libregex_syntax-1a078ef20d4d7dee:regex_syntax-1a078ef20d4d7dee.regex_syntax.936f5d3813beee8b-cgu.05.rcgu.o
 0001:00007c00       _ZN4core3ptr50drop_in_place$LT$regex_syntax..hir..Properties$GT$17h35788f14a74d975fE.llvm.2631318121689656173 0000000140008c00 f   libregex_syntax-1a078ef20d4d7dee:regex_syntax-1a078ef20d4d7dee.regex_syntax.936f5d3813beee8b-cgu.02.rcgu.o
 0001:00007c00       _ZN4core3ptr50drop_in_place$LT$regex_syntax..hir..Properties$GT$17h35788f14a74d975fE.llvm.8070924949184118840 0000000140008c00 f   libregex_syntax-1a078ef20d4d7dee:regex_syntax-1a078ef20d4d7dee.regex_syntax.936f5d3813beee8b-cgu.11.rcgu.o
 0001:00007c00       _ZN4core3ptr50drop_in_place$LT$regex_syntax..hir..Properties$GT$17h66c5378133204ec9E.llvm.16234871685531041024 0000000140008c00 f   libregex_automata-464fc35d41c3d390:regex_automata-464fc35d41c3d390.regex_automata.ab23a1c50add178-cgu.01.rcgu.o
 0001:000080b0       _ZN4core3ptr73drop_in_place$LT$alloc..vec..Vec$LT$regex_syntax..hir..Properties$GT$$GT$17h9dd4c8b7e78daa58E.llvm.8572194949199378180 00000001400090b0 f   libregex_automata-464fc35d41c3d390:regex_automata-464fc35d41c3d390.regex_automata.ab23a1c50add178-cgu.08.rcgu.o
 0001:00008120       _ZN5alloc4sync16Arc$LT$T$C$A$GT$9drop_slow17h16697e50c8f2f49aE 0000000140009120 f   libgenealogy-4468c333aa2128b5:genealogy-4468c333aa2128b5.genealogy.75c246340fa38059-cgu.09.rcgu.o
 0001:00008370       _ZN5alloc4sync16Arc$LT$T$C$A$GT$9drop_slow17h181edcae00cab4d2E 0000000140009370 f   libregex-0477f9e9a333a0e8:regex-0477f9e9a333a0e8.regex.bdffd6b571ecefc1-cgu.8.rcgu.o
 0001:00008370       _ZN5alloc4sync16Arc$LT$T$C$A$GT$9drop_slow17h196f86c2d9eed9ecE 0000000140009370 f   libaho_corasick-b4d6ea81f1a61526:aho_corasick-b4d6ea81f1a61526.aho_corasick.7f4fbca99e96e6a8-cgu.12.rcgu.o
 0001:00008370       _ZN5alloc4sync16Arc$LT$T$C$A$GT$9drop_slow17h342391bd2cfeffe5E 0000000140009370 f   libgenealogy-4468c333aa2128b5:genealogy-4468c333aa2128b5.genealogy.75c246340fa38059-cgu.09.rcgu.o
 0001:00008370       _ZN5alloc4sync16Arc$LT$T$C$A$GT$9drop_slow17h4411b051b1ad04f9E 0000000140009370 f   libregex_automata-464fc35d41c3d390:regex_automata-464fc35d41c3d390.regex_automata.ab23a1c50add178-cgu.14.rcgu.o
 0001:00008370       _ZN5alloc4sync16Arc$LT$T$C$A$GT$9drop_slow17h6adf8af5dcd47af2E 0000000140009370 f   libaho_corasick-b4d6ea81f1a61526:aho_corasick-b4d6ea81f1a61526.aho_corasick.7f4fbca99e96e6a8-cgu.12.rcgu.o
 0001:00008370       _ZN5alloc4sync16Arc$LT$T$C$A$GT$9drop_slow17h999b6310298f7b52E 0000000140009370 f   libregex_automata-464fc35d41c3d390:regex_automata-464fc35d41c3d390.regex_automata.ab23a1c50add178-cgu.14.rcgu.o
 0001:00008370       _ZN5alloc4sync16Arc$LT$T$C$A$GT$9drop_slow17haf3f388caedb7d57E 0000000140009370 f   libregex_automata-464fc35d41c3d390:regex_automata-464fc35d41c3d390.regex_automata.ab23a1c50add178-cgu.14.rcgu.o
 0001:00008370       _ZN5alloc4sync16Arc$LT$T$C$A$GT$9drop_slow17hb7714ffa1d1b4a90E 0000000140009370 f   libregex-0477f9e9a333a0e8:regex-0477f9e9a333a0e8.regex.bdffd6b571ecefc1-cgu.8.rcgu.o
 0001:00008370       _ZN5alloc4sync16Arc$LT$T$C$A$GT$9drop_slow17hb9d25b84cf5fe97dE 0000000140009370 f   libaho_corasick-b4d6ea81f1a61526:aho_corasick-b4d6ea81f1a61526.aho_corasick.7f4fbca99e96e6a8-cgu.12.rcgu.o
 0001:00008370       _ZN5alloc4sync16Arc$LT$T$C$A$GT$9drop_slow17hf64df0defa113babE 0000000140009370 f   libregex_automata-464fc35d41c3d390:regex_automata-464fc35d41c3d390.regex_automata.ab23a1c50add178-cgu.14.rcgu.o
 0001:00008370       _ZN5alloc4sync16Arc$LT$T$C$A$GT$9drop_slow17hf813157145d20dc3E 0000000140009370 f   libregex_automata-464fc35d41c3d390:regex_automata-464fc35d41c3d390.regex_automata.ab23a1c50add178-cgu.14.rcgu.o
 0001:000083e0       _ZN5alloc4sync16Arc$LT$T$C$A$GT$9drop_slow17h04c152f9f64e1c17E 00000001400093e0 f   libregex-0477f9e9a333a0e8:regex-0477f9e9a333a0e8.regex.bdffd6b571ecefc1-cgu.8.rcgu.o
 0001:000083e0       _ZN5alloc4sync16Arc$LT$T$C$A$GT$9drop_slow17h105e56653f7fc215E 00000001400093e0 f   libregex_automata-464fc35d41c3d390:regex_automata-464fc35d41c3d390.regex_automata.ab23a1c50add178-cgu.14.rcgu.o
 0001:000083e0       _ZN5alloc4sync16Arc$LT$T$C$A$GT$9drop_slow17h4dfa635a164e7b8bE 00000001400093e0 f   libgenealogy-4468c333aa2128b5:genealogy-4468c333aa2128b5.genealogy.75c246340fa38059-cgu.09.rcgu.o
 0001:000083e0       _ZN5alloc4sync16Arc$LT$T$C$A$GT$9drop_slow17h5eed213b2d257aafE 00000001400093e0 f   libregex-0477f9e9a333a0e8:regex-0477f9e9a333a0e8.regex.bdffd6b571ecefc1-cgu.8.rcgu.o
 0001:000083e0       _ZN5alloc4sync16Arc$LT$T$C$A$GT$9drop_slow17hae15c58d862ecf51E 00000001400093e0 f   libregex_automata-464fc35d41c3d390:regex_automata-464fc35d41c3d390.regex_automata.ab23a1c50add178-cgu.14.rcgu.o
 0001:000083e0       _ZN5alloc4sync16Arc$LT$T$C$A$GT$9drop_slow17hd58ce74da3c76be3E 00000001400093e0 f   libgenealogy-4468c333aa2128b5:genealogy-4468c333aa2128b5.genealogy.75c246340fa38059-cgu.09.rcgu.o
 0001:00008410       _ZN5alloc4sync16Arc$LT$T$C$A$GT$9drop_slow17h570bd3dd9d490294E 0000000140009410 f   libgenealogy-4468c333aa2128b5:genealogy-4468c333aa2128b5.genealogy.75c246340fa38059-cgu.09.rcgu.o
 0001:000084c0       _ZN5alloc4sync16Arc$LT$T$C$A$GT$9drop_slow17h5c525872ab2032f6E 00000001400094c0 f   libregex_automata-464fc35d41c3d390:regex_automata-464fc35d41c3d390.regex_automata.ab23a1c50add178-cgu.14.rcgu.o
 0001:00008760       _ZN79_$LT$hashbrown..raw..RawTable$LT$T$C$A$GT$$u20$as$u20$core..ops..drop..Drop$GT$4drop17h94d681a1d45ffa3cE 0000000140009760 f   libgenealogy-4468c333aa2128b5:genealogy-4468c333aa2128b5.genealogy.75c246340fa38059-cgu.02.rcgu.o
 0001:00008760       _ZN79_$LT$hashbrown..raw..RawTable$LT$T$C$A$GT$$u20$as$u20$core..ops..drop..Drop$GT$4drop17ha200758200f9c062E 0000000140009760 f   libregex_automata-464fc35d41c3d390:regex_automata-464fc35d41c3d390.regex_automata.ab23a1c50add178-cgu.06.rcgu.o
 0001:00008760       _ZN79_$LT$hashbrown..raw..RawTable$LT$T$C$A$GT$$u20$as$u20$core..ops..drop..Drop$GT$4drop17ha8f611ede119ea57E 0000000140009760 f   libgenealogy-4468c333aa2128b5:genealogy-4468c333aa2128b5.genealogy.75c246340fa38059-cgu.02.rcgu.o
 0001:00008760       _ZN79_$LT$hashbrown..raw..RawTable$LT$T$C$A$GT$$u20$as$u20$core..ops..drop..Drop$GT$4drop17hddf3a5a140e94f7eE 0000000140009760 f   libregex_automata-464fc35d41c3d390:regex_automata-464fc35d41c3d390.regex_automata.ab23a1c50add178-cgu.06.rcgu.o
 0001:00008d50       _ZN4core3ptr110drop_in_place$LT$alloc..raw_vec..RawVec$LT$alloc..boxed..Box$LT$regex_automata..meta..regex..Cache$GT$$GT$$GT$17h8ba6e0e68ae32ec8E.llvm.9592236424118357698 0000000140009d50 f   libgenealogy-4468c333aa2128b5:genealogy-4468c333aa2128b5.genealogy.75c246340fa38059-cgu.03.rcgu.o
 0001:00008d50       _ZN4core3ptr110drop_in_place$LT$alloc..raw_vec..RawVec$LT$alloc..boxed..Box$LT$regex_automata..meta..regex..Cache$GT$$GT$$GT$17hd69c9f35bf45584cE.llvm.16234871685531041024 0000000140009d50 f   libregex_automata-464fc35d41c3d390:regex_automata-464fc35d41c3d390.regex_automata.ab23a1c50add178-cgu.01.rcgu.o
 0001:00008d50       _ZN4core3ptr56drop_in_place$LT$regex_automata..dfa..onepass..Cache$GT$17h826a327c3d4d9ea6E.llvm.669521326566649927 0000000140009d50 f   libregex_automata-464fc35d41c3d390:regex_automata-464fc35d41c3d390.regex_automata.ab23a1c50add178-cgu.13.rcgu.o
 0001:00008f30       _ZN4core3ptr186drop_in_place$LT$regex_automata..util..pool..inner..CacheLine$LT$std..sync..mutex..Mutex$LT$alloc..vec..Vec$LT$alloc..boxed..Box$LT$regex_automata..meta..regex..Cache$GT$$GT$$GT$$GT$$GT$17h53b0e8f5da891ab0E.llvm.9592236424118357698 0000000140009f30 f   libgenealogy-4468c333aa2128b5:genealogy-4468c333aa2128b5.genealogy.75c246340fa38059-cgu.03.rcgu.o
 0001:00009380       _ZN4core3ptr80drop_in_place$LT$alloc..boxed..Box$LT$regex_automata..meta..regex..Cache$GT$$GT$17hb78ed21871a97407E.llvm.9592236424118357698 000000014000a380 f   libgenealogy-4468c333aa2128b5:genealogy-4468c333aa2128b5.genealogy.75c246340fa38059-cgu.03.rcgu.o
 0001:000095b0       _ZN70_$LT$alloc..vec..Vec$LT$T$C$A$GT$$u20$as$u20$core..ops..drop..Drop$GT$4drop17h896d0e7facbcfb8cE 000000014000a5b0 f   libgenealogy-4468c333aa2128b5:genealogy-4468c333aa2128b5.genealogy.75c246340fa38059-cgu.03.rcgu.o
 0001:00009740       _ZN70_$LT$alloc..vec..Vec$LT$T$C$A$GT$$u20$as$u20$core..ops..drop..Drop$GT$4drop17h9beffc4f2e1d2940E 000000014000a740 f   libgenealogy-4468c333aa2128b5:genealogy-4468c333aa2128b5.genealogy.75c246340fa38059-cgu.03.rcgu.o
 0001:00009840       _ZN98_$LT$alloc..vec..Vec$LT$T$GT$$u20$as$u20$alloc..vec..spec_from_iter..SpecFromIter$LT$T$C$I$GT$$GT$9from_iter17ha17d10dbb0233a16E 000000014000a840 f   libgenealogy-4468c333aa2128b5:genealogy-4468c333aa2128b5.genealogy.75c246340fa38059-cgu.03.rcgu.o
 0001:00009e40       _ZN5alloc7raw_vec19RawVec$LT$T$C$A$GT$16reserve_for_push17h528839fb204fc6dcE 000000014000ae40 f   libgenealogy-4468c333aa2128b5:genealogy-4468c333aa2128b5.genealogy.75c246340fa38059-cgu.01.rcgu.o
 0001:00009e40       _ZN5alloc7raw_vec19RawVec$LT$T$C$A$GT$16reserve_for_push17h83fd2b22e211bc07E 000000014000ae40 f   libgenealogy-4468c333aa2128b5:genealogy-4468c333aa2128b5.genealogy.75c246340fa38059-cgu.01.rcgu.o
 0001:00009f10       _ZN5alloc7raw_vec19RawVec$LT$T$C$A$GT$16reserve_for_push17h018b042e2ce0acf4E 000000014000af10 f   libregex_automata-464fc35d41c3d390:regex_automata-464fc35d41c3d390.regex_automata.ab23a1c50add178-cgu.00.rcgu.o
 0001:00009f10       _ZN5alloc7raw_vec19RawVec$LT$T$C$A$GT$16reserve_for_push17h1b4b67c4311aced8E 000000014000af10 f   libaho_corasick-b4d6ea81f1a61526:aho_corasick-b4d6ea81f1a61526.aho_corasick.7f4fbca99e96e6a8-cgu.02.rcgu.o
 0001:00009f10       _ZN5alloc7raw_vec19RawVec$LT$T$C$A$GT$16reserve_for_push17h20a9b7bab85f4faaE 000000014000af10 f   libregex_syntax-1a078ef20d4d7dee:regex_syntax-1a078ef20d4d7dee.regex_syntax.936f5d3813beee8b-cgu.03.rcgu.o
 0001:00009f10       _ZN5alloc7raw_vec19RawVec$LT$T$C$A$GT$16reserve_for_push17h6c8642b1201d3225E 000000014000af10 f   libregex_automata-464fc35d41c3d390:regex_automata-464fc35d41c3d390.regex_automata.ab23a1c50add178-cgu.00.rcgu.o
 0001:00009f10       _ZN5alloc7raw_vec19RawVec$LT$T$C$A$GT$16reserve_for_push17h724d8854f7647c5aE 000000014000af10 f   libgenealogy-4468c333aa2128b5:genealogy-4468c333aa2128b5.genealogy.75c246340fa38059-cgu.01.rcgu.o
 0001:00009f10       _ZN5alloc7raw_vec19RawVec$LT$T$C$A$GT$16reserve_for_push17ha2ed9bda6f4ed7d7E 000000014000af10 f   libgoblin-8ee2c552e4c10df6:goblin-8ee2c552e4c10df6.goblin.f087800e97e1b550-cgu.01.rcgu.o
 0001:00009f10       _ZN5alloc7raw_vec19RawVec$LT$T$C$A$GT$16reserve_for_push17hc324d30cbd792f41E 000000014000af10 f   libregex_syntax-1a078ef20d4d7dee:regex_syntax-1a078ef20d4d7dee.regex_syntax.936f5d3813beee8b-cgu.03.rcgu.o
 0001:00009f10       _ZN5alloc7raw_vec19RawVec$LT$T$C$A$GT$16reserve_for_push17hf6e8168f58b1f09bE 000000014000af10 f   libgenealogy-4468c333aa2128b5:genealogy-4468c333aa2128b5.genealogy.75c246340fa38059-cgu.01.rcgu.o
 0001:00009fe0       _ZN12intervaltree25IntervalTree$LT$K$C$V$GT$10update_max17h88e6a1e057bffd34E.llvm.14477547794709756972 000000014000afe0 f   libgenealogy-4468c333aa2128b5:genealogy-4468c333aa2128b5.genealogy.75c246340fa38059-cgu.08.rcgu.o
 0001:0000a080       _ZN4core3ptr72drop_in_place$LT$alloc..collections..btree..mem..replace..PanicGuard$GT$17h071a3d9ef9be2e4dE.llvm.14477547794709756972 000000014000b080 f   libgenealogy-4468c333aa2128b5:genealogy-4468c333aa2128b5.genealogy.75c246340fa38059-cgu.08.rcgu.o
 0001:0000a080       _ZN4core3ptr72drop_in_place$LT$alloc..collections..btree..mem..replace..PanicGuard$GT$17h63f8142033a99858E.llvm.15661059199776731258 000000014000b080 f   libgoblin-8ee2c552e4c10df6:goblin-8ee2c552e4c10df6.goblin.f087800e97e1b550-cgu.03.rcgu.o
 0001:0000a080       _ZN4core3ptr72drop_in_place$LT$alloc..collections..btree..mem..replace..PanicGuard$GT$17h7b89e6d16d2d2f76E.llvm.12485847494875040689 000000014000b080 f   libaho_corasick-b4d6ea81f1a61526:aho_corasick-b4d6ea81f1a61526.aho_corasick.7f4fbca99e96e6a8-cgu.13.rcgu.o
 0001:0000a090       _ZN5alloc11collections5btree3map25IntoIter$LT$K$C$V$C$A$GT$10dying_next17h052365f04e13b337E.llvm.14477547794709756972 000000014000b090 f   libgenealogy-4468c333aa2128b5:genealogy-4468c333aa2128b5.genealogy.75c246340fa38059-cgu.08.rcgu.o
 0001:0000a470       _ZN86_$LT$alloc..vec..into_iter..IntoIter$LT$T$C$A$GT$$u20$as$u20$core..ops..drop..Drop$GT$4drop17h8d93f6525d030298E 000000014000b470 f   libgenealogy-4468c333aa2128b5:genealogy-4468c333aa2128b5.genealogy.75c246340fa38059-cgu.08.rcgu.o
 0001:0000a5c0       _ZN9hashbrown3map28HashMap$LT$K$C$V$C$S$C$A$GT$6insert17h9e52cdd393da2e0bE 000000014000b5c0 f   libgenealogy-4468c333aa2128b5:genealogy-4468c333aa2128b5.genealogy.75c246340fa38059-cgu.08.rcgu.o
 0001:0000a7d0       _ZN102_$LT$core..iter..adapters..map..Map$LT$I$C$F$GT$$u20$as$u20$core..iter..traits..iterator..Iterator$GT$4fold17h7a76b796eedcdc69E 000000014000b7d0 f   libgenealogy-4468c333aa2128b5:genealogy-4468c333aa2128b5.genealogy.75c246340fa38059-cgu.04.rcgu.o
 0001:0000b370       _ZN102_$LT$core..iter..adapters..map..Map$LT$I$C$F$GT$$u20$as$u20$core..iter..traits..iterator..Iterator$GT$8try_fold17h4dcacb3a8096c187E 000000014000c370 f   libgenealogy-4468c333aa2128b5:genealogy-4468c333aa2128b5.genealogy.75c246340fa38059-cgu.04.rcgu.o
 0001:0000b5f0       _ZN4core3ptr101drop_in_place$LT$$LP$alloc..vec..Vec$LT$usize$GT$$C$alloc..vec..Vec$LT$genealogy..Section$GT$$RP$$GT$17h2ae4a011a2880d87E.llvm.13326697792258290709 000000014000c5f0 f   libgenealogy-4468c333aa2128b5:genealogy-4468c333aa2128b5.genealogy.75c246340fa38059-cgu.04.rcgu.o
 0001:0000b690       _ZN4core3ptr57drop_in_place$LT$regex..regex..string..CaptureMatches$GT$17h441e2bc84650be29E.llvm.13326697792258290709 000000014000c690 f   libgenealogy-4468c333aa2128b5:genealogy-4468c333aa2128b5.genealogy.75c246340fa38059-cgu.04.rcgu.o
 0001:0000bb00       _ZN4core3ptr69drop_in_place$LT$alloc..raw_vec..RawVec$LT$genealogy..Section$GT$$GT$17h82a36bdffc721c08E.llvm.13326697792258290709 000000014000cb00 f   libgenealogy-4468c333aa2128b5:genealogy-4468c333aa2128b5.genealogy.75c246340fa38059-cgu.04.rcgu.o
 0001:0000bd50       _ZN4core3ptr78drop_in_place$LT$std..collections..hash..map..HashMap$LT$$RF$str$C$u64$GT$$GT$17h9e037097c2d66290E.llvm.13319894357200198638 000000014000cd50 f   libgenealogy-4468c333aa2128b5:genealogy-4468c333aa2128b5.genealogy.75c246340fa38059-cgu.06.rcgu.o
 0001:0000bd90       _ZN4core4hash11BuildHasher8hash_one17h932f9b9b27927a98E 000000014000cd90 f   libgenealogy-4468c333aa2128b5:genealogy-4468c333aa2128b5.genealogy.75c246340fa38059-cgu.06.rcgu.o
 0001:0000bf00       _ZN4core4hash11BuildHasher8hash_one17ha2e72de6ce2d3bf6E 000000014000cf00 f   libgenealogy-4468c333aa2128b5:genealogy-4468c333aa2128b5.genealogy.75c246340fa38059-cgu.06.rcgu.o
 0001:0000c080       _ZN71_$LT$core..hash..sip..Hasher$LT$S$GT$$u20$as$u20$core..hash..Hasher$GT$5write17ha217415dd47466aeE.llvm.551548863055934565 000000014000d080 f   libregex_automata-464fc35d41c3d390:regex_automata-464fc35d41c3d390.regex_automata.ab23a1c50add178-cgu.14.rcgu.o
 0001:0000c480       _ZN4core5slice4sort7recurse17h9ac2fa9bb838c0deE.llvm.8309928726978612775 000000014000d480 f   libgenealogy-4468c333aa2128b5:genealogy-4468c333aa2128b5.genealogy.75c246340fa38059-cgu.05.rcgu.o
 0001:0000d530       _ZN5regex5regex6string5Regex3new17hd1990fb4b4ba7f14E 000000014000e530 f   libregex-0477f9e9a333a0e8:regex-0477f9e9a333a0e8.regex.bdffd6b571ecefc1-cgu.6.rcgu.o
 0001:0000d6a0       _ZN89_$LT$regex..regex..string..Captures$u20$as$u20$core..ops..index..Index$LT$$RF$str$GT$$GT$5index17h30a866a386790f32E 000000014000e6a0 f   libregex-0477f9e9a333a0e8:regex-0477f9e9a333a0e8.regex.bdffd6b571ecefc1-cgu.6.rcgu.o
 0001:0000d7a0       _ZN44_$LT$$RF$T$u20$as$u20$core..fmt..Display$GT$3fmt17h04c55cf30d15aac0E 000000014000e7a0 f   libregex-0477f9e9a333a0e8:regex-0477f9e9a333a0e8.regex.bdffd6b571ecefc1-cgu.4.rcgu.o
 0001:0000d7a0       _ZN44_$LT$$RF$T$u20$as$u20$core..fmt..Display$GT$3fmt17h6f097be5809139feE 000000014000e7a0 f   libaho_corasick-b4d6ea81f1a61526:aho_corasick-b4d6ea81f1a61526.aho_corasick.7f4fbca99e96e6a8-cgu.08.rcgu.o
 0001:0000d7a0       _ZN44_$LT$$RF$T$u20$as$u20$core..fmt..Display$GT$3fmt17h87824a07c0801d61E 000000014000e7a0 f   libregex_automata-464fc35d41c3d390:regex_automata-464fc35d41c3d390.regex_automata.ab23a1c50add178-cgu.12.rcgu.o
 0001:0000d7a0       _ZN44_$LT$$RF$T$u20$as$u20$core..fmt..Display$GT$3fmt17heea270b80eb635c2E 000000014000e7a0 f   libregex_syntax-1a078ef20d4d7dee:regex_syntax-1a078ef20d4d7dee.regex_syntax.936f5d3813beee8b-cgu.15.rcgu.o
 0001:0000d7a0       _ZN44_$LT$$RF$T$u20$as$u20$core..fmt..Display$GT$3fmt17hf3a1c90e9e5a8a76E 000000014000e7a0 f   libgoblin-8ee2c552e4c10df6:goblin-8ee2c552e4c10df6.goblin.f087800e97e1b550-cgu.14.rcgu.o
 0001:0000d7a0       _ZN52_$LT$$RF$mut$u20$T$u20$as$u20$core..fmt..Display$GT$3fmt17hd71c7e79b6361e30E 000000014000e7a0 f   libregex_syntax-1a078ef20d4d7dee:regex_syntax-1a078ef20d4d7dee.regex_syntax.936f5d3813beee8b-cgu.15.rcgu.o
 0001:0000d7c0       _ZN4core3ptr615drop_in_place$LT$core..iter..adapters..map..map_fold$LT$$RF$regex_syntax..hir..Hir$C$regex_syntax..hir..Hir$C$$LP$$RP$$C$regex_automata..meta..reverse_inner..flatten..$u7b$$u7b$closure$u7d$$u7d$$C$core..iter..traits..iterator..Iterator..for_each..call$LT$regex_syntax..hir..Hir$C$alloc..vec..Vec$LT$regex_syntax..hir..Hir$GT$..extend_trusted$LT$core..iter..adapters..map..Map$LT$core..slice..iter..Iter$LT$regex_syntax..hir..Hir$GT$$C$regex_automata..meta..reverse_inner..flatten..$u7b$$u7b$closure$u7d$$u7d$$GT$$GT$..$u7b$$u7b$closure$u7d$$u7d$$GT$..$u7b$$u7b$closure$u7d$$u7d$$GT$..$u7b$$u7b$closure$u7d$$u7d$$GT$17he4f4bfbf60272badE.llvm.6209206241771657251 000000014000e7c0 f   libregex_automata-464fc35d41c3d390:regex_automata-464fc35d41c3d390.regex_automata.ab23a1c50add178-cgu.03.rcgu.o
 0001:0000d7c0       _ZN4core3ptr615drop_in_place$LT$core..iter..adapters..map..map_fold$LT$$RF$regex_syntax..hir..Hir$C$regex_syntax..hir..Hir$C$$LP$$RP$$C$regex_automata..meta..reverse_inner..flatten..$u7b$$u7b$closure$u7d$$u7d$$C$core..iter..traits..iterator..Iterator..for_each..call$LT$regex_syntax..hir..Hir$C$alloc..vec..Vec$LT$regex_syntax..hir..Hir$GT$..extend_trusted$LT$core..iter..adapters..map..Map$LT$core..slice..iter..Iter$LT$regex_syntax..hir..Hir$GT$$C$regex_automata..meta..reverse_inner..flatten..$u7b$$u7b$closure$u7d$$u7d$$GT$$GT$..$u7b$$u7b$closure$u7d$$u7d$$GT$..$u7b$$u7b$closure$u7d$$u7d$$GT$..$u7b$$u7b$closure$u7d$$u7d$$GT$17hfbded3ca8b0f872dE.llvm.6209206241771657251 000000014000e7c0 f   libregex_automata-464fc35d41c3d390:regex_automata-464fc35d41c3d390.regex_automata.ab23a1c50add178-cgu.03.rcgu.o
 0001:0000d7c0       _ZN4core3ptr621drop_in_place$LT$core..iter..adapters..map..map_fold$LT$$RF$regex_syntax..hir..Hir$C$regex_syntax..hir..Hir$C$$LP$$RP$$C$regex_automata..meta..reverse_inner..top_concat..$u7b$$u7b$closure$u7d$$u7d$$C$core..iter..traits..iterator..Iterator..for_each..call$LT$regex_syntax..hir..Hir$C$alloc..vec..Vec$LT$regex_syntax..hir..Hir$GT$..extend_trusted$LT$core..iter..adapters..map..Map$LT$core..slice..iter..Iter$LT$regex_syntax..hir..Hir$GT$$C$regex_automata..meta..reverse_inner..top_concat..$u7b$$u7b$closure$u7d$$u7d$$GT$$GT$..$u7b$$u7b$closure$u7d$$u7d$$GT$..$u7b$$u7b$closure$u7d$$u7d$$GT$..$u7b$$u7b$closure$u7d$$u7d$$GT$17h280c2939281e7042E.llvm.6209206241771657251 000000014000e7c0 f   libregex_automata-464fc35d41c3d390:regex_automata-464fc35d41c3d390.regex_automata.ab23a1c50add178-cgu.03.rcgu.o
 0001:0000d7c0       _ZN4core3ptr627drop_in_place$LT$core..iter..adapters..map..map_fold$LT$$RF$$LP$char$C$char$RP$$C$regex_syntax..hir..ClassUnicodeRange$C$$LP$$RP$$C$regex_syntax..unicode..hir_class..$u7b$$u7b$closure$u7d$$u7d$$C$core..iter..traits..iterator..Iterator..for_each..call$LT$regex_syntax..hir..ClassUnicodeRange$C$alloc..vec..Vec$LT$regex_syntax..hir..ClassUnicodeRange$GT$..extend_trusted$LT$core..iter..adapters..map..Map$LT$core..slice..iter..Iter$LT$$LP$char$C$char$RP$$GT$$C$regex_syntax..unicode..hir_class..$u7b$$u7b$closure$u7d$$u7d$$GT$$GT$..$u7b$$u7b$closure$u7d$$u7d$$GT$..$u7b$$u7b$closure$u7d$$u7d$$GT$..$u7b$$u7b$closure$u7d$$u7d$$GT$17ha730972ba457c381E.llvm.1190860102792631389 000000014000e7c0 f   libregex_syntax-1a078ef20d4d7dee:regex_syntax-1a078ef20d4d7dee.regex_syntax.936f5d3813beee8b-cgu.14.rcgu.o
 0001:0000d7c0       _ZN4core3ptr62drop_in_place$LT$alloc..vec..set_len_on_drop..SetLenOnDrop$GT$17h9cc1ace9fb03759bE.llvm.16234871685531041024 000000014000e7c0 f   libregex_automata-464fc35d41c3d390:regex_automata-464fc35d41c3d390.regex_automata.ab23a1c50add178-cgu.01.rcgu.o
 0001:0000d7c0       _ZN4core3ptr62drop_in_place$LT$alloc..vec..set_len_on_drop..SetLenOnDrop$GT$17ha85c8d83abfeae94E.llvm.4770241040802308457 000000014000e7c0 f   libaho_corasick-b4d6ea81f1a61526:aho_corasick-b4d6ea81f1a61526.aho_corasick.7f4fbca99e96e6a8-cgu.11.rcgu.o
 0001:0000d7c0       _ZN4core3ptr62drop_in_place$LT$alloc..vec..set_len_on_drop..SetLenOnDrop$GT$17hc42622a0f9f36c1fE.llvm.2631318121689656173 000000014000e7c0 f   libregex_syntax-1a078ef20d4d7dee:regex_syntax-1a078ef20d4d7dee.regex_syntax.936f5d3813beee8b-cgu.02.rcgu.o
 0001:0000d7c0       _ZN4core3ptr654drop_in_place$LT$core..iter..adapters..map..map_fold$LT$$RF$str$C$alloc..string..String$C$$LP$$RP$$C$regex..builders..Builder..new$LT$$u5b$$RF$str$u3b$$u20$0$u5d$$C$$RF$str$GT$..$u7b$$u7b$closure$u7d$$u7d$$C$core..iter..traits..iterator..Iterator..for_each..call$LT$alloc..string..String$C$alloc..vec..Vec$LT$alloc..string..String$GT$..extend_trusted$LT$core..iter..adapters..map..Map$LT$core..array..iter..IntoIter$LT$$RF$str$C$0_usize$GT$$C$regex..builders..Builder..new$LT$$u5b$$RF$str$u3b$$u20$0$u5d$$C$$RF$str$GT$..$u7b$$u7b$closure$u7d$$u7d$$GT$$GT$..$u7b$$u7b$closure$u7d$$u7d$$GT$..$u7b$$u7b$closure$u7d$$u7d$$GT$..$u7b$$u7b$closure$u7d$$u7d$$GT$17hb6ee2d0f1378d9c7E.llvm.15325843373374505680 000000014000e7c0 f   libregex-0477f9e9a333a0e8:regex-0477f9e9a333a0e8.regex.bdffd6b571ecefc1-cgu.4.rcgu.o
 0001:0000d7c0       _ZN4core3ptr654drop_in_place$LT$core..iter..adapters..map..map_fold$LT$$RF$str$C$alloc..string..String$C$$LP$$RP$$C$regex..builders..Builder..new$LT$$u5b$$RF$str$u3b$$u20$1$u5d$$C$$RF$str$GT$..$u7b$$u7b$closure$u7d$$u7d$$C$core..iter..traits..iterator..Iterator..for_each..call$LT$alloc..string..String$C$alloc..vec..Vec$LT$alloc..string..String$GT$..extend_trusted$LT$core..iter..adapters..map..Map$LT$core..array..iter..IntoIter$LT$$RF$str$C$1_usize$GT$$C$regex..builders..Builder..new$LT$$u5b$$RF$str$u3b$$u20$1$u5d$$C$$RF$str$GT$..$u7b$$u7b$closure$u7d$$u7d$$GT$$GT$..$u7b$$u7b$closure$u7d$$u7d$$GT$..$u7b$$u7b$closure$u7d$$u7d$$GT$..$u7b$$u7b$closure$u7d$$u7d$$GT$17hec1ac810ee021ec5E.llvm.15325843373374505680 000000014000e7c0 f   libregex-0477f9e9a333a0e8:regex-0477f9e9a333a0e8.regex.bdffd6b571ecefc1-cgu.4.rcgu.o
 0001:0000d7c0       _ZN4core3ptr683drop_in_place$LT$core..iter..adapters..map..map_fold$LT$$RF$regex_syntax..hir..ClassUnicodeRange$C$regex_syntax..hir..ClassBytesRange$C$$LP$$RP$$C$regex_syntax..hir..ClassUnicode..to_byte_class..$u7b$$u7b$closure$u7d$$u7d$$C$core..iter..traits..iterator..Iterator..for_each..call$LT$regex_syntax..hir..ClassBytesRange$C$alloc..vec..Vec$LT$regex_syntax..hir..ClassBytesRange$GT$..extend_trusted$LT$core..iter..adapters..map..Map$LT$core..slice..iter..Iter$LT$regex_syntax..hir..ClassUnicodeRange$GT$$C$regex_syntax..hir..ClassUnicode..to_byte_class..$u7b$$u7b$closure$u7d$$u7d$$GT$$GT$..$u7b$$u7b$closure$u7d$$u7d$$GT$..$u7b$$u7b$closure$u7d$$u7d$$GT$..$u7b$$u7b$closure$u7d$$u7d$$GT$17h174298e4d5c0f769E.llvm.1190860102792631389 000000014000e7c0 f   libregex_syntax-1a078ef20d4d7dee:regex_syntax-1a078ef20d4d7dee.regex_syntax.936f5d3813beee8b-cgu.14.rcgu.o
 0001:0000d7c0       _ZN4core3ptr713drop_in_place$LT$core..iter..adapters..map..map_fold$LT$$RF$regex_syntax..hir..Hir$C$$RF$regex_syntax..hir..Hir$C$$LP$$RP$$C$regex_automata..meta..regex..Builder..build_many_from_hir$LT$regex_syntax..hir..Hir$GT$..$u7b$$u7b$closure$u7d$$u7d$$C$core..iter..traits..iterator..Iterator..for_each..call$LT$$RF$regex_syntax..hir..Hir$C$alloc..vec..Vec$LT$$RF$regex_syntax..hir..Hir$GT$..extend_trusted$LT$core..iter..adapters..map..Map$LT$core..slice..iter..Iter$LT$regex_syntax..hir..Hir$GT$$C$regex_automata..meta..regex..Builder..build_many_from_hir$LT$regex_syntax..hir..Hir$GT$..$u7b$$u7b$closure$u7d$$u7d$$GT$$GT$..$u7b$$u7b$closure$u7d$$u7d$$GT$..$u7b$$u7b$closure$u7d$$u7d$$GT$..$u7b$$u7b$closure$u7d$$u7d$$GT$17h2b4f5d30809141bcE.llvm.6209206241771657251 000000014000e7c0 f   libregex_automata-464fc35d41c3d390:regex_automata-464fc35d41c3d390.regex_automata.ab23a1c50add178-cgu.03.rcgu.o
 0001:0000d7c0       _ZN4core3ptr716drop_in_place$LT$core..iter..adapters..map..map_fold$LT$usize$C$regex_automata..util..primitives..StateID$C$$LP$$RP$$C$regex_automata..dfa..remapper..Remapper..new$LT$regex_automata..dfa..onepass..DFA$GT$..$u7b$$u7b$closure$u7d$$u7d$$C$core..iter..traits..iterator..Iterator..for_each..call$LT$regex_automata..util..primitives..StateID$C$alloc..vec..Vec$LT$regex_automata..util..primitives..StateID$GT$..extend_trusted$LT$core..iter..adapters..map..Map$LT$core..ops..range..Range$LT$usize$GT$$C$regex_automata..dfa..remapper..Remapper..new$LT$regex_automata..dfa..onepass..DFA$GT$..$u7b$$u7b$closure$u7d$$u7d$$GT$$GT$..$u7b$$u7b$closure$u7d$$u7d$$GT$..$u7b$$u7b$closure$u7d$$u7d$$GT$..$u7b$$u7b$closure$u7d$$u7d$$GT$17h9fd41891f8f81853E.llvm.6209206241771657251 000000014000e7c0 f   libregex_automata-464fc35d41c3d390:regex_automata-464fc35d41c3d390.regex_automata.ab23a1c50add178-cgu.03.rcgu.o
 0001:0000d7c0       _ZN4core3ptr726drop_in_place$LT$core..iter..adapters..map..map_fold$LT$$RF$regex_automata..util..primitives..StateID$C$alloc..string..String$C$$LP$$RP$$C$$LT$regex_automata..nfa..thompson..nfa..State$u20$as$u20$core..fmt..Debug$GT$..fmt..$u7b$$u7b$closure$u7d$$u7d$$C$core..iter..traits..iterator..Iterator..for_each..call$LT$alloc..string..String$C$alloc..vec..Vec$LT$alloc..string..String$GT$..extend_trusted$LT$core..iter..adapters..map..Map$LT$core..slice..iter..Iter$LT$regex_automata..util..primitives..StateID$GT$$C$$LT$regex_automata..nfa..thompson..nfa..State$u20$as$u20$core..fmt..Debug$GT$..fmt..$u7b$$u7b$closure$u7d$$u7d$$GT$$GT$..$u7b$$u7b$closure$u7d$$u7d$$GT$..$u7b$$u7b$closure$u7d$$u7d$$GT$..$u7b$$u7b$closure$u7d$$u7d$$GT$17hf28241f1f13e66e4E.llvm.6209206241771657251 000000014000e7c0 f   libregex_automata-464fc35d41c3d390:regex_automata-464fc35d41c3d390.regex_automata.ab23a1c50add178-cgu.03.rcgu.o
 0001:0000d7c0       _ZN4core3ptr729drop_in_place$LT$core..iter..adapters..map..map_fold$LT$$RF$$RF$regex_syntax..hir..Hir$C$$RF$regex_syntax..hir..Hir$C$$LP$$RP$$C$regex_automata..meta..regex..Builder..build_many_from_hir$LT$$RF$regex_syntax..hir..Hir$GT$..$u7b$$u7b$closure$u7d$$u7d$$C$core..iter..traits..iterator..Iterator..for_each..call$LT$$RF$regex_syntax..hir..Hir$C$alloc..vec..Vec$LT$$RF$regex_syntax..hir..Hir$GT$..extend_trusted$LT$core..iter..adapters..map..Map$LT$core..slice..iter..Iter$LT$$RF$regex_syntax..hir..Hir$GT$$C$regex_automata..meta..regex..Builder..build_many_from_hir$LT$$RF$regex_syntax..hir..Hir$GT$..$u7b$$u7b$closure$u7d$$u7d$$GT$$GT$..$u7b$$u7b$closure$u7d$$u7d$$GT$..$u7b$$u7b$closure$u7d$$u7d$$GT$..$u7b$$u7b$closure$u7d$$u7d$$GT$17h9b199d8770175a0eE.llvm.6209206241771657251 000000014000e7c0 f   libregex_automata-464fc35d41c3d390:regex_automata-464fc35d41c3d390.regex_automata.ab23a1c50add178-cgu.03.rcgu.o
 0001:0000d7c0       _ZN4core3ptr736drop_in_place$LT$core..iter..adapters..map..map_fold$LT$$RF$regex_automata..nfa..thompson..nfa..Transition$C$alloc..string..String$C$$LP$$RP$$C$$LT$regex_automata..nfa..thompson..nfa..State$u20$as$u20$core..fmt..Debug$GT$..fmt..$u7b$$u7b$closure$u7d$$u7d$$C$core..iter..traits..iterator..Iterator..for_each..call$LT$alloc..string..String$C$alloc..vec..Vec$LT$alloc..string..String$GT$..extend_trusted$LT$core..iter..adapters..map..Map$LT$core..slice..iter..Iter$LT$regex_automata..nfa..thompson..nfa..Transition$GT$$C$$LT$regex_automata..nfa..thompson..nfa..State$u20$as$u20$core..fmt..Debug$GT$..fmt..$u7b$$u7b$closure$u7d$$u7d$$GT$$GT$..$u7b$$u7b$closure$u7d$$u7d$$GT$..$u7b$$u7b$closure$u7d$$u7d$$GT$..$u7b$$u7b$closure$u7d$$u7d$$GT$17h906679db0ebc64c9E.llvm.6209206241771657251 000000014000e7c0 f   libregex_automata-464fc35d41c3d390:regex_automata-464fc35d41c3d390.regex_automata.ab23a1c50add178-cgu.03.rcgu.o
 0001:0000d7c0       _ZN4core3ptr764drop_in_place$LT$core..iter..adapters..map..map_fold$LT$$RF$regex_automata..nfa..thompson..range_trie..Transition$C$alloc..string..String$C$$LP$$RP$$C$$LT$regex_automata..nfa..thompson..range_trie..State$u20$as$u20$core..fmt..Debug$GT$..fmt..$u7b$$u7b$closure$u7d$$u7d$$C$core..iter..traits..iterator..Iterator..for_each..call$LT$alloc..string..String$C$alloc..vec..Vec$LT$alloc..string..String$GT$..extend_trusted$LT$core..iter..adapters..map..Map$LT$core..slice..iter..Iter$LT$regex_automata..nfa..thompson..range_trie..Transition$GT$$C$$LT$regex_automata..nfa..thompson..range_trie..State$u20$as$u20$core..fmt..Debug$GT$..fmt..$u7b$$u7b$closure$u7d$$u7d$$GT$$GT$..$u7b$$u7b$closure$u7d$$u7d$$GT$..$u7b$$u7b$closure$u7d$$u7d$$GT$..$u7b$$u7b$closure$u7d$$u7d$$GT$17h98621fb493080e0bE.llvm.6209206241771657251 000000014000e7c0 f   libregex_automata-464fc35d41c3d390:regex_automata-464fc35d41c3d390.regex_automata.ab23a1c50add178-cgu.03.rcgu.o
 0001:0000d7d0       _ZN5regex8builders6string12RegexBuilder5build17h9593e733f5c060d6E 000000014000e7d0 f   libregex-0477f9e9a333a0e8:regex-0477f9e9a333a0e8.regex.bdffd6b571ecefc1-cgu.4.rcgu.o
 0001:0000d7f0       _ZN5regex8builders5bytes12RegexBuilder3new17h135ded54e4c7d78eE 000000014000e7f0 f   libregex-0477f9e9a333a0e8:regex-0477f9e9a333a0e8.regex.bdffd6b571ecefc1-cgu.4.rcgu.o
 0001:0000d7f0       _ZN5regex8builders6string12RegexBuilder3new17h44a7ba15cd0d04acE 000000014000e7f0 f   libregex-0477f9e9a333a0e8:regex-0477f9e9a333a0e8.regex.bdffd6b571ecefc1-cgu.4.rcgu.o
 0001:0000d8a0       _ZN5regex8builders5bytes12RegexBuilder10multi_line17he32ed4a2bf7a0615E 000000014000e8a0 f   libregex-0477f9e9a333a0e8:regex-0477f9e9a333a0e8.regex.bdffd6b571ecefc1-cgu.4.rcgu.o
 0001:0000d8a0       _ZN5regex8builders5bytes15RegexSetBuilder10multi_line17h2a5295ff815405a8E 000000014000e8a0 f   libregex-0477f9e9a333a0e8:regex-0477f9e9a333a0e8.regex.bdffd6b571ecefc1-cgu.4.rcgu.o
 0001:0000d8a0       _ZN5regex8builders6string12RegexBuilder10multi_line17h5901c7d1a961c793E 000000014000e8a0 f   libregex-0477f9e9a333a0e8:regex-0477f9e9a333a0e8.regex.bdffd6b571ecefc1-cgu.4.rcgu.o
 0001:0000d8a0       _ZN5regex8builders6string15RegexSetBuilder10multi_line17h91378b63d27a8a15E 000000014000e8a0 f   libregex-0477f9e9a333a0e8:regex-0477f9e9a333a0e8.regex.bdffd6b571ecefc1-cgu.4.rcgu.o
 0001:0000d8e0       _ZN4core3fmt3num52_$LT$impl$u20$core..fmt..Debug$u20$for$u20$usize$GT$3fmt17hf3450e94f96df4afE.llvm.13302588950870518637 000000014000e8e0 f   libaho_corasick-b4d6ea81f1a61526:aho_corasick-b4d6ea81f1a61526.aho_corasick.7f4fbca99e96e6a8-cgu.08.rcgu.o
 0001:0000d8e0       _ZN4core3fmt3num52_$LT$impl$u20$core..fmt..Debug$u20$for$u20$usize$GT$3fmt17hf3450e94f96df4afE.llvm.14991035210720787909 000000014000e8e0 f   libaho_corasick-b4d6ea81f1a61526:aho_corasick-b4d6ea81f1a61526.aho_corasick.7f4fbca99e96e6a8-cgu.14.rcgu.o
 0001:0000d8e0       _ZN4core3fmt3num52_$LT$impl$u20$core..fmt..Debug$u20$for$u20$usize$GT$3fmt17hf3450e94f96df4afE.llvm.551548863055934565 000000014000e8e0 f   libregex_automata-464fc35d41c3d390:regex_automata-464fc35d41c3d390.regex_automata.ab23a1c50add178-cgu.14.rcgu.o
 0001:0000d8e0       _ZN4core3fmt3num52_$LT$impl$u20$core..fmt..Debug$u20$for$u20$usize$GT$3fmt17hf3450e94f96df4afE.llvm.573348780487807197 000000014000e8e0 f   libregex_syntax-1a078ef20d4d7dee:regex_syntax-1a078ef20d4d7dee.regex_syntax.936f5d3813beee8b-cgu.01.rcgu.o
 0001:0000d8e0       _ZN4core3fmt3num52_$LT$impl$u20$core..fmt..Debug$u20$for$u20$usize$GT$3fmt17hf3450e94f96df4afE.llvm.5923153528386317138 000000014000e8e0 f   libregex_automata-464fc35d41c3d390:regex_automata-464fc35d41c3d390.regex_automata.ab23a1c50add178-cgu.09.rcgu.o
 0001:0000d8e0       _ZN4core3fmt3num52_$LT$impl$u20$core..fmt..Debug$u20$for$u20$usize$GT$3fmt17hf3450e94f96df4afE.llvm.6209206241771657251 000000014000e8e0 f   libregex_automata-464fc35d41c3d390:regex_automata-464fc35d41c3d390.regex_automata.ab23a1c50add178-cgu.03.rcgu.o
 0001:0000d8e0       _ZN4core3fmt3num52_$LT$impl$u20$core..fmt..Debug$u20$for$u20$usize$GT$3fmt17hf3450e94f96df4afE.llvm.8572194949199378180 000000014000e8e0 f   libregex_automata-464fc35d41c3d390:regex_automata-464fc35d41c3d390.regex_automata.ab23a1c50add178-cgu.08.rcgu.o
 0001:0000d940       _ZN4core3ptr60drop_in_place$LT$regex_automata..meta..error..BuildError$GT$17h8eb3fcf8d89713fcE.llvm.4878409327168373810 000000014000e940 f   libregex-0477f9e9a333a0e8:regex-0477f9e9a333a0e8.regex.bdffd6b571ecefc1-cgu.5.rcgu.o
 0001:0000d9b0       _ZN58_$LT$alloc..string..String$u20$as$u20$core..fmt..Write$GT$10write_char17h0a602dff70dfd4c4E.llvm.4878409327168373810 000000014000e9b0 f   libregex-0477f9e9a333a0e8:regex-0477f9e9a333a0e8.regex.bdffd6b571ecefc1-cgu.5.rcgu.o
 0001:0000dad0       _ZN58_$LT$alloc..string..String$u20$as$u20$core..fmt..Write$GT$9write_str17h42a68429ed14f63eE.llvm.4878409327168373810 000000014000ead0 f   libregex-0477f9e9a333a0e8:regex-0477f9e9a333a0e8.regex.bdffd6b571ecefc1-cgu.5.rcgu.o
 0001:0000db50       _ZN5regex5error5Error21from_meta_build_error17h6761934d62caad73E 000000014000eb50 f   libregex-0477f9e9a333a0e8:regex-0477f9e9a333a0e8.regex.bdffd6b571ecefc1-cgu.5.rcgu.o
 0001:0000ddd0       _ZN56_$LT$regex..error..Error$u20$as$u20$core..fmt..Debug$GT$3fmt17hcc5fb5fc7236d3ebE 000000014000edd0 f   libregex-0477f9e9a333a0e8:regex-0477f9e9a333a0e8.regex.bdffd6b571ecefc1-cgu.5.rcgu.o
 0001:0000e020       _ZN44_$LT$$RF$T$u20$as$u20$core..fmt..Display$GT$3fmt17h1111e561af6b8ebfE 000000014000f020 f   libregex-0477f9e9a333a0e8:regex-0477f9e9a333a0e8.regex.bdffd6b571ecefc1-cgu.3.rcgu.o
 0001:0000e040       _ZN4core3fmt5Write9write_fmt17h6947d6001514ecfaE 000000014000f040 f   libregex-0477f9e9a333a0e8:regex-0477f9e9a333a0e8.regex.bdffd6b571ecefc1-cgu.3.rcgu.o
 0001:0000e050       _ZN4core3ptr56drop_in_place$LT$regex_automata..meta..regex..Config$GT$17ha9a6ebe2d8cce6e6E.llvm.8572194949199378180 000000014000f050 f   libregex_automata-464fc35d41c3d390:regex_automata-464fc35d41c3d390.regex_automata.ab23a1c50add178-cgu.08.rcgu.o
 0001:0000e050       _ZN4core3ptr56drop_in_place$LT$regex_automata..meta..regex..Config$GT$17hab11e1e29737d4e4E.llvm.165974447228441868 000000014000f050 f   libregex-0477f9e9a333a0e8:regex-0477f9e9a333a0e8.regex.bdffd6b571ecefc1-cgu.3.rcgu.o
 0001:0000e070       _ZN4core3ptr65drop_in_place$LT$alloc..vec..Vec$LT$alloc..string..String$GT$$GT$17h1a3c7474e9069bc5E.llvm.16234871685531041024 000000014000f070 f   libregex_automata-464fc35d41c3d390:regex_automata-464fc35d41c3d390.regex_automata.ab23a1c50add178-cgu.01.rcgu.o
 0001:0000e070       _ZN4core3ptr65drop_in_place$LT$alloc..vec..Vec$LT$alloc..string..String$GT$$GT$17he8cabcaab53fe683E.llvm.165974447228441868 000000014000f070 f   libregex-0477f9e9a333a0e8:regex-0477f9e9a333a0e8.regex.bdffd6b571ecefc1-cgu.3.rcgu.o
 0001:0000e070       _ZN4core3ptr69drop_in_place$LT$alloc..vec..Vec$LT$alloc..vec..Vec$LT$u8$GT$$GT$$GT$17h1deaa191fc930251E.llvm.14991035210720787909 000000014000f070 f   libaho_corasick-b4d6ea81f1a61526:aho_corasick-b4d6ea81f1a61526.aho_corasick.7f4fbca99e96e6a8-cgu.14.rcgu.o
 0001:0000e070       _ZN4core3ptr69drop_in_place$LT$alloc..vec..Vec$LT$alloc..vec..Vec$LT$u8$GT$$GT$$GT$17h1deaa191fc930251E.llvm.4770241040802308457 000000014000f070 f   libaho_corasick-b4d6ea81f1a61526:aho_corasick-b4d6ea81f1a61526.aho_corasick.7f4fbca99e96e6a8-cgu.11.rcgu.o
 0001:0000e0f0       _ZN95_$LT$alloc..string..String$u20$as$u20$core..iter..traits..collect..FromIterator$LT$char$GT$$GT$9from_iter17hd68a2b3183afe3c2E 000000014000f0f0 f   libregex-0477f9e9a333a0e8:regex-0477f9e9a333a0e8.regex.bdffd6b571ecefc1-cgu.3.rcgu.o
 0001:0000e0f0       _ZN95_$LT$alloc..string..String$u20$as$u20$core..iter..traits..collect..FromIterator$LT$char$GT$$GT$9from_iter17he4c7df63ac29d878E 000000014000f0f0 f   libregex_syntax-1a078ef20d4d7dee:regex_syntax-1a078ef20d4d7dee.regex_syntax.936f5d3813beee8b-cgu.09.rcgu.o
 0001:0000e330       _ZN67_$LT$regex..builders..Builder$u20$as$u20$core..default..Default$GT$7default17h10ed0020c3756b09E 000000014000f330 f   libregex-0477f9e9a333a0e8:regex-0477f9e9a333a0e8.regex.bdffd6b571ecefc1-cgu.3.rcgu.o
 0001:0000e450       _ZN5regex8builders7Builder16build_one_string17h2ce82df62c950c1dE 000000014000f450 f   libregex-0477f9e9a333a0e8:regex-0477f9e9a333a0e8.regex.bdffd6b571ecefc1-cgu.3.rcgu.o
 0001:0000ea40       _ZN97_$LT$alloc..vec..Vec$LT$T$C$A$GT$$u20$as$u20$alloc..vec..spec_extend..SpecExtend$LT$T$C$I$GT$$GT$11spec_extend17h7c9815f1f39a61b7E 000000014000fa40 f   libregex-0477f9e9a333a0e8:regex-0477f9e9a333a0e8.regex.bdffd6b571ecefc1-cgu.2.rcgu.o
 0001:0000ebb0       _ZN5alloc7raw_vec19RawVec$LT$T$C$A$GT$16reserve_for_push17hc21c9a7456e07807E 000000014000fbb0 f   libregex_automata-464fc35d41c3d390:regex_automata-464fc35d41c3d390.regex_automata.ab23a1c50add178-cgu.00.rcgu.o
 0001:0000ebb0       _ZN5alloc7raw_vec19RawVec$LT$T$C$A$GT$16reserve_for_push17hf25e01eac5a8a3fdE 000000014000fbb0 f   libregex-0477f9e9a333a0e8:regex-0477f9e9a333a0e8.regex.bdffd6b571ecefc1-cgu.0.rcgu.o
 0001:0000ebb0       _ZN5alloc7raw_vec19RawVec$LT$T$C$A$GT$16reserve_for_push17hf83a4a4acc331c27E 000000014000fbb0 f   libregex_syntax-1a078ef20d4d7dee:regex_syntax-1a078ef20d4d7dee.regex_syntax.936f5d3813beee8b-cgu.03.rcgu.o
 0001:0000ec70       _ZN14regex_automata4util4pool5inner9THREAD_ID7__getit33__KEY$u7b$$u7b$tls.shim$u7d$$u7d$17hfa92741ec9c17970E 000000014000fc70 f   libregex_automata-464fc35d41c3d390:regex_automata-464fc35d41c3d390.regex_automata.ab23a1c50add178-cgu.14.rcgu.o
 0001:0000ec90       _ZN42_$LT$$RF$T$u20$as$u20$core..fmt..Debug$GT$3fmt17h0dfe8be1db91a717E 000000014000fc90 f   libregex_automata-464fc35d41c3d390:regex_automata-464fc35d41c3d390.regex_automata.ab23a1c50add178-cgu.14.rcgu.o
 0001:0000edd0       _ZN42_$LT$$RF$T$u20$as$u20$core..fmt..Debug$GT$3fmt17h24aeb65886fa2ecdE 000000014000fdd0 f   libregex_automata-464fc35d41c3d390:regex_automata-464fc35d41c3d390.regex_automata.ab23a1c50add178-cgu.14.rcgu.o
 0001:0000eed0       _ZN42_$LT$$RF$T$u20$as$u20$core..fmt..Debug$GT$3fmt17h385f8933cb455f37E 000000014000fed0 f   libregex_automata-464fc35d41c3d390:regex_automata-464fc35d41c3d390.regex_automata.ab23a1c50add178-cgu.14.rcgu.o
 0001:0000eef0       _ZN42_$LT$$RF$T$u20$as$u20$core..fmt..Debug$GT$3fmt17h5cba75e3488dbf07E 000000014000fef0 f   libregex_automata-464fc35d41c3d390:regex_automata-464fc35d41c3d390.regex_automata.ab23a1c50add178-cgu.14.rcgu.o
 0001:0000efb0       _ZN42_$LT$$RF$T$u20$as$u20$core..fmt..Debug$GT$3fmt17h69f8b61881b77b80E 000000014000ffb0 f   libregex_automata-464fc35d41c3d390:regex_automata-464fc35d41c3d390.regex_automata.ab23a1c50add178-cgu.14.rcgu.o
 0001:0000efc0       _ZN42_$LT$$RF$T$u20$as$u20$core..fmt..Debug$GT$3fmt17hc784addd7a6c6619E 000000014000ffc0 f   libregex_automata-464fc35d41c3d390:regex_automata-464fc35d41c3d390.regex_automata.ab23a1c50add178-cgu.14.rcgu.o
 0001:0000f0b0       _ZN4core3ptr62drop_in_place$LT$regex_automata..nfa..thompson..nfa..State$GT$17hf69ee3de4be69657E.llvm.551548863055934565 00000001400100b0 f   libregex_automata-464fc35d41c3d390:regex_automata-464fc35d41c3d390.regex_automata.ab23a1c50add178-cgu.14.rcgu.o
 0001:0000f110       _ZN4core3ptr64drop_in_place$LT$regex_automata..util..sparse_set..SparseSet$GT$17hcbd9b77076f58da1E.llvm.5923153528386317138 0000000140010110 f   libregex_automata-464fc35d41c3d390:regex_automata-464fc35d41c3d390.regex_automata.ab23a1c50add178-cgu.09.rcgu.o
 0001:0000f160       _ZN4core3ptr105drop_in_place$LT$regex_syntax..hir..interval..IntervalSet$LT$regex_syntax..hir..ClassUnicodeRange$GT$$GT$17hb21e79417718de61E.llvm.18063728134863587459 0000000140010160 f   libregex_syntax-1a078ef20d4d7dee:regex_syntax-1a078ef20d4d7dee.regex_syntax.936f5d3813beee8b-cgu.15.rcgu.o
 0001:0000f160       _ZN4core3ptr143drop_in_place$LT$alloc..vec..Vec$LT$$LP$regex_automata..util..primitives..SmallIndex$C$regex_automata..util..primitives..SmallIndex$RP$$GT$$GT$17hde16a79c0175cb1eE.llvm.12241314740873085142 0000000140010160 f   libregex_automata-464fc35d41c3d390:regex_automata-464fc35d41c3d390.regex_automata.ab23a1c50add178-cgu.05.rcgu.o
 0001:0000f160       _ZN4core3ptr70drop_in_place$LT$regex_automata..nfa..thompson..compiler..Utf8Node$GT$17h683a29c531321e09E.llvm.16234871685531041024 0000000140010160 f   libregex_automata-464fc35d41c3d390:regex_automata-464fc35d41c3d390.regex_automata.ab23a1c50add178-cgu.01.rcgu.o
 0001:0000f160       _ZN4core3ptr73drop_in_place$LT$regex_automata..nfa..thompson..map..Utf8BoundedEntry$GT$17h0959bb64c9314493E.llvm.16234871685531041024 0000000140010160 f   libregex_automata-464fc35d41c3d390:regex_automata-464fc35d41c3d390.regex_automata.ab23a1c50add178-cgu.01.rcgu.o
 0001:0000f160       _ZN4core3ptr73drop_in_place$LT$regex_automata..nfa..thompson..map..Utf8BoundedEntry$GT$17h0959bb64c9314493E.llvm.551548863055934565 0000000140010160 f   libregex_automata-464fc35d41c3d390:regex_automata-464fc35d41c3d390.regex_automata.ab23a1c50add178-cgu.14.rcgu.o
 0001:0000f160       _ZN4core3ptr80drop_in_place$LT$alloc..vec..Vec$LT$regex_syntax..hir..ClassUnicodeRange$GT$$GT$17hf3725cbaa47969b8E.llvm.2631318121689656173 0000000140010160 f   libregex_syntax-1a078ef20d4d7dee:regex_syntax-1a078ef20d4d7dee.regex_syntax.936f5d3813beee8b-cgu.02.rcgu.o
 0001:0000f160       _ZN4core3ptr95drop_in_place$LT$alloc..vec..Vec$LT$regex_automata..nfa..thompson..range_trie..NextDupe$GT$$GT$17h024d0fce69a27fa1E.llvm.13069747341390513184 0000000140010160 f   libregex_automata-464fc35d41c3d390:regex_automata-464fc35d41c3d390.regex_automata.ab23a1c50add178-cgu.04.rcgu.o
 0001:0000f160       _ZN4core3ptr96drop_in_place$LT$alloc..vec..into_iter..IntoIter$LT$regex_syntax..hir..ClassUnicodeRange$GT$$GT$17ha3f5ad2b267d8883E.llvm.2631318121689656173 0000000140010160 f   libregex_syntax-1a078ef20d4d7dee:regex_syntax-1a078ef20d4d7dee.regex_syntax.936f5d3813beee8b-cgu.02.rcgu.o
 0001:0000f1c0       _ZN4core3ptr169drop_in_place$LT$core..iter..adapters..map..Map$LT$alloc..vec..into_iter..IntoIter$LT$char$GT$$C$regex_syntax..hir..Hir..alternation..$u7b$$u7b$closure$u7d$$u7d$$GT$$GT$17h0d71865bfefc1cc6E.llvm.2631318121689656173 00000001400101c0 f   libregex_syntax-1a078ef20d4d7dee:regex_syntax-1a078ef20d4d7dee.regex_syntax.936f5d3813beee8b-cgu.02.rcgu.o
 0001:0000f1c0       _ZN4core3ptr59drop_in_place$LT$aho_corasick..util..remapper..Remapper$GT$17h42b8dea718639cbcE.llvm.7137040370862660648 00000001400101c0 f   libaho_corasick-b4d6ea81f1a61526:aho_corasick-b4d6ea81f1a61526.aho_corasick.7f4fbca99e96e6a8-cgu.09.rcgu.o
 0001:0000f1c0       _ZN4core3ptr60drop_in_place$LT$regex_automata..dfa..remapper..Remapper$GT$17h6c57e0f4e94ae031E.llvm.5923153528386317138 00000001400101c0 f   libregex_automata-464fc35d41c3d390:regex_automata-464fc35d41c3d390.regex_automata.ab23a1c50add178-cgu.09.rcgu.o
 0001:0000f1c0       _ZN4core3ptr83drop_in_place$LT$alloc..vec..Vec$LT$aho_corasick..util..primitives..StateID$GT$$GT$17h4550b7e25059115bE.llvm.4770241040802308457 00000001400101c0 f   libaho_corasick-b4d6ea81f1a61526:aho_corasick-b4d6ea81f1a61526.aho_corasick.7f4fbca99e96e6a8-cgu.11.rcgu.o
 0001:0000f1c0       _ZN4core3ptr83drop_in_place$LT$alloc..vec..Vec$LT$aho_corasick..util..primitives..StateID$GT$$GT$17h4550b7e25059115bE.llvm.7137040370862660648 00000001400101c0 f   libaho_corasick-b4d6ea81f1a61526:aho_corasick-b4d6ea81f1a61526.aho_corasick.7f4fbca99e96e6a8-cgu.09.rcgu.o
 0001:0000f1c0       _ZN4core3ptr85drop_in_place$LT$alloc..vec..Vec$LT$aho_corasick..util..primitives..PatternID$GT$$GT$17h119e862aad7d1abbE.llvm.14991035210720787909 00000001400101c0 f   libaho_corasick-b4d6ea81f1a61526:aho_corasick-b4d6ea81f1a61526.aho_corasick.7f4fbca99e96e6a8-cgu.14.rcgu.o
 0001:0000f1c0       _ZN4core3ptr85drop_in_place$LT$alloc..vec..Vec$LT$aho_corasick..util..primitives..PatternID$GT$$GT$17h119e862aad7d1abbE.llvm.4770241040802308457 00000001400101c0 f   libaho_corasick-b4d6ea81f1a61526:aho_corasick-b4d6ea81f1a61526.aho_corasick.7f4fbca99e96e6a8-cgu.11.rcgu.o
 0001:0000f1c0       _ZN4core3ptr85drop_in_place$LT$alloc..vec..Vec$LT$aho_corasick..util..primitives..PatternID$GT$$GT$17hcda2655b5d08005aE.llvm.16234871685531041024 00000001400101c0 f   libregex_automata-464fc35d41c3d390:regex_automata-464fc35d41c3d390.regex_automata.ab23a1c50add178-cgu.01.rcgu.o
 0001:0000f1c0       _ZN4core3ptr85drop_in_place$LT$alloc..vec..Vec$LT$regex_automata..util..primitives..StateID$GT$$GT$17h4282855c7431f341E.llvm.1376675858812116721 00000001400101c0 f   libregex_automata-464fc35d41c3d390:regex_automata-464fc35d41c3d390.regex_automata.ab23a1c50add178-cgu.12.rcgu.o
 0001:0000f1c0       _ZN4core3ptr85drop_in_place$LT$alloc..vec..Vec$LT$regex_automata..util..primitives..StateID$GT$$GT$17h4282855c7431f341E.llvm.16234871685531041024 00000001400101c0 f   libregex_automata-464fc35d41c3d390:regex_automata-464fc35d41c3d390.regex_automata.ab23a1c50add178-cgu.01.rcgu.o
 0001:0000f1c0       _ZN4core3ptr85drop_in_place$LT$alloc..vec..Vec$LT$regex_automata..util..primitives..StateID$GT$$GT$17h4282855c7431f341E.llvm.551548863055934565 00000001400101c0 f   libregex_automata-464fc35d41c3d390:regex_automata-464fc35d41c3d390.regex_automata.ab23a1c50add178-cgu.14.rcgu.o
 0001:0000f1c0       _ZN4core3ptr85drop_in_place$LT$alloc..vec..Vec$LT$regex_automata..util..primitives..StateID$GT$$GT$17h4282855c7431f341E.llvm.5923153528386317138 00000001400101c0 f   libregex_automata-464fc35d41c3d390:regex_automata-464fc35d41c3d390.regex_automata.ab23a1c50add178-cgu.09.rcgu.o
 0001:0000f1c0       _ZN4core3ptr85drop_in_place$LT$alloc..vec..Vec$LT$regex_automata..util..primitives..StateID$GT$$GT$17h4282855c7431f341E.llvm.8572194949199378180 00000001400101c0 f   libregex_automata-464fc35d41c3d390:regex_automata-464fc35d41c3d390.regex_automata.ab23a1c50add178-cgu.08.rcgu.o
 0001:0000f1c0       _ZN4core3ptr85drop_in_place$LT$alloc..vec..Vec$LT$regex_automata..util..primitives..StateID$GT$$GT$17h4282855c7431f341E.llvm.9692425724856445687 00000001400101c0 f   libregex_automata-464fc35d41c3d390:regex_automata-464fc35d41c3d390.regex_automata.ab23a1c50add178-cgu.07.rcgu.o
 0001:0000f2f0       _ZN4core4hash11BuildHasher8hash_one17h2aa507abf5430e99E 00000001400102f0 f   libregex_automata-464fc35d41c3d390:regex_automata-464fc35d41c3d390.regex_automata.ab23a1c50add178-cgu.14.rcgu.o
 0001:0000f470       _ZN4core4hash11BuildHasher8hash_one17h53f4c8dd4bee87e0E 0000000140010470 f   libregex_automata-464fc35d41c3d390:regex_automata-464fc35d41c3d390.regex_automata.ab23a1c50add178-cgu.14.rcgu.o
 0001:0000f5e0       _ZN4core4hash11BuildHasher8hash_one17h9062130d340476f1E 00000001400105e0 f   libregex_automata-464fc35d41c3d390:regex_automata-464fc35d41c3d390.regex_automata.ab23a1c50add178-cgu.14.rcgu.o
 0001:0000f760       _ZN4core4hash11BuildHasher8hash_one17hca15b05935f8fc9dE 0000000140010760 f   libregex_automata-464fc35d41c3d390:regex_automata-464fc35d41c3d390.regex_automata.ab23a1c50add178-cgu.14.rcgu.o
 0001:0000f8e0       _ZN5alloc4sync16Arc$LT$T$C$A$GT$9drop_slow17h95e792dc556bb36bE 00000001400108e0 f   libregex_automata-464fc35d41c3d390:regex_automata-464fc35d41c3d390.regex_automata.ab23a1c50add178-cgu.14.rcgu.o
 0001:0000fb30       _ZN5alloc4sync16Arc$LT$T$C$A$GT$9drop_slow17h31e1be1c5a249895E 0000000140010b30 f   libaho_corasick-b4d6ea81f1a61526:aho_corasick-b4d6ea81f1a61526.aho_corasick.7f4fbca99e96e6a8-cgu.12.rcgu.o
 0001:0000fb30       _ZN5alloc4sync16Arc$LT$T$C$A$GT$9drop_slow17hb6940f44c3a85505E 0000000140010b30 f   libregex_automata-464fc35d41c3d390:regex_automata-464fc35d41c3d390.regex_automata.ab23a1c50add178-cgu.14.rcgu.o
 0001:0000fbe0       _ZN5alloc4sync16Arc$LT$T$C$A$GT$9drop_slow17hfd5382b040e7ca06E 0000000140010be0 f   libregex_automata-464fc35d41c3d390:regex_automata-464fc35d41c3d390.regex_automata.ab23a1c50add178-cgu.14.rcgu.o
 0001:0000fc90       _ZN66_$LT$alloc..sync..Arc$LT$T$C$A$GT$$u20$as$u20$core..fmt..Debug$GT$3fmt17h03d960a275f6150dE 0000000140010c90 f   libregex_automata-464fc35d41c3d390:regex_automata-464fc35d41c3d390.regex_automata.ab23a1c50add178-cgu.14.rcgu.o
 0001:0000fc90       _ZN66_$LT$alloc..sync..Arc$LT$T$C$A$GT$$u20$as$u20$core..fmt..Debug$GT$3fmt17h213698de52c5127cE 0000000140010c90 f   libregex_automata-464fc35d41c3d390:regex_automata-464fc35d41c3d390.regex_automata.ab23a1c50add178-cgu.14.rcgu.o
 0001:0000fc90       _ZN66_$LT$alloc..sync..Arc$LT$T$C$A$GT$$u20$as$u20$core..fmt..Debug$GT$3fmt17h4c2f4608d002b42bE 0000000140010c90 f   libaho_corasick-b4d6ea81f1a61526:aho_corasick-b4d6ea81f1a61526.aho_corasick.7f4fbca99e96e6a8-cgu.12.rcgu.o
 0001:0000fc90       _ZN66_$LT$alloc..sync..Arc$LT$T$C$A$GT$$u20$as$u20$core..fmt..Debug$GT$3fmt17hdae8c08f7d8e5c9bE 0000000140010c90 f   libaho_corasick-b4d6ea81f1a61526:aho_corasick-b4d6ea81f1a61526.aho_corasick.7f4fbca99e96e6a8-cgu.12.rcgu.o
 0001:0000fcc0       _ZN14regex_automata3nfa8thompson3map14Utf8BoundedMap5clear17h8f6cd3b0cf49e3bbE 0000000140010cc0 f   libregex_automata-464fc35d41c3d390:regex_automata-464fc35d41c3d390.regex_automata.ab23a1c50add178-cgu.14.rcgu.o
 0001:00010020       _ZN14regex_automata3nfa8thompson3map13Utf8SuffixMap5clear17h69483173fde30dbfE 0000000140011020 f   libregex_automata-464fc35d41c3d390:regex_automata-464fc35d41c3d390.regex_automata.ab23a1c50add178-cgu.14.rcgu.o
 0001:00010350       _ZN14regex_automata3nfa8thompson3nfa3NFA8patterns17had5e94d805515e79E 0000000140011350 f   libregex_automata-464fc35d41c3d390:regex_automata-464fc35d41c3d390.regex_automata.ab23a1c50add178-cgu.14.rcgu.o
 0001:000103d0       _ZN76_$LT$regex_automata..nfa..thompson..nfa..NFA$u20$as$u20$core..fmt..Debug$GT$3fmt17h349dc2598c1857d6E 00000001400113d0 f   libregex_automata-464fc35d41c3d390:regex_automata-464fc35d41c3d390.regex_automata.ab23a1c50add178-cgu.14.rcgu.o
 0001:000103e0       _ZN14regex_automata3nfa8thompson3nfa5Inner8into_nfa17h7c3c05c17603fc8fE 00000001400113e0 f   libregex_automata-464fc35d41c3d390:regex_automata-464fc35d41c3d390.regex_automata.ab23a1c50add178-cgu.14.rcgu.o
 0001:00010d70       _ZN14regex_automata3nfa8thompson3nfa5Inner3add17hb459d6a60ebed64aE 0000000140011d70 f   libregex_automata-464fc35d41c3d390:regex_automata-464fc35d41c3d390.regex_automata.ab23a1c50add178-cgu.14.rcgu.o
 0001:00011090       _ZN14regex_automata3nfa8thompson3nfa5Inner5remap17hd65aced41b50191bE 0000000140012090 f   libregex_automata-464fc35d41c3d390:regex_automata-464fc35d41c3d390.regex_automata.ab23a1c50add178-cgu.14.rcgu.o
 0001:000112d0       _ZN78_$LT$regex_automata..nfa..thompson..nfa..Inner$u20$as$u20$core..fmt..Debug$GT$3fmt17h73c6efae274142a6E 00000001400122d0 f   libregex_automata-464fc35d41c3d390:regex_automata-464fc35d41c3d390.regex_automata.ab23a1c50add178-cgu.14.rcgu.o
 0001:00011850       _ZN78_$LT$regex_automata..nfa..thompson..nfa..State$u20$as$u20$core..fmt..Debug$GT$3fmt17h122e917b9eabcba9E 0000000140012850 f   libregex_automata-464fc35d41c3d390:regex_automata-464fc35d41c3d390.regex_automata.ab23a1c50add178-cgu.14.rcgu.o
 0001:00011f50       _ZN83_$LT$regex_automata..nfa..thompson..nfa..Transition$u20$as$u20$core..fmt..Debug$GT$3fmt17h7848b3c412ea6c0aE 0000000140012f50 f   libregex_automata-464fc35d41c3d390:regex_automata-464fc35d41c3d390.regex_automata.ab23a1c50add178-cgu.14.rcgu.o
 0001:00012080       _ZN14regex_automata4util11determinize4next17hb971905b92b563b4E 0000000140013080 f   libregex_automata-464fc35d41c3d390:regex_automata-464fc35d41c3d390.regex_automata.ab23a1c50add178-cgu.14.rcgu.o
 0001:00012a40       _ZN14regex_automata4util11determinize15epsilon_closure17h26ca5f085d3e4851E 0000000140013a40 f   libregex_automata-464fc35d41c3d390:regex_automata-464fc35d41c3d390.regex_automata.ab23a1c50add178-cgu.14.rcgu.o
 0001:00012fa0       _ZN14regex_automata4util11determinize14add_nfa_states17h8041c809ca3521f2E 0000000140013fa0 f   libregex_automata-464fc35d41c3d390:regex_automata-464fc35d41c3d390.regex_automata.ab23a1c50add178-cgu.14.rcgu.o
 0001:00013450       _ZN14regex_automata4util11determinize25set_lookbehind_from_start17hc73f5155f27e17ccE 0000000140014450 f   libregex_automata-464fc35d41c3d390:regex_automata-464fc35d41c3d390.regex_automata.ab23a1c50add178-cgu.14.rcgu.o
 0001:000137d0       _ZN42_$LT$$RF$T$u20$as$u20$core..fmt..Debug$GT$3fmt17h9c2be84f509d87b6E 00000001400147d0 f   libregex_automata-464fc35d41c3d390:regex_automata-464fc35d41c3d390.regex_automata.ab23a1c50add178-cgu.08.rcgu.o
 0001:00013820       _ZN42_$LT$$RF$T$u20$as$u20$core..fmt..Debug$GT$3fmt17hae3896d31bd4721cE 0000000140014820 f   libregex_automata-464fc35d41c3d390:regex_automata-464fc35d41c3d390.regex_automata.ab23a1c50add178-cgu.08.rcgu.o
 0001:00013860       _ZN42_$LT$$RF$T$u20$as$u20$core..fmt..Debug$GT$3fmt17hc04ba1d78c3490adE 0000000140014860 f   libregex_automata-464fc35d41c3d390:regex_automata-464fc35d41c3d390.regex_automata.ab23a1c50add178-cgu.08.rcgu.o
 0001:000138b0       _ZN42_$LT$$RF$T$u20$as$u20$core..fmt..Debug$GT$3fmt17hd1a0ab13e1c6ee7dE 00000001400148b0 f   libregex_automata-464fc35d41c3d390:regex_automata-464fc35d41c3d390.regex_automata.ab23a1c50add178-cgu.08.rcgu.o
 0001:00013920       _ZN42_$LT$$RF$T$u20$as$u20$core..fmt..Debug$GT$3fmt17hfc644662cbbcccb8E 0000000140014920 f   libregex_automata-464fc35d41c3d390:regex_automata-464fc35d41c3d390.regex_automata.ab23a1c50add178-cgu.08.rcgu.o
 0001:00013960       _ZN4core3fmt3num50_$LT$impl$u20$core..fmt..Debug$u20$for$u20$u32$GT$3fmt17hff8f99ba233e976cE.llvm.16314815414137810661 0000000140014960 f   libgoblin-8ee2c552e4c10df6:goblin-8ee2c552e4c10df6.goblin.f087800e97e1b550-cgu.04.rcgu.o
 0001:00013bf0       _ZN4core3ptr113drop_in_place$LT$core..cell..UnsafeCell$LT$core..option..Option$LT$regex_automata..meta..regex..Cache$GT$$GT$$GT$17h710b2087e86c4b2bE.llvm.8572194949199378180 0000000140014bf0 f   libregex_automata-464fc35d41c3d390:regex_automata-464fc35d41c3d390.regex_automata.ab23a1c50add178-cgu.08.rcgu.o
 0001:00013c00       _ZN4core3ptr66drop_in_place$LT$regex_automata..nfa..thompson..pikevm..Config$GT$17hc718920f0dfb60cdE.llvm.5923153528386317138 0000000140014c00 f   libregex_automata-464fc35d41c3d390:regex_automata-464fc35d41c3d390.regex_automata.ab23a1c50add178-cgu.09.rcgu.o
 0001:00013c20       _ZN4core3ptr93drop_in_place$LT$alloc..sync..Arc$LT$dyn$u20$regex_automata..meta..strategy..Strategy$GT$$GT$17hf6f51c81c75bb804E.llvm.8572194949199378180 0000000140014c20 f   libregex_automata-464fc35d41c3d390:regex_automata-464fc35d41c3d390.regex_automata.ab23a1c50add178-cgu.08.rcgu.o
 0001:00013c30       _ZN4core3ptr209drop_in_place$LT$alloc..vec..Vec$LT$regex_automata..util..pool..inner..CacheLine$LT$std..sync..mutex..Mutex$LT$alloc..vec..Vec$LT$alloc..boxed..Box$LT$regex_automata..meta..regex..Cache$GT$$GT$$GT$$GT$$GT$$GT$17h2de115842c95948cE.llvm.8572194949199378180 0000000140014c30 f   libregex_automata-464fc35d41c3d390:regex_automata-464fc35d41c3d390.regex_automata.ab23a1c50add178-cgu.08.rcgu.o
 0001:00014a50       _ZN4core3ptr52drop_in_place$LT$regex_syntax..hir..literal..Seq$GT$17h76f726e4a6679997E.llvm.4281819601847883408 0000000140015a50 f   libregex_automata-464fc35d41c3d390:regex_automata-464fc35d41c3d390.regex_automata.ab23a1c50add178-cgu.11.rcgu.o
 0001:00015490       _ZN4core3ptr64drop_in_place$LT$regex_automata..meta..wrappers..HybridCache$GT$17h2976803b4628b054E.llvm.8572194949199378180 0000000140016490 f   libregex_automata-464fc35d41c3d390:regex_automata-464fc35d41c3d390.regex_automata.ab23a1c50add178-cgu.08.rcgu.o
 0001:00015500       _ZN4core3ptr65drop_in_place$LT$regex_automata..meta..wrappers..OnePassCache$GT$17h020b5f2cfb5de6d7E.llvm.8572194949199378180 0000000140016500 f   libregex_automata-464fc35d41c3d390:regex_automata-464fc35d41c3d390.regex_automata.ab23a1c50add178-cgu.08.rcgu.o
 0001:00015780       _ZN72_$LT$alloc..boxed..Box$LT$T$C$A$GT$$u20$as$u20$core..ops..drop..Drop$GT$4drop17hbf3e7eb33d37bbc5E.llvm.1190860102792631389 0000000140016780 f   libregex_syntax-1a078ef20d4d7dee:regex_syntax-1a078ef20d4d7dee.regex_syntax.936f5d3813beee8b-cgu.14.rcgu.o
 0001:00015780       _ZN72_$LT$alloc..boxed..Box$LT$T$C$A$GT$$u20$as$u20$core..ops..drop..Drop$GT$4drop17hbf3e7eb33d37bbc5E.llvm.8070924949184118840 0000000140016780 f   libregex_syntax-1a078ef20d4d7dee:regex_syntax-1a078ef20d4d7dee.regex_syntax.936f5d3813beee8b-cgu.11.rcgu.o
 0001:00015dd0       _ZN72_$LT$alloc..boxed..Box$LT$T$C$A$GT$$u20$as$u20$core..ops..drop..Drop$GT$4drop17hcfdcf9acafc9321cE.llvm.2631318121689656173 0000000140016dd0 f   libregex_syntax-1a078ef20d4d7dee:regex_syntax-1a078ef20d4d7dee.regex_syntax.936f5d3813beee8b-cgu.02.rcgu.o
 0001:00015dd0       _ZN72_$LT$alloc..boxed..Box$LT$T$C$A$GT$$u20$as$u20$core..ops..drop..Drop$GT$4drop17hcfdcf9acafc9321cE.llvm.8070924949184118840 0000000140016dd0 f   libregex_syntax-1a078ef20d4d7dee:regex_syntax-1a078ef20d4d7dee.regex_syntax.936f5d3813beee8b-cgu.11.rcgu.o
 0001:00015dd0       _ZN72_$LT$alloc..boxed..Box$LT$T$C$A$GT$$u20$as$u20$core..ops..drop..Drop$GT$4drop17hcfdcf9acafc9321cE.llvm.8454077967597911764 0000000140016dd0 f   libregex_syntax-1a078ef20d4d7dee:regex_syntax-1a078ef20d4d7dee.regex_syntax.936f5d3813beee8b-cgu.08.rcgu.o
 0001:00015dd0       _ZN72_$LT$alloc..boxed..Box$LT$T$C$A$GT$$u20$as$u20$core..ops..drop..Drop$GT$4drop17hee05a52e8d697bddE.llvm.16234871685531041024 0000000140016dd0 f   libregex_automata-464fc35d41c3d390:regex_automata-464fc35d41c3d390.regex_automata.ab23a1c50add178-cgu.01.rcgu.o
 0001:00015de0       _ZN72_$LT$alloc..boxed..Box$LT$T$C$A$GT$$u20$as$u20$core..ops..drop..Drop$GT$4drop17h9e0eaca29bb7805aE.llvm.2631318121689656173 0000000140016de0 f   libregex_syntax-1a078ef20d4d7dee:regex_syntax-1a078ef20d4d7dee.regex_syntax.936f5d3813beee8b-cgu.02.rcgu.o
 0001:00015de0       _ZN72_$LT$alloc..boxed..Box$LT$T$C$A$GT$$u20$as$u20$core..ops..drop..Drop$GT$4drop17h9e0eaca29bb7805aE.llvm.8070924949184118840 0000000140016de0 f   libregex_syntax-1a078ef20d4d7dee:regex_syntax-1a078ef20d4d7dee.regex_syntax.936f5d3813beee8b-cgu.11.rcgu.o
 0001:00015de0       _ZN72_$LT$alloc..boxed..Box$LT$T$C$A$GT$$u20$as$u20$core..ops..drop..Drop$GT$4drop17h9e0eaca29bb7805aE.llvm.8454077967597911764 0000000140016de0 f   libregex_syntax-1a078ef20d4d7dee:regex_syntax-1a078ef20d4d7dee.regex_syntax.936f5d3813beee8b-cgu.08.rcgu.o
 0001:00015df0       _ZN14regex_automata4meta5regex5Regex6config17h1c5148004d8c1bdeE 0000000140016df0 f   libregex_automata-464fc35d41c3d390:regex_automata-464fc35d41c3d390.regex_automata.ab23a1c50add178-cgu.08.rcgu.o
 0001:00015df0       _ZN14regex_automata4meta5regex6Config3new17h1c9ac91af0fcb6bbE 0000000140016df0 f   libregex_automata-464fc35d41c3d390:regex_automata-464fc35d41c3d390.regex_automata.ab23a1c50add178-cgu.08.rcgu.o
 0001:00015e40       _ZN14regex_automata4meta5regex5Regex15create_captures17h712cafb097fc5498E 0000000140016e40 f   libregex_automata-464fc35d41c3d390:regex_automata-464fc35d41c3d390.regex_automata.ab23a1c50add178-cgu.08.rcgu.o
 0001:00015f70       _ZN14regex_automata4meta5regex9RegexInfo3new17hf4bc2c64e4afc9d7E 0000000140016f70 f   libregex_automata-464fc35d41c3d390:regex_automata-464fc35d41c3d390.regex_automata.ab23a1c50add178-cgu.08.rcgu.o
 0001:00016280       _ZN14regex_automata4meta5regex9RegexInfo11props_union17h667d3643d1498d26E 0000000140017280 f   libregex_automata-464fc35d41c3d390:regex_automata-464fc35d41c3d390.regex_automata.ab23a1c50add178-cgu.08.rcgu.o
 0001:00016290       _ZN14regex_automata4meta5regex6Config10match_kind17h744739192f85dfa4E 0000000140017290 f   libregex_automata-464fc35d41c3d390:regex_automata-464fc35d41c3d390.regex_automata.ab23a1c50add178-cgu.08.rcgu.o
 0001:000162e0       _ZN14regex_automata4meta5regex6Config10utf8_empty17hcb75f947f69a021eE 00000001400172e0 f   libregex_automata-464fc35d41c3d390:regex_automata-464fc35d41c3d390.regex_automata.ab23a1c50add178-cgu.08.rcgu.o
 0001:00016350       _ZN14regex_automata4meta5regex6Config14nfa_size_limit17h5208666fadc0b105E 0000000140017350 f   libregex_automata-464fc35d41c3d390:regex_automata-464fc35d41c3d390.regex_automata.ab23a1c50add178-cgu.08.rcgu.o
 0001:000163b0       _ZN14regex_automata4meta5regex6Config21hybrid_cache_capacity17h6a33794188e1d040E 00000001400173b0 f   libregex_automata-464fc35d41c3d390:regex_automata-464fc35d41c3d390.regex_automata.ab23a1c50add178-cgu.08.rcgu.o
 0001:00016410       _ZN14regex_automata4meta5regex7Builder3new17h16c6832036266aacE 0000000140017410 f   libregex_automata-464fc35d41c3d390:regex_automata-464fc35d41c3d390.regex_automata.ab23a1c50add178-cgu.08.rcgu.o
 0001:00016510       _ZN14regex_automata4meta5regex7Builder5build17h55bb71c5478b6e4cE 0000000140017510 f   libregex_automata-464fc35d41c3d390:regex_automata-464fc35d41c3d390.regex_automata.ab23a1c50add178-cgu.08.rcgu.o
 0001:00017c00       _ZN14regex_automata4meta5regex7Builder9configure17h9b3636ee0899facbE 0000000140018c00 f   libregex_automata-464fc35d41c3d390:regex_automata-464fc35d41c3d390.regex_automata.ab23a1c50add178-cgu.08.rcgu.o
 0001:00017fc0       _ZN14regex_automata4meta5regex7Builder6syntax17hf631234047e90731E 0000000140018fc0 f   libregex_automata-464fc35d41c3d390:regex_automata-464fc35d41c3d390.regex_automata.ab23a1c50add178-cgu.08.rcgu.o
 0001:00018060       _ZN14regex_automata4meta13reverse_inner7extract17hc233bbf64e71ac12E 0000000140019060 f   libregex_automata-464fc35d41c3d390:regex_automata-464fc35d41c3d390.regex_automata.ab23a1c50add178-cgu.08.rcgu.o
 0001:000187f0       _ZN14regex_automata4meta13reverse_inner7flatten17h484f14028888ff2dE 00000001400197f0 f   libregex_automata-464fc35d41c3d390:regex_automata-464fc35d41c3d390.regex_automata.ab23a1c50add178-cgu.08.rcgu.o
 0001:00019490       _ZN14regex_automata4util6syntax6Config3new17hacd8c228ce365d58E 000000014001a490 f   libregex_automata-464fc35d41c3d390:regex_automata-464fc35d41c3d390.regex_automata.ab23a1c50add178-cgu.08.rcgu.o
 0001:00019490       _ZN79_$LT$regex_automata..util..syntax..Config$u20$as$u20$core..default..Default$GT$7default17h110b142db0611a9bE 000000014001a490 f   libregex_automata-464fc35d41c3d390:regex_automata-464fc35d41c3d390.regex_automata.ab23a1c50add178-cgu.08.rcgu.o
 0001:000194b0       _ZN14regex_automata4util6syntax6Config10multi_line17hea6873d9c8076a58E 000000014001a4b0 f   libregex_automata-464fc35d41c3d390:regex_automata-464fc35d41c3d390.regex_automata.ab23a1c50add178-cgu.08.rcgu.o
 0001:000194e0       _ZN14regex_automata4util6syntax6Config4utf817h03b77527bf873291E 000000014001a4e0 f   libregex_automata-464fc35d41c3d390:regex_automata-464fc35d41c3d390.regex_automata.ab23a1c50add178-cgu.08.rcgu.o
 0001:00019510       _ZN75_$LT$regex_automata..meta..regex..RegexInfo$u20$as$u20$core..fmt..Debug$GT$3fmt17h8da0716bc7b71c98E 000000014001a510 f   libregex_automata-464fc35d41c3d390:regex_automata-464fc35d41c3d390.regex_automata.ab23a1c50add178-cgu.08.rcgu.o
 0001:00019550       _ZN72_$LT$regex_automata..meta..regex..Config$u20$as$u20$core..fmt..Debug$GT$3fmt17h37021baf913c4a30E 000000014001a550 f   libregex_automata-464fc35d41c3d390:regex_automata-464fc35d41c3d390.regex_automata.ab23a1c50add178-cgu.08.rcgu.o
 0001:00019700       _ZN86_$LT$regex_automata..util..primitives..SmallIndexError$u20$as$u20$core..fmt..Debug$GT$3fmt17h0b4c1268a19b5646E 000000014001a700 f   libregex_automata-464fc35d41c3d390:regex_automata-464fc35d41c3d390.regex_automata.ab23a1c50add178-cgu.08.rcgu.o
 0001:00019750       _ZN80_$LT$regex_automata..util..primitives..PatternID$u20$as$u20$core..fmt..Debug$GT$3fmt17h36e8da1c97bf0427E 000000014001a750 f   libregex_automata-464fc35d41c3d390:regex_automata-464fc35d41c3d390.regex_automata.ab23a1c50add178-cgu.08.rcgu.o
 0001:000197a0       _ZN78_$LT$regex_automata..util..primitives..StateID$u20$as$u20$core..fmt..Debug$GT$3fmt17h7805bf6356a52508E 000000014001a7a0 f   libregex_automata-464fc35d41c3d390:regex_automata-464fc35d41c3d390.regex_automata.ab23a1c50add178-cgu.08.rcgu.o
 0001:000197f0       _ZN83_$LT$regex_automata..util..primitives..StateIDError$u20$as$u20$core..fmt..Debug$GT$3fmt17hed002019672a043eE 000000014001a7f0 f   libregex_automata-464fc35d41c3d390:regex_automata-464fc35d41c3d390.regex_automata.ab23a1c50add178-cgu.08.rcgu.o
 0001:00019830       _ZN12aho_corasick9automaton9Automaton20try_find_overlapping17h0c3810d4f30826e9E 000000014001a830 f   libregex_automata-464fc35d41c3d390:regex_automata-464fc35d41c3d390.regex_automata.ab23a1c50add178-cgu.15.rcgu.o
 0001:00019850       _ZN12aho_corasick9automaton9Automaton8try_find17hc3b2f68f5f34a2b5E 000000014001a850 f   libregex_automata-464fc35d41c3d390:regex_automata-464fc35d41c3d390.regex_automata.ab23a1c50add178-cgu.15.rcgu.o
 0001:00019870       _ZN42_$LT$$RF$T$u20$as$u20$core..fmt..Debug$GT$3fmt17h1fed3a8a1501eaddE 000000014001a870 f   libregex_automata-464fc35d41c3d390:regex_automata-464fc35d41c3d390.regex_automata.ab23a1c50add178-cgu.15.rcgu.o
 0001:000198c0       _ZN42_$LT$$RF$T$u20$as$u20$core..fmt..Debug$GT$3fmt17h8fe18c26f1274dc3E 000000014001a8c0 f   libregex_automata-464fc35d41c3d390:regex_automata-464fc35d41c3d390.regex_automata.ab23a1c50add178-cgu.15.rcgu.o
 0001:00019980       _ZN4core3fmt3num49_$LT$impl$u20$core..fmt..Debug$u20$for$u20$u8$GT$3fmt17h36d740473147daa3E.llvm.9692425724856445687 000000014001a980 f   libregex_automata-464fc35d41c3d390:regex_automata-464fc35d41c3d390.regex_automata.ab23a1c50add178-cgu.07.rcgu.o
 0001:00019a50       _ZN14regex_automata6hybrid6search8find_fwd17h73eb22b9fb23d18aE 000000014001aa50 f   libregex_automata-464fc35d41c3d390:regex_automata-464fc35d41c3d390.regex_automata.ab23a1c50add178-cgu.15.rcgu.o
 0001:0001caa0       _ZN14regex_automata6hybrid6search8find_rev17h59488641b5802b9aE 000000014001daa0 f   libregex_automata-464fc35d41c3d390:regex_automata-464fc35d41c3d390.regex_automata.ab23a1c50add178-cgu.15.rcgu.o
 0001:0001def0       _ZN14regex_automata6hybrid6search20find_overlapping_fwd17h977a6aff1d12684dE 000000014001eef0 f   libregex_automata-464fc35d41c3d390:regex_automata-464fc35d41c3d390.regex_automata.ab23a1c50add178-cgu.15.rcgu.o
 0001:0001f600       _ZN14regex_automata4meta5error10BuildError10size_limit17h9028153f71cde747E 0000000140020600 f   libregex_automata-464fc35d41c3d390:regex_automata-464fc35d41c3d390.regex_automata.ab23a1c50add178-cgu.15.rcgu.o
 0001:0001f620       _ZN14regex_automata4meta5error10BuildError12syntax_error17he1e6732bc25f51fbE 0000000140020620 f   libregex_automata-464fc35d41c3d390:regex_automata-464fc35d41c3d390.regex_automata.ab23a1c50add178-cgu.15.rcgu.o
 0001:0001f630       _ZN78_$LT$regex_automata..meta..error..BuildError$u20$as$u20$core..fmt..Display$GT$3fmt17hfd77bf67ba835f99E 0000000140020630 f   libregex_automata-464fc35d41c3d390:regex_automata-464fc35d41c3d390.regex_automata.ab23a1c50add178-cgu.15.rcgu.o
 0001:0001f6d0       _ZN131_$LT$regex_automata..meta..error..RetryFailError$u20$as$u20$core..convert..From$LT$regex_automata..util..search..MatchError$GT$$GT$4from17hdbbadff58b689f17E 00000001400206d0 f   libregex_automata-464fc35d41c3d390:regex_automata-464fc35d41c3d390.regex_automata.ab23a1c50add178-cgu.15.rcgu.o
 0001:0001f790       _ZN14regex_automata4meta7limited26hybrid_try_search_half_rev17h013827e59d759d24E 0000000140020790 f   libregex_automata-464fc35d41c3d390:regex_automata-464fc35d41c3d390.regex_automata.ab23a1c50add178-cgu.15.rcgu.o
 0001:00020360       _ZN14regex_automata4meta6stopat26hybrid_try_search_half_fwd17h97e1c08b82a1f6ecE 0000000140021360 f   libregex_automata-464fc35d41c3d390:regex_automata-464fc35d41c3d390.regex_automata.ab23a1c50add178-cgu.15.rcgu.o
 0001:00020d40       _ZN73_$LT$regex_automata..util..alphabet..Unit$u20$as$u20$core..fmt..Debug$GT$3fmt17hf2b71177d77c1eb4E 0000000140021d40 f   libregex_automata-464fc35d41c3d390:regex_automata-464fc35d41c3d390.regex_automata.ab23a1c50add178-cgu.15.rcgu.o
 0001:00020de0       _ZN80_$LT$regex_automata..util..alphabet..ByteClasses$u20$as$u20$core..fmt..Debug$GT$3fmt17h5c3be644eb2de152E 0000000140021de0 f   libregex_automata-464fc35d41c3d390:regex_automata-464fc35d41c3d390.regex_automata.ab23a1c50add178-cgu.15.rcgu.o
 0001:00021380       _ZN14regex_automata4util4iter8Searcher3new17hee9f29bad0e0b58cE 0000000140022380 f   libregex_automata-464fc35d41c3d390:regex_automata-464fc35d41c3d390.regex_automata.ab23a1c50add178-cgu.15.rcgu.o
 0001:000213b0       _ZN72_$LT$regex_automata..util..look..LookSet$u20$as$u20$core..fmt..Debug$GT$3fmt17h07154f3578a61695E 00000001400223b0 f   libregex_automata-464fc35d41c3d390:regex_automata-464fc35d41c3d390.regex_automata.ab23a1c50add178-cgu.15.rcgu.o
 0001:000216b0       _ZN14regex_automata4util4look11LookMatcher14add_to_byteset17he69c5ebe270d0362E 00000001400226b0 f   libregex_automata-464fc35d41c3d390:regex_automata-464fc35d41c3d390.regex_automata.ab23a1c50add178-cgu.15.rcgu.o
 0001:000218a0       _ZN78_$LT$regex_automata..util..start..StartByteMap$u20$as$u20$core..fmt..Debug$GT$3fmt17h6627e595e6d56758E 00000001400228a0 f   libregex_automata-464fc35d41c3d390:regex_automata-464fc35d41c3d390.regex_automata.ab23a1c50add178-cgu.15.rcgu.o
 0001:00021a60       _ZN76_$LT$regex_automata..util..alphabet..ByteSet$u20$as$u20$core..fmt..Debug$GT$3fmt17h95709d4e0858bd3eE 0000000140022a60 f   libregex_automata-464fc35d41c3d390:regex_automata-464fc35d41c3d390.regex_automata.ab23a1c50add178-cgu.15.rcgu.o
 0001:00021ab0       _ZN69_$LT$regex_automata..util..look..Look$u20$as$u20$core..fmt..Debug$GT$3fmt17hd8ccd261c44fc2f0E 0000000140022ab0 f   libregex_automata-464fc35d41c3d390:regex_automata-464fc35d41c3d390.regex_automata.ab23a1c50add178-cgu.15.rcgu.o
 0001:00021cc0       _ZN71_$LT$regex_automata..util..start..Start$u20$as$u20$core..fmt..Debug$GT$3fmt17h4887c263e8a7e089E 0000000140022cc0 f   libregex_automata-464fc35d41c3d390:regex_automata-464fc35d41c3d390.regex_automata.ab23a1c50add178-cgu.15.rcgu.o
 0001:00021cf0       _ZN42_$LT$$RF$T$u20$as$u20$core..fmt..Debug$GT$3fmt17hda89bb2e5776f2f0E 0000000140022cf0 f   libregex_automata-464fc35d41c3d390:regex_automata-464fc35d41c3d390.regex_automata.ab23a1c50add178-cgu.05.rcgu.o
 0001:00021d40       _ZN4core3ptr122drop_in_place$LT$alloc..vec..Vec$LT$alloc..vec..Vec$LT$core..option..Option$LT$alloc..sync..Arc$LT$str$GT$$GT$$GT$$GT$$GT$17h4866dc560eecb5a9E.llvm.12241314740873085142 0000000140022d40 f   libregex_automata-464fc35d41c3d390:regex_automata-464fc35d41c3d390.regex_automata.ab23a1c50add178-cgu.05.rcgu.o
 0001:00021de0       _ZN4core3ptr162drop_in_place$LT$alloc..vec..Vec$LT$std..collections..hash..map..HashMap$LT$alloc..sync..Arc$LT$str$GT$$C$regex_automata..util..primitives..SmallIndex$GT$$GT$$GT$17h444769eea0b4cd70E.llvm.12241314740873085142 0000000140022de0 f   libregex_automata-464fc35d41c3d390:regex_automata-464fc35d41c3d390.regex_automata.ab23a1c50add178-cgu.05.rcgu.o
 0001:00021f00       _ZN4core3ptr62drop_in_place$LT$regex_automata..util..captures..GroupInfo$GT$17ha03a3dfac0759c59E.llvm.12241314740873085142 0000000140022f00 f   libregex_automata-464fc35d41c3d390:regex_automata-464fc35d41c3d390.regex_automata.ab23a1c50add178-cgu.05.rcgu.o
 0001:000220b0       _ZN4core3ptr76drop_in_place$LT$core..option..Option$LT$alloc..sync..Arc$LT$str$GT$$GT$$GT$17h1d0962a0bd84729dE.llvm.16234871685531041024 00000001400230b0 f   libregex_automata-464fc35d41c3d390:regex_automata-464fc35d41c3d390.regex_automata.ab23a1c50add178-cgu.01.rcgu.o
 0001:00022210       _ZN79_$LT$alloc..vec..drain..Drain$LT$T$C$A$GT$$u20$as$u20$core..ops..drop..Drop$GT$4drop17h6ce65334dfa3b637E 0000000140023210 f   libregex_automata-464fc35d41c3d390:regex_automata-464fc35d41c3d390.regex_automata.ab23a1c50add178-cgu.05.rcgu.o
 0001:000222c0       _ZN79_$LT$alloc..vec..drain..Drain$LT$T$C$A$GT$$u20$as$u20$core..ops..drop..Drop$GT$4drop17hb865e86e60ae5eecE 00000001400232c0 f   libregex_automata-464fc35d41c3d390:regex_automata-464fc35d41c3d390.regex_automata.ab23a1c50add178-cgu.05.rcgu.o
 0001:00022390       _ZN9hashbrown3map28HashMap$LT$K$C$V$C$S$C$A$GT$6insert17h240a7621701e4ba1E 0000000140023390 f   libregex_automata-464fc35d41c3d390:regex_automata-464fc35d41c3d390.regex_automata.ab23a1c50add178-cgu.05.rcgu.o
 0001:00022860       _ZN14regex_automata4util8captures8Captures17get_group_by_name17h38557fb8b77230a6E 0000000140023860 f   libregex_automata-464fc35d41c3d390:regex_automata-464fc35d41c3d390.regex_automata.ab23a1c50add178-cgu.05.rcgu.o
 0001:00022aa0       _ZN14regex_automata4util8captures8Captures10group_info17h496fd77518df7805E 0000000140023aa0 f   libregex_automata-464fc35d41c3d390:regex_automata-464fc35d41c3d390.regex_automata.ab23a1c50add178-cgu.05.rcgu.o
 0001:00022ab0       _ZN14regex_automata4util8captures9GroupInfo3new17h1379c386629886ddE 0000000140023ab0 f   libregex_automata-464fc35d41c3d390:regex_automata-464fc35d41c3d390.regex_automata.ab23a1c50add178-cgu.05.rcgu.o
 0001:00023530       _ZN14regex_automata4util8captures9GroupInfo3new17he97f5cf43421e5caE 0000000140024530 f   libregex_automata-464fc35d41c3d390:regex_automata-464fc35d41c3d390.regex_automata.ab23a1c50add178-cgu.05.rcgu.o
 0001:00023890       _ZN14regex_automata4util8captures14GroupInfoInner15add_first_group17h56377ed8a6a71efeE 0000000140024890 f   libregex_automata-464fc35d41c3d390:regex_automata-464fc35d41c3d390.regex_automata.ab23a1c50add178-cgu.05.rcgu.o
 0001:00024100       _ZN14regex_automata4util8captures14GroupInfoInner17fixup_slot_ranges17h5210ff86f5223de1E 0000000140025100 f   libregex_automata-464fc35d41c3d390:regex_automata-464fc35d41c3d390.regex_automata.ab23a1c50add178-cgu.05.rcgu.o
 0001:00024270       _ZN12aho_corasick6packed7pattern8Patterns3len17h2de396ab75b1572fE 0000000140025270 f   libaho_corasick-b4d6ea81f1a61526:aho_corasick-b4d6ea81f1a61526.aho_corasick.7f4fbca99e96e6a8-cgu.14.rcgu.o
 0001:00024270       _ZN14regex_automata4util8captures14GroupInfoInner11pattern_len17hf6eb78d8e9a1dee4E 0000000140025270 f   libregex_automata-464fc35d41c3d390:regex_automata-464fc35d41c3d390.regex_automata.ab23a1c50add178-cgu.05.rcgu.o
 0001:00024280       _ZN14regex_automata4util8captures14GroupInfoInner9group_len17hf72c025cf62ed107E 0000000140025280 f   libregex_automata-464fc35d41c3d390:regex_automata-464fc35d41c3d390.regex_automata.ab23a1c50add178-cgu.05.rcgu.o
 0001:000242a0       _ZN78_$LT$regex_automata..hybrid..error..CacheError$u20$as$u20$core..fmt..Debug$GT$3fmt17hc2802297ccfd021aE 00000001400252a0 f   libregex_automata-464fc35d41c3d390:regex_automata-464fc35d41c3d390.regex_automata.ab23a1c50add178-cgu.05.rcgu.o
 0001:000242e0       _ZN83_$LT$regex_automata..util..captures..GroupInfoError$u20$as$u20$core..fmt..Debug$GT$3fmt17h57c1ade276bbda32E 00000001400252e0 f   libregex_automata-464fc35d41c3d390:regex_automata-464fc35d41c3d390.regex_automata.ab23a1c50add178-cgu.05.rcgu.o
 0001:00024330       _ZN87_$LT$regex_automata..util..captures..GroupInfoErrorKind$u20$as$u20$core..fmt..Debug$GT$3fmt17h3ebf0ea2f84d4552E 0000000140025330 f   libregex_automata-464fc35d41c3d390:regex_automata-464fc35d41c3d390.regex_automata.ab23a1c50add178-cgu.05.rcgu.o
 0001:00024500       _ZN42_$LT$$RF$T$u20$as$u20$core..fmt..Debug$GT$3fmt17h00ad473655989755E 0000000140025500 f   libregex_automata-464fc35d41c3d390:regex_automata-464fc35d41c3d390.regex_automata.ab23a1c50add178-cgu.07.rcgu.o
 0001:00024540       _ZN42_$LT$$RF$T$u20$as$u20$core..fmt..Debug$GT$3fmt17hf997aeb9a11cbe9fE 0000000140025540 f   libregex_automata-464fc35d41c3d390:regex_automata-464fc35d41c3d390.regex_automata.ab23a1c50add178-cgu.07.rcgu.o
 0001:000245c0       _ZN4core3ptr101drop_in_place$LT$alloc..vec..Vec$LT$$LP$usize$C$aho_corasick..util..primitives..PatternID$RP$$GT$$GT$17h1ee309376f4beff6E.llvm.4770241040802308457 00000001400255c0 f   libaho_corasick-b4d6ea81f1a61526:aho_corasick-b4d6ea81f1a61526.aho_corasick.7f4fbca99e96e6a8-cgu.11.rcgu.o
 0001:000245c0       _ZN4core3ptr106drop_in_place$LT$alloc..raw_vec..RawVec$LT$core..option..Option$LT$alloc..sync..Arc$LT$str$GT$$GT$$GT$$GT$17hd9a44618f70d0223E.llvm.16234871685531041024 00000001400255c0 f   libregex_automata-464fc35d41c3d390:regex_automata-464fc35d41c3d390.regex_automata.ab23a1c50add178-cgu.01.rcgu.o
 0001:000245c0       _ZN4core3ptr106drop_in_place$LT$alloc..raw_vec..RawVec$LT$core..option..Option$LT$alloc..sync..Arc$LT$str$GT$$GT$$GT$$GT$17hd9a44618f70d0223E.llvm.9692425724856445687 00000001400255c0 f   libregex_automata-464fc35d41c3d390:regex_automata-464fc35d41c3d390.regex_automata.ab23a1c50add178-cgu.07.rcgu.o
 0001:000245c0       _ZN4core3ptr51drop_in_place$LT$alloc..vec..Vec$LT$$RF$str$GT$$GT$17h9c2480f888f04da2E.llvm.15044376156511133067 00000001400255c0 f   libgoblin-8ee2c552e4c10df6:goblin-8ee2c552e4c10df6.goblin.f087800e97e1b550-cgu.05.rcgu.o
 0001:000245c0       _ZN4core3ptr51drop_in_place$LT$alloc..vec..Vec$LT$$RF$str$GT$$GT$17h9c2480f888f04da2E.llvm.16915357137256471907 00000001400255c0 f   libgoblin-8ee2c552e4c10df6:goblin-8ee2c552e4c10df6.goblin.f087800e97e1b550-cgu.13.rcgu.o
 0001:000245c0       _ZN4core3ptr72drop_in_place$LT$alloc..raw_vec..RawVec$LT$$LP$usize$C$usize$RP$$GT$$GT$17h8e376fdb190afdeaE.llvm.9692425724856445687 00000001400255c0 f   libregex_automata-464fc35d41c3d390:regex_automata-464fc35d41c3d390.regex_automata.ab23a1c50add178-cgu.07.rcgu.o
 0001:000245c0       _ZN4core3ptr73drop_in_place$LT$alloc..raw_vec..RawVec$LT$regex_syntax..ast..Ast$GT$$GT$17h37814fe1fed32286E.llvm.8454077967597911764 00000001400255c0 f   libregex_syntax-1a078ef20d4d7dee:regex_syntax-1a078ef20d4d7dee.regex_syntax.936f5d3813beee8b-cgu.08.rcgu.o
 0001:000245e0       _ZN4core3ptr122drop_in_place$LT$alloc..vec..Vec$LT$alloc..vec..Vec$LT$core..option..Option$LT$alloc..sync..Arc$LT$str$GT$$GT$$GT$$GT$$GT$17h4866dc560eecb5a9E.llvm.1376675858812116721 00000001400255e0 f   libregex_automata-464fc35d41c3d390:regex_automata-464fc35d41c3d390.regex_automata.ab23a1c50add178-cgu.12.rcgu.o
 0001:000245e0       _ZN4core3ptr122drop_in_place$LT$alloc..vec..Vec$LT$alloc..vec..Vec$LT$core..option..Option$LT$alloc..sync..Arc$LT$str$GT$$GT$$GT$$GT$$GT$17h4866dc560eecb5a9E.llvm.9692425724856445687 00000001400255e0 f   libregex_automata-464fc35d41c3d390:regex_automata-464fc35d41c3d390.regex_automata.ab23a1c50add178-cgu.07.rcgu.o
 0001:00024650       _ZN4core3ptr129drop_in_place$LT$alloc..raw_vec..RawVec$LT$alloc..vec..Vec$LT$core..option..Option$LT$alloc..sync..Arc$LT$str$GT$$GT$$GT$$GT$$GT$17h24d09a53ea367f7fE.llvm.1376675858812116721 0000000140025650 f   libregex_automata-464fc35d41c3d390:regex_automata-464fc35d41c3d390.regex_automata.ab23a1c50add178-cgu.12.rcgu.o
 0001:00024650       _ZN4core3ptr129drop_in_place$LT$alloc..raw_vec..RawVec$LT$alloc..vec..Vec$LT$core..option..Option$LT$alloc..sync..Arc$LT$str$GT$$GT$$GT$$GT$$GT$17h24d09a53ea367f7fE.llvm.9692425724856445687 0000000140025650 f   libregex_automata-464fc35d41c3d390:regex_automata-464fc35d41c3d390.regex_automata.ab23a1c50add178-cgu.07.rcgu.o
 0001:00024650       _ZN4core3ptr95drop_in_place$LT$alloc..vec..Vec$LT$goblin..pe..certificate_table..AttributeCertificate$GT$$GT$17hb4ae413a7ae3c043E.llvm.16915357137256471907 0000000140025650 f   libgoblin-8ee2c552e4c10df6:goblin-8ee2c552e4c10df6.goblin.f087800e97e1b550-cgu.13.rcgu.o
 0001:00024650       _ZN4core3ptr99drop_in_place$LT$alloc..raw_vec..RawVec$LT$regex_automata..nfa..thompson..range_trie..State$GT$$GT$17h06d6c62332adde6aE.llvm.1376675858812116721 0000000140025650 f   libregex_automata-464fc35d41c3d390:regex_automata-464fc35d41c3d390.regex_automata.ab23a1c50add178-cgu.12.rcgu.o
 0001:00024720       _ZN4core3ptr66drop_in_place$LT$regex_automata..nfa..thompson..builder..State$GT$17hcb6ecea61a4291eeE.llvm.9692425724856445687 0000000140025720 f   libregex_automata-464fc35d41c3d390:regex_automata-464fc35d41c3d390.regex_automata.ab23a1c50add178-cgu.07.rcgu.o
 0001:000247c0       _ZN4core3ptr71drop_in_place$LT$regex_automata..nfa..thompson..literal_trie..State$GT$17h59fa36f1a1111c07E.llvm.9692425724856445687 00000001400257c0 f   libregex_automata-464fc35d41c3d390:regex_automata-464fc35d41c3d390.regex_automata.ab23a1c50add178-cgu.07.rcgu.o
 0001:00024a50       _ZN4core3ptr99drop_in_place$LT$alloc..vec..Vec$LT$core..option..Option$LT$alloc..sync..Arc$LT$str$GT$$GT$$GT$$GT$17h27981d1fef76ade1E.llvm.9692425724856445687 0000000140025a50 f   libregex_automata-464fc35d41c3d390:regex_automata-464fc35d41c3d390.regex_automata.ab23a1c50add178-cgu.07.rcgu.o
 0001:00024b80       _ZN14regex_automata3nfa8thompson7builder7Builder5clear17h7c24e4dd9e8643a0E 0000000140025b80 f   libregex_automata-464fc35d41c3d390:regex_automata-464fc35d41c3d390.regex_automata.ab23a1c50add178-cgu.07.rcgu.o
 0001:00024dd0       _ZN14regex_automata3nfa8thompson7builder7Builder5build17h2ac0022274714a66E 0000000140025dd0 f   libregex_automata-464fc35d41c3d390:regex_automata-464fc35d41c3d390.regex_automata.ab23a1c50add178-cgu.07.rcgu.o
 0001:000264e0       _ZN14regex_automata3nfa8thompson7builder7Builder17add_capture_start17hd18929d4a1546022E 00000001400274e0 f   libregex_automata-464fc35d41c3d390:regex_automata-464fc35d41c3d390.regex_automata.ab23a1c50add178-cgu.07.rcgu.o
 0001:000268c0       _ZN14regex_automata3nfa8thompson7builder7Builder3add17h97064b2b7490bf76E.llvm.9692425724856445687 00000001400278c0 f   libregex_automata-464fc35d41c3d390:regex_automata-464fc35d41c3d390.regex_automata.ab23a1c50add178-cgu.07.rcgu.o
 0001:00026a40       _ZN14regex_automata3nfa8thompson7builder7Builder5patch17hdfe3658d868889f8E 0000000140027a40 f   libregex_automata-464fc35d41c3d390:regex_automata-464fc35d41c3d390.regex_automata.ab23a1c50add178-cgu.07.rcgu.o
 0001:00026b50       _ZN14regex_automata3nfa8thompson12literal_trie11LiteralTrie3add17ha0ce1b4b2a136022E 0000000140027b50 f   libregex_automata-464fc35d41c3d390:regex_automata-464fc35d41c3d390.regex_automata.ab23a1c50add178-cgu.07.rcgu.o
 0001:00026f30       _ZN14regex_automata3nfa8thompson12literal_trie11LiteralTrie7compile17h2df813a7861546d9E 0000000140027f30 f   libregex_automata-464fc35d41c3d390:regex_automata-464fc35d41c3d390.regex_automata.ab23a1c50add178-cgu.07.rcgu.o
 0001:00027ac0       _ZN71_$LT$regex_automata..util..search..Span$u20$as$u20$core..fmt..Debug$GT$3fmt17h3a5bc294bc10d145E 0000000140028ac0 f   libregex_automata-464fc35d41c3d390:regex_automata-464fc35d41c3d390.regex_automata.ab23a1c50add178-cgu.07.rcgu.o
 0001:00027b30       _ZN14regex_automata4util6search10MatchError4quit17hed9287106de91bedE 0000000140028b30 f   libregex_automata-464fc35d41c3d390:regex_automata-464fc35d41c3d390.regex_automata.ab23a1c50add178-cgu.07.rcgu.o
 0001:00027b80       _ZN14regex_automata4util6search10MatchError7gave_up17hf73e9cc5a5817d48E 0000000140028b80 f   libregex_automata-464fc35d41c3d390:regex_automata-464fc35d41c3d390.regex_automata.ab23a1c50add178-cgu.07.rcgu.o
 0001:00027bd0       _ZN14regex_automata4util6search10MatchError20unsupported_anchored17hd326451a8b31a15cE 0000000140028bd0 f   libregex_automata-464fc35d41c3d390:regex_automata-464fc35d41c3d390.regex_automata.ab23a1c50add178-cgu.07.rcgu.o
 0001:00027c20       _ZN79_$LT$regex_automata..util..search..MatchError$u20$as$u20$core..fmt..Display$GT$3fmt17h9b87166c9af90833E 0000000140028c20 f   libregex_automata-464fc35d41c3d390:regex_automata-464fc35d41c3d390.regex_automata.ab23a1c50add178-cgu.07.rcgu.o
 0001:00027dc0       _ZN88_$LT$regex_automata..util..search..PatternSetInsertError$u20$as$u20$core..fmt..Debug$GT$3fmt17h5d6ecfd61d3e9c65E 0000000140028dc0 f   libregex_automata-464fc35d41c3d390:regex_automata-464fc35d41c3d390.regex_automata.ab23a1c50add178-cgu.07.rcgu.o
 0001:00027e40       _ZN77_$LT$regex_automata..util..search..MatchError$u20$as$u20$core..fmt..Debug$GT$3fmt17h6fdd3394f9f0e6f7E 0000000140028e40 f   libregex_automata-464fc35d41c3d390:regex_automata-464fc35d41c3d390.regex_automata.ab23a1c50add178-cgu.07.rcgu.o
 0001:00027e80       _ZN81_$LT$regex_automata..util..search..MatchErrorKind$u20$as$u20$core..fmt..Debug$GT$3fmt17hdd5aa967a806b65bE 0000000140028e80 f   libregex_automata-464fc35d41c3d390:regex_automata-464fc35d41c3d390.regex_automata.ab23a1c50add178-cgu.07.rcgu.o
 0001:000283d0       _ZN4core3ptr124drop_in_place$LT$alloc..vec..Vec$LT$alloc..vec..Vec$LT$$LP$usize$C$aho_corasick..util..primitives..PatternID$RP$$GT$$GT$$GT$17h36c5a5fd27d99428E.llvm.4770241040802308457 00000001400293d0 f   libaho_corasick-b4d6ea81f1a61526:aho_corasick-b4d6ea81f1a61526.aho_corasick.7f4fbca99e96e6a8-cgu.11.rcgu.o
 0001:00029c80       _ZN4core3ptr98drop_in_place$LT$core..cell..RefCell$LT$regex_automata..nfa..thompson..compiler..Utf8State$GT$$GT$17h7947366f6fa88781E.llvm.1376675858812116721 000000014002ac80 f   libregex_automata-464fc35d41c3d390:regex_automata-464fc35d41c3d390.regex_automata.ab23a1c50add178-cgu.12.rcgu.o
 0001:00029d60       _ZN14regex_automata4meta8strategy3new17had661bba45e7f354E 000000014002ad60 f   libregex_automata-464fc35d41c3d390:regex_automata-464fc35d41c3d390.regex_automata.ab23a1c50add178-cgu.02.rcgu.o
 0001:0002d930       _ZN12regex_syntax3hir3Hir4kind17h03afc697d57607beE 000000014002e930 f   libregex_syntax-1a078ef20d4d7dee:regex_syntax-1a078ef20d4d7dee.regex_syntax.936f5d3813beee8b-cgu.01.rcgu.o
 0001:0002dd60       _ZN111_$LT$regex_automata..util..prefilter..memchr..Memchr$u20$as$u20$regex_automata..util..prefilter..PrefilterI$GT$12memory_usage17h7c850d77bb6f93a2E 000000014002ed60 f   libregex_automata-464fc35d41c3d390:regex_automata-464fc35d41c3d390.regex_automata.ab23a1c50add178-cgu.03.rcgu.o
 0001:0002dd60       _ZN112_$LT$regex_automata..util..prefilter..memchr..Memchr2$u20$as$u20$regex_automata..util..prefilter..PrefilterI$GT$12memory_usage17hf632c5171fb75e04E 000000014002ed60 f   libregex_automata-464fc35d41c3d390:regex_automata-464fc35d41c3d390.regex_automata.ab23a1c50add178-cgu.03.rcgu.o
 0001:0002dd60       _ZN112_$LT$regex_automata..util..prefilter..memchr..Memchr3$u20$as$u20$regex_automata..util..prefilter..PrefilterI$GT$12memory_usage17hf6803ce608ce7b0dE 000000014002ed60 f   libregex_automata-464fc35d41c3d390:regex_automata-464fc35d41c3d390.regex_automata.ab23a1c50add178-cgu.03.rcgu.o
 0001:0002dd60       _ZN113_$LT$regex_automata..util..prefilter..byteset..ByteSet$u20$as$u20$regex_automata..util..prefilter..PrefilterI$GT$12memory_usage17hac27d670cd613e0fE 000000014002ed60 f   libregex_automata-464fc35d41c3d390:regex_automata-464fc35d41c3d390.regex_automata.ab23a1c50add178-cgu.03.rcgu.o
 0001:0002dd60       _ZN113_$LT$regex_automata..util..prefilter..byteset..ByteSet$u20$as$u20$regex_automata..util..prefilter..PrefilterI$GT$7is_fast17h3d48942afd43f283E 000000014002ed60 f   libregex_automata-464fc35d41c3d390:regex_automata-464fc35d41c3d390.regex_automata.ab23a1c50add178-cgu.03.rcgu.o
 0001:0002dd60       _ZN122_$LT$regex_automata..util..prefilter..aho_corasick..AhoCorasick$u20$as$u20$regex_automata..util..prefilter..PrefilterI$GT$7is_fast17h6d30b5125d295fa0E 000000014002ed60 f   libregex_automata-464fc35d41c3d390:regex_automata-464fc35d41c3d390.regex_automata.ab23a1c50add178-cgu.11.rcgu.o
 0001:0002dd60       _ZN43_$LT$log..NopLogger$u20$as$u20$log..Log$GT$7enabled17hc3b5145b3325bec0E 000000014002ed60 f   liblog-93adfd4aa7258f97:log-93adfd4aa7258f97.log.f6d58276e227d0ee-cgu.0.rcgu.o
 0001:0002dd80       _ZN108_$LT$regex_automata..meta..strategy..ReverseAnchored$u20$as$u20$regex_automata..meta..strategy..Strategy$GT$14is_accelerated17h15aca86dcf58596dE 000000014002ed80 f   libregex_automata-464fc35d41c3d390:regex_automata-464fc35d41c3d390.regex_automata.ab23a1c50add178-cgu.02.rcgu.o
 0001:0002dd80       _ZN111_$LT$regex_automata..util..prefilter..memchr..Memchr$u20$as$u20$regex_automata..util..prefilter..PrefilterI$GT$7is_fast17h17235cbfcb086cc2E 000000014002ed80 f   libregex_automata-464fc35d41c3d390:regex_automata-464fc35d41c3d390.regex_automata.ab23a1c50add178-cgu.03.rcgu.o
 0001:0002dd80       _ZN111_$LT$regex_automata..util..prefilter..memmem..Memmem$u20$as$u20$regex_automata..util..prefilter..PrefilterI$GT$7is_fast17ha5325167b12a45efE 000000014002ed80 f   libregex_automata-464fc35d41c3d390:regex_automata-464fc35d41c3d390.regex_automata.ab23a1c50add178-cgu.03.rcgu.o
 0001:0002dd80       _ZN112_$LT$regex_automata..util..prefilter..memchr..Memchr2$u20$as$u20$regex_automata..util..prefilter..PrefilterI$GT$7is_fast17h943cce35a5afb164E 000000014002ed80 f   libregex_automata-464fc35d41c3d390:regex_automata-464fc35d41c3d390.regex_automata.ab23a1c50add178-cgu.03.rcgu.o
 0001:0002dd80       _ZN112_$LT$regex_automata..util..prefilter..memchr..Memchr3$u20$as$u20$regex_automata..util..prefilter..PrefilterI$GT$7is_fast17hddc4a1ee206dda0aE 000000014002ed80 f   libregex_automata-464fc35d41c3d390:regex_automata-464fc35d41c3d390.regex_automata.ab23a1c50add178-cgu.03.rcgu.o
 0001:0002dd80       _ZN6memchr6memmem13FinderBuilder3new17hadfb4f62f372e3abE 000000014002ed80 f   libmemchr-b8eb2490671cc383:memchr-b8eb2490671cc383.memchr.604f8ec62383ffd8-cgu.2.rcgu.o
 0001:0002dd90       _ZN111_$LT$regex_automata..util..prefilter..memmem..Memmem$u20$as$u20$regex_automata..util..prefilter..PrefilterI$GT$12memory_usage17h407692424a596aabE 000000014002ed90 f   libregex_automata-464fc35d41c3d390:regex_automata-464fc35d41c3d390.regex_automata.ab23a1c50add178-cgu.03.rcgu.o
 0001:000302d0       _ZN14regex_automata4meta8strategy4Core13search_nofail17h27652c9a49d52e88E 00000001400312d0 f   libregex_automata-464fc35d41c3d390:regex_automata-464fc35d41c3d390.regex_automata.ab23a1c50add178-cgu.02.rcgu.o
 0001:00030950       _ZN14regex_automata4meta8strategy4Core19search_slots_nofail17h44436844d0161b59E 0000000140031950 f   libregex_automata-464fc35d41c3d390:regex_automata-464fc35d41c3d390.regex_automata.ab23a1c50add178-cgu.02.rcgu.o
 0001:00030e80       _ZN14regex_automata4meta8strategy4Core15is_match_nofail17h760a03f4ca216afeE 0000000140031e80 f   libregex_automata-464fc35d41c3d390:regex_automata-464fc35d41c3d390.regex_automata.ab23a1c50add178-cgu.02.rcgu.o
 0001:000317d0       _ZN97_$LT$regex_automata..meta..strategy..Core$u20$as$u20$regex_automata..meta..strategy..Strategy$GT$14is_accelerated17h31602c01943983c2E 00000001400327d0 f   libregex_automata-464fc35d41c3d390:regex_automata-464fc35d41c3d390.regex_automata.ab23a1c50add178-cgu.02.rcgu.o
 0001:000317e0       _ZN97_$LT$regex_automata..meta..strategy..Core$u20$as$u20$regex_automata..meta..strategy..Strategy$GT$12memory_usage17h5b8675c14fc5cb64E 00000001400327e0 f   libregex_automata-464fc35d41c3d390:regex_automata-464fc35d41c3d390.regex_automata.ab23a1c50add178-cgu.02.rcgu.o
 0001:00032ea0       _ZN108_$LT$regex_automata..meta..strategy..ReverseAnchored$u20$as$u20$regex_automata..meta..strategy..Strategy$GT$12memory_usage17h7fc87064894b0216E 0000000140033ea0 f   libregex_automata-464fc35d41c3d390:regex_automata-464fc35d41c3d390.regex_automata.ab23a1c50add178-cgu.02.rcgu.o
 0001:00034a80       _ZN106_$LT$regex_automata..meta..strategy..ReverseSuffix$u20$as$u20$regex_automata..meta..strategy..Strategy$GT$14is_accelerated17h42aeddbec0cbafbcE 0000000140035a80 f   libregex_automata-464fc35d41c3d390:regex_automata-464fc35d41c3d390.regex_automata.ab23a1c50add178-cgu.02.rcgu.o
 0001:00034a90       _ZN106_$LT$regex_automata..meta..strategy..ReverseSuffix$u20$as$u20$regex_automata..meta..strategy..Strategy$GT$12memory_usage17hcf782f550242cc4bE 0000000140035a90 f   libregex_automata-464fc35d41c3d390:regex_automata-464fc35d41c3d390.regex_automata.ab23a1c50add178-cgu.02.rcgu.o
 0001:000385f0       _ZN105_$LT$regex_automata..meta..strategy..ReverseInner$u20$as$u20$regex_automata..meta..strategy..Strategy$GT$14is_accelerated17h8775ed7f44a14676E 00000001400395f0 f   libregex_automata-464fc35d41c3d390:regex_automata-464fc35d41c3d390.regex_automata.ab23a1c50add178-cgu.02.rcgu.o
 0001:00038600       _ZN105_$LT$regex_automata..meta..strategy..ReverseInner$u20$as$u20$regex_automata..meta..strategy..Strategy$GT$12memory_usage17hcde8049b29af845bE 0000000140039600 f   libregex_automata-464fc35d41c3d390:regex_automata-464fc35d41c3d390.regex_automata.ab23a1c50add178-cgu.02.rcgu.o
 0001:0003cde0       _ZN73_$LT$regex_automata..meta..strategy..Core$u20$as$u20$core..fmt..Debug$GT$3fmt17hab194172e6c5cd0bE 000000014003dde0 f   libregex_automata-464fc35d41c3d390:regex_automata-464fc35d41c3d390.regex_automata.ab23a1c50add178-cgu.02.rcgu.o
 0001:0003cf30       _ZN84_$LT$regex_automata..meta..strategy..ReverseAnchored$u20$as$u20$core..fmt..Debug$GT$3fmt17he8b7df1a1a88ae52E 000000014003df30 f   libregex_automata-464fc35d41c3d390:regex_automata-464fc35d41c3d390.regex_automata.ab23a1c50add178-cgu.02.rcgu.o
 0001:0003cf80       _ZN82_$LT$regex_automata..meta..strategy..ReverseSuffix$u20$as$u20$core..fmt..Debug$GT$3fmt17he9a23af635953d45E 000000014003df80 f   libregex_automata-464fc35d41c3d390:regex_automata-464fc35d41c3d390.regex_automata.ab23a1c50add178-cgu.02.rcgu.o
 0001:0003d000       _ZN81_$LT$regex_automata..meta..strategy..ReverseInner$u20$as$u20$core..fmt..Debug$GT$3fmt17hda2c4f6d62de052cE 000000014003e000 f   libregex_automata-464fc35d41c3d390:regex_automata-464fc35d41c3d390.regex_automata.ab23a1c50add178-cgu.02.rcgu.o
 0001:0003d1b0       _ZN42_$LT$$RF$T$u20$as$u20$core..fmt..Debug$GT$3fmt17h1c2780227c90da68E 000000014003e1b0 f   libregex_automata-464fc35d41c3d390:regex_automata-464fc35d41c3d390.regex_automata.ab23a1c50add178-cgu.04.rcgu.o
 0001:0003d1f0       _ZN42_$LT$$RF$T$u20$as$u20$core..fmt..Debug$GT$3fmt17h2c06f8503dea1fd7E 000000014003e1f0 f   libregex_automata-464fc35d41c3d390:regex_automata-464fc35d41c3d390.regex_automata.ab23a1c50add178-cgu.04.rcgu.o
 0001:0003d230       _ZN42_$LT$$RF$T$u20$as$u20$core..fmt..Debug$GT$3fmt17h3b10260c939a6674E 000000014003e230 f   libregex_automata-464fc35d41c3d390:regex_automata-464fc35d41c3d390.regex_automata.ab23a1c50add178-cgu.04.rcgu.o
 0001:0003d270       _ZN42_$LT$$RF$T$u20$as$u20$core..fmt..Debug$GT$3fmt17h48ad584901d3e805E 000000014003e270 f   libregex_automata-464fc35d41c3d390:regex_automata-464fc35d41c3d390.regex_automata.ab23a1c50add178-cgu.04.rcgu.o
 0001:0003d2b0       _ZN42_$LT$$RF$T$u20$as$u20$core..fmt..Debug$GT$3fmt17h859c7c69931b30f6E 000000014003e2b0 f   libregex_automata-464fc35d41c3d390:regex_automata-464fc35d41c3d390.regex_automata.ab23a1c50add178-cgu.04.rcgu.o
 0001:0003d2f0       _ZN42_$LT$$RF$T$u20$as$u20$core..fmt..Debug$GT$3fmt17h9832a6615d360fcdE 000000014003e2f0 f   libregex_automata-464fc35d41c3d390:regex_automata-464fc35d41c3d390.regex_automata.ab23a1c50add178-cgu.04.rcgu.o
 0001:0003d330       _ZN42_$LT$$RF$T$u20$as$u20$core..fmt..Debug$GT$3fmt17hc01cb518389091beE 000000014003e330 f   libregex_automata-464fc35d41c3d390:regex_automata-464fc35d41c3d390.regex_automata.ab23a1c50add178-cgu.04.rcgu.o
 0001:0003d3b0       _ZN42_$LT$$RF$T$u20$as$u20$core..fmt..Debug$GT$3fmt17hf06f76afc9bb5662E 000000014003e3b0 f   libregex_automata-464fc35d41c3d390:regex_automata-464fc35d41c3d390.regex_automata.ab23a1c50add178-cgu.04.rcgu.o
 0001:0003d480       _ZN4core3ptr108drop_in_place$LT$core..cell..RefMut$LT$alloc..vec..Vec$LT$regex_syntax..hir..translate..HirFrame$GT$$GT$$GT$17h127c350826509bacE.llvm.1213798052808953091 000000014003e480 f   libregex_syntax-1a078ef20d4d7dee:regex_syntax-1a078ef20d4d7dee.regex_syntax.936f5d3813beee8b-cgu.05.rcgu.o
 0001:0003d550       _ZN4core3ptr56drop_in_place$LT$regex_automata..hybrid..dfa..Config$GT$17hd5b03feea1f074cdE.llvm.8640288705726485972 000000014003e550 f   libregex_automata-464fc35d41c3d390:regex_automata-464fc35d41c3d390.regex_automata.ab23a1c50add178-cgu.06.rcgu.o
 0001:0003da50       _ZN4core3ptr73drop_in_place$LT$regex_automata..nfa..thompson..range_trie..RangeTrie$GT$17ha43970505e89a558E.llvm.13069747341390513184 000000014003ea50 f   libregex_automata-464fc35d41c3d390:regex_automata-464fc35d41c3d390.regex_automata.ab23a1c50add178-cgu.04.rcgu.o
 0001:0003dd50       _ZN4core3ptr97drop_in_place$LT$alloc..vec..Vec$LT$regex_automata..nfa..thompson..range_trie..NextInsert$GT$$GT$17h206f59ba04d576ccE.llvm.13069747341390513184 000000014003ed50 f   libregex_automata-464fc35d41c3d390:regex_automata-464fc35d41c3d390.regex_automata.ab23a1c50add178-cgu.04.rcgu.o
 0001:0003dd70       _ZN14regex_automata4meta8wrappers6PikeVM3new17hb8ecf87f37e96c53E 000000014003ed70 f   libregex_automata-464fc35d41c3d390:regex_automata-464fc35d41c3d390.regex_automata.ab23a1c50add178-cgu.04.rcgu.o
 0001:0003e200       _ZN14regex_automata4meta8wrappers18BoundedBacktracker3new17h8122fb8476a00d3bE 000000014003f200 f   libregex_automata-464fc35d41c3d390:regex_automata-464fc35d41c3d390.regex_automata.ab23a1c50add178-cgu.04.rcgu.o
 0001:0003e6f0       _ZN14regex_automata4meta8wrappers7OnePass3new17h2ba70c356c8d4d1fE 000000014003f6f0 f   libregex_automata-464fc35d41c3d390:regex_automata-464fc35d41c3d390.regex_automata.ab23a1c50add178-cgu.04.rcgu.o
 0001:0003e990       _ZN14regex_automata4meta8wrappers7OnePass12create_cache17h002fab3434d8892eE 000000014003f990 f   libregex_automata-464fc35d41c3d390:regex_automata-464fc35d41c3d390.regex_automata.ab23a1c50add178-cgu.04.rcgu.o
 0001:0003eaf0       _ZN14regex_automata4meta8wrappers12OnePassCache5reset17h224ee8baad2b3713E 000000014003faf0 f   libregex_automata-464fc35d41c3d390:regex_automata-464fc35d41c3d390.regex_automata.ab23a1c50add178-cgu.04.rcgu.o
 0001:0003ec10       _ZN14regex_automata4meta8wrappers6Hybrid3new17h4de17470f97c7ea6E 000000014003fc10 f   libregex_automata-464fc35d41c3d390:regex_automata-464fc35d41c3d390.regex_automata.ab23a1c50add178-cgu.04.rcgu.o
 0001:0003ff90       _ZN14regex_automata4meta8wrappers13ReverseHybrid3new17h23ce5025041a4027E 0000000140040f90 f   libregex_automata-464fc35d41c3d390:regex_automata-464fc35d41c3d390.regex_automata.ab23a1c50add178-cgu.04.rcgu.o
 0001:000404c0       _ZN14regex_automata3nfa8thompson9backtrack18BoundedBacktracker20try_search_slots_imp17hf04b2fcab1a0c39dE 00000001400414c0 f   libregex_automata-464fc35d41c3d390:regex_automata-464fc35d41c3d390.regex_automata.ab23a1c50add178-cgu.04.rcgu.o
 0001:000405b0       _ZN14regex_automata3nfa8thompson9backtrack18BoundedBacktracker10search_imp17hbea1c7268bdaedc1E 00000001400415b0 f   libregex_automata-464fc35d41c3d390:regex_automata-464fc35d41c3d390.regex_automata.ab23a1c50add178-cgu.04.rcgu.o
 0001:00044170       _ZN14regex_automata3nfa8thompson10range_trie9RangeTrie5clear17hac369508fa0b9af1E 0000000140045170 f   libregex_automata-464fc35d41c3d390:regex_automata-464fc35d41c3d390.regex_automata.ab23a1c50add178-cgu.04.rcgu.o
 0001:000442d0       _ZN14regex_automata3nfa8thompson10range_trie9RangeTrie4iter17hc571a72d4d40d43fE 00000001400452d0 f   libregex_automata-464fc35d41c3d390:regex_automata-464fc35d41c3d390.regex_automata.ab23a1c50add178-cgu.04.rcgu.o
 0001:00044620       _ZN14regex_automata3nfa8thompson10range_trie9RangeTrie6insert17hb9ef6bfd13446a09E 0000000140045620 f   libregex_automata-464fc35d41c3d390:regex_automata-464fc35d41c3d390.regex_automata.ab23a1c50add178-cgu.04.rcgu.o
 0001:00045c10       _ZN14regex_automata3nfa8thompson10range_trie9RangeTrie9add_empty17h97657c5ee1c515a1E.llvm.13069747341390513184 0000000140046c10 f   libregex_automata-464fc35d41c3d390:regex_automata-464fc35d41c3d390.regex_automata.ab23a1c50add178-cgu.04.rcgu.o
 0001:00045d80       _ZN76_$LT$regex_automata..util..escape..DebugByte$u20$as$u20$core..fmt..Debug$GT$3fmt17h7b7190303f85bd27E 0000000140046d80 f   libregex_automata-464fc35d41c3d390:regex_automata-464fc35d41c3d390.regex_automata.ab23a1c50add178-cgu.04.rcgu.o
 0001:00045fd0       _ZN75_$LT$regex_automata..meta..wrappers..PikeVM$u20$as$u20$core..fmt..Debug$GT$3fmt17hca2dbebe47e7ab7eE 0000000140046fd0 f   libregex_automata-464fc35d41c3d390:regex_automata-464fc35d41c3d390.regex_automata.ab23a1c50add178-cgu.04.rcgu.o
 0001:00046010       _ZN87_$LT$regex_automata..meta..wrappers..BoundedBacktracker$u20$as$u20$core..fmt..Debug$GT$3fmt17h4387c8a25781d645E 0000000140047010 f   libregex_automata-464fc35d41c3d390:regex_automata-464fc35d41c3d390.regex_automata.ab23a1c50add178-cgu.04.rcgu.o
 0001:00046050       _ZN76_$LT$regex_automata..meta..wrappers..OnePass$u20$as$u20$core..fmt..Debug$GT$3fmt17h6e305f7cf03457f1E 0000000140047050 f   libregex_automata-464fc35d41c3d390:regex_automata-464fc35d41c3d390.regex_automata.ab23a1c50add178-cgu.04.rcgu.o
 0001:00046090       _ZN75_$LT$regex_automata..meta..wrappers..Hybrid$u20$as$u20$core..fmt..Debug$GT$3fmt17h23346981fa1dbb34E 0000000140047090 f   libregex_automata-464fc35d41c3d390:regex_automata-464fc35d41c3d390.regex_automata.ab23a1c50add178-cgu.04.rcgu.o
 0001:000460d0       _ZN82_$LT$regex_automata..meta..wrappers..ReverseHybrid$u20$as$u20$core..fmt..Debug$GT$3fmt17h17a49c5e5fcf4b01E 00000001400470d0 f   libregex_automata-464fc35d41c3d390:regex_automata-464fc35d41c3d390.regex_automata.ab23a1c50add178-cgu.04.rcgu.o
 0001:00046110       _ZN85_$LT$regex_automata..nfa..thompson..backtrack..Config$u20$as$u20$core..fmt..Debug$GT$3fmt17hbe88ab3b88a9c590E 0000000140047110 f   libregex_automata-464fc35d41c3d390:regex_automata-464fc35d41c3d390.regex_automata.ab23a1c50add178-cgu.04.rcgu.o
 0001:00046190       _ZN42_$LT$$RF$T$u20$as$u20$core..fmt..Debug$GT$3fmt17h6f1c5f1f9c275f2fE 0000000140047190 f   libregex_automata-464fc35d41c3d390:regex_automata-464fc35d41c3d390.regex_automata.ab23a1c50add178-cgu.01.rcgu.o
 0001:00046210       _ZN4core3ptr101drop_in_place$LT$alloc..vec..drain..Drain$LT$regex_automata..nfa..thompson..range_trie..State$GT$$GT$17haa536ad5655ae523E.llvm.16234871685531041024 0000000140047210 f   libregex_automata-464fc35d41c3d390:regex_automata-464fc35d41c3d390.regex_automata.ab23a1c50add178-cgu.01.rcgu.o
 0001:00046220       _ZN4core3ptr186drop_in_place$LT$regex_automata..util..pool..inner..CacheLine$LT$std..sync..mutex..Mutex$LT$alloc..vec..Vec$LT$alloc..boxed..Box$LT$regex_automata..meta..regex..Cache$GT$$GT$$GT$$GT$$GT$17hc8c944bea95f1e6dE.llvm.16234871685531041024 0000000140047220 f   libregex_automata-464fc35d41c3d390:regex_automata-464fc35d41c3d390.regex_automata.ab23a1c50add178-cgu.01.rcgu.o
 0001:00046320       _ZN4core3ptr43drop_in_place$LT$regex_syntax..ast..Ast$GT$17hd5511f49deb7e276E.llvm.16234871685531041024 0000000140047320 f   libregex_automata-464fc35d41c3d390:regex_automata-464fc35d41c3d390.regex_automata.ab23a1c50add178-cgu.01.rcgu.o
 0001:00046790       _ZN4core3ptr43drop_in_place$LT$regex_syntax..hir..Hir$GT$17h312b5785a587e751E.llvm.16234871685531041024 0000000140047790 f   libregex_automata-464fc35d41c3d390:regex_automata-464fc35d41c3d390.regex_automata.ab23a1c50add178-cgu.01.rcgu.o
 0001:000468d0       _ZN4core3ptr47drop_in_place$LT$regex_syntax..hir..HirKind$GT$17hfdbcc8fa22b89074E.llvm.16234871685531041024 00000001400478d0 f   libregex_automata-464fc35d41c3d390:regex_automata-464fc35d41c3d390.regex_automata.ab23a1c50add178-cgu.01.rcgu.o
 0001:00046c30       _ZN4core3ptr48drop_in_place$LT$regex_syntax..ast..ClassSet$GT$17h408a44e9c7c4f4d6E.llvm.16234871685531041024 0000000140047c30 f   libregex_automata-464fc35d41c3d390:regex_automata-464fc35d41c3d390.regex_automata.ab23a1c50add178-cgu.01.rcgu.o
 0001:00046d40       _ZN4core3ptr52drop_in_place$LT$regex_syntax..ast..ClassSetItem$GT$17hc06e6b61ff58ba68E.llvm.16234871685531041024 0000000140047d40 f   libregex_automata-464fc35d41c3d390:regex_automata-464fc35d41c3d390.regex_automata.ab23a1c50add178-cgu.01.rcgu.o
 0001:00046f60       _ZN4core3ptr54drop_in_place$LT$regex_syntax..ast..ClassBracketed$GT$17hf71c48244ff8d05dE.llvm.16234871685531041024 0000000140047f60 f   libregex_automata-464fc35d41c3d390:regex_automata-464fc35d41c3d390.regex_automata.ab23a1c50add178-cgu.01.rcgu.o
 0001:000472c0       _ZN4core3ptr56drop_in_place$LT$regex_syntax..ast..ClassSetBinaryOp$GT$17h86fdc0c7475ccc6fE.llvm.16234871685531041024 00000001400482c0 f   libregex_automata-464fc35d41c3d390:regex_automata-464fc35d41c3d390.regex_automata.ab23a1c50add178-cgu.01.rcgu.o
 0001:00047370       _ZN4core3ptr57drop_in_place$LT$regex_syntax..ast..parse..ClassState$GT$17he57b4632d21e976bE.llvm.16234871685531041024 0000000140048370 f   libregex_automata-464fc35d41c3d390:regex_automata-464fc35d41c3d390.regex_automata.ab23a1c50add178-cgu.01.rcgu.o
 0001:00047510       _ZN4core3ptr57drop_in_place$LT$regex_syntax..ast..parse..GroupState$GT$17he9d3707ad5037379E.llvm.16234871685531041024 0000000140048510 f   libregex_automata-464fc35d41c3d390:regex_automata-464fc35d41c3d390.regex_automata.ab23a1c50add178-cgu.01.rcgu.o
 0001:000477b0       _ZN4core3ptr59drop_in_place$LT$regex_syntax..hir..translate..HirFrame$GT$17hf1ed1402a21005a9E.llvm.16234871685531041024 00000001400487b0 f   libregex_automata-464fc35d41c3d390:regex_automata-464fc35d41c3d390.regex_automata.ab23a1c50add178-cgu.01.rcgu.o
 0001:00047940       _ZN4core3ptr66drop_in_place$LT$alloc..vec..Vec$LT$regex_syntax..hir..Hir$GT$$GT$17h656519ae299f1922E.llvm.16234871685531041024 0000000140048940 f   libregex_automata-464fc35d41c3d390:regex_automata-464fc35d41c3d390.regex_automata.ab23a1c50add178-cgu.01.rcgu.o
 0001:00047c50       _ZN4core3ptr73drop_in_place$LT$alloc..boxed..Box$LT$regex_syntax..ast..ClassSet$GT$$GT$17h26f06e60484feae3E.llvm.16234871685531041024 0000000140048c50 f   libregex_automata-464fc35d41c3d390:regex_automata-464fc35d41c3d390.regex_automata.ab23a1c50add178-cgu.01.rcgu.o
 0001:00047cb0       _ZN4core3ptr176drop_in_place$LT$$LT$alloc..vec..into_iter..IntoIter$LT$T$C$A$GT$$u20$as$u20$core..ops..drop..Drop$GT$..drop..DropGuard$LT$regex_syntax..hir..Hir$C$alloc..alloc..Global$GT$$GT$17h5442f9f677549ad5E.llvm.1190860102792631389 0000000140048cb0 f   libregex_syntax-1a078ef20d4d7dee:regex_syntax-1a078ef20d4d7dee.regex_syntax.936f5d3813beee8b-cgu.14.rcgu.o
 0001:00047cb0       _ZN4core3ptr67drop_in_place$LT$alloc..vec..Vec$LT$regex_syntax..ast..Span$GT$$GT$17hf9173279a875c4adE.llvm.2631318121689656173 0000000140048cb0 f   libregex_syntax-1a078ef20d4d7dee:regex_syntax-1a078ef20d4d7dee.regex_syntax.936f5d3813beee8b-cgu.02.rcgu.o
 0001:00047cb0       _ZN4core3ptr73drop_in_place$LT$alloc..raw_vec..RawVec$LT$regex_syntax..hir..Hir$GT$$GT$17h7d958d4a77b5fa74E.llvm.1190860102792631389 0000000140048cb0 f   libregex_syntax-1a078ef20d4d7dee:regex_syntax-1a078ef20d4d7dee.regex_syntax.936f5d3813beee8b-cgu.14.rcgu.o
 0001:00047cb0       _ZN4core3ptr73drop_in_place$LT$alloc..raw_vec..RawVec$LT$regex_syntax..hir..Hir$GT$$GT$17h7d958d4a77b5fa74E.llvm.8070924949184118840 0000000140048cb0 f   libregex_syntax-1a078ef20d4d7dee:regex_syntax-1a078ef20d4d7dee.regex_syntax.936f5d3813beee8b-cgu.11.rcgu.o
 0001:00047cb0       _ZN4core3ptr73drop_in_place$LT$alloc..raw_vec..RawVec$LT$regex_syntax..hir..Hir$GT$$GT$17h9b6e091eef1363faE.llvm.16234871685531041024 0000000140048cb0 f   libregex_automata-464fc35d41c3d390:regex_automata-464fc35d41c3d390.regex_automata.ab23a1c50add178-cgu.01.rcgu.o
 0001:00047e20       _ZN4core3ptr80drop_in_place$LT$alloc..boxed..Box$LT$regex_automata..meta..regex..Cache$GT$$GT$17h6739787b91207a00E.llvm.16234871685531041024 0000000140048e20 f   libregex_automata-464fc35d41c3d390:regex_automata-464fc35d41c3d390.regex_automata.ab23a1c50add178-cgu.01.rcgu.o
 0001:00048050       _ZN4core3ptr82drop_in_place$LT$alloc..raw_vec..RawVec$LT$regex_syntax..ast..ClassSetItem$GT$$GT$17h41d8e2a9524fd389E.llvm.16234871685531041024 0000000140049050 f   libregex_automata-464fc35d41c3d390:regex_automata-464fc35d41c3d390.regex_automata.ab23a1c50add178-cgu.01.rcgu.o
 0001:00048050       _ZN4core3ptr82drop_in_place$LT$alloc..raw_vec..RawVec$LT$regex_syntax..ast..ClassSetItem$GT$$GT$17h74340594590a2508E.llvm.2631318121689656173 0000000140049050 f   libregex_syntax-1a078ef20d4d7dee:regex_syntax-1a078ef20d4d7dee.regex_syntax.936f5d3813beee8b-cgu.02.rcgu.o
 0001:00048050       _ZN4core3ptr82drop_in_place$LT$alloc..raw_vec..RawVec$LT$regex_syntax..ast..ClassSetItem$GT$$GT$17h74340594590a2508E.llvm.8070924949184118840 0000000140049050 f   libregex_syntax-1a078ef20d4d7dee:regex_syntax-1a078ef20d4d7dee.regex_syntax.936f5d3813beee8b-cgu.11.rcgu.o
 0001:00048050       _ZN4core3ptr82drop_in_place$LT$alloc..raw_vec..RawVec$LT$regex_syntax..ast..ClassSetItem$GT$$GT$17h74340594590a2508E.llvm.8454077967597911764 0000000140049050 f   libregex_syntax-1a078ef20d4d7dee:regex_syntax-1a078ef20d4d7dee.regex_syntax.936f5d3813beee8b-cgu.08.rcgu.o
 0001:00048070       _ZN4core3ptr88drop_in_place$LT$alloc..vec..drain..Drain$LT$regex_syntax..hir..literal..Literal$GT$$GT$17h182d68c95b299dacE.llvm.16234871685531041024 0000000140049070 f   libregex_automata-464fc35d41c3d390:regex_automata-464fc35d41c3d390.regex_automata.ab23a1c50add178-cgu.01.rcgu.o
 0001:00048080       _ZN4core3ptr99drop_in_place$LT$alloc..vec..Vec$LT$core..option..Option$LT$alloc..sync..Arc$LT$str$GT$$GT$$GT$$GT$17h27981d1fef76ade1E.llvm.16234871685531041024 0000000140049080 f   libregex_automata-464fc35d41c3d390:regex_automata-464fc35d41c3d390.regex_automata.ab23a1c50add178-cgu.01.rcgu.o
 0001:000481b0       _ZN5alloc3vec16Vec$LT$T$C$A$GT$11extend_with17h71ad6ec6b509f4d2E 00000001400491b0 f   libregex_automata-464fc35d41c3d390:regex_automata-464fc35d41c3d390.regex_automata.ab23a1c50add178-cgu.01.rcgu.o
 0001:00048610       _ZN5alloc3vec16Vec$LT$T$C$A$GT$13shrink_to_fit17h1a513a10f2a9f5baE 0000000140049610 f   libregex_automata-464fc35d41c3d390:regex_automata-464fc35d41c3d390.regex_automata.ab23a1c50add178-cgu.01.rcgu.o
 0001:00048680       _ZN5alloc3vec16Vec$LT$T$C$A$GT$13shrink_to_fit17h4a1f3e3083039f99E 0000000140049680 f   libregex_automata-464fc35d41c3d390:regex_automata-464fc35d41c3d390.regex_automata.ab23a1c50add178-cgu.01.rcgu.o
 0001:00048700       _ZN5alloc3vec16Vec$LT$T$C$A$GT$13shrink_to_fit17h621095286563c0e7E 0000000140049700 f   libregex_automata-464fc35d41c3d390:regex_automata-464fc35d41c3d390.regex_automata.ab23a1c50add178-cgu.01.rcgu.o
 0001:00048700       _ZN5alloc3vec16Vec$LT$T$C$A$GT$13shrink_to_fit17h86d06bb16e4adcacE 0000000140049700 f   libregex_automata-464fc35d41c3d390:regex_automata-464fc35d41c3d390.regex_automata.ab23a1c50add178-cgu.01.rcgu.o
 0001:00048780       _ZN5alloc3vec16Vec$LT$T$C$A$GT$13shrink_to_fit17hcce566ccddf631abE 0000000140049780 f   libregex_automata-464fc35d41c3d390:regex_automata-464fc35d41c3d390.regex_automata.ab23a1c50add178-cgu.01.rcgu.o
 0001:00048800       _ZN65_$LT$alloc..vec..Vec$LT$T$C$A$GT$$u20$as$u20$core..fmt..Debug$GT$3fmt17h74d593d2b0fc7750E 0000000140049800 f   libregex_automata-464fc35d41c3d390:regex_automata-464fc35d41c3d390.regex_automata.ab23a1c50add178-cgu.01.rcgu.o
 0001:00048880       _ZN65_$LT$alloc..vec..Vec$LT$T$C$A$GT$$u20$as$u20$core..fmt..Debug$GT$3fmt17h800ecb2e5173cfebE 0000000140049880 f   libregex_automata-464fc35d41c3d390:regex_automata-464fc35d41c3d390.regex_automata.ab23a1c50add178-cgu.01.rcgu.o
 0001:00048900       _ZN65_$LT$alloc..vec..Vec$LT$T$C$A$GT$$u20$as$u20$core..fmt..Debug$GT$3fmt17ha66a92d9bc0278f4E 0000000140049900 f   libregex_automata-464fc35d41c3d390:regex_automata-464fc35d41c3d390.regex_automata.ab23a1c50add178-cgu.01.rcgu.o
 0001:00048980       _ZN65_$LT$alloc..vec..Vec$LT$T$C$A$GT$$u20$as$u20$core..fmt..Debug$GT$3fmt17he38b84df370c8fd0E 0000000140049980 f   libregex_automata-464fc35d41c3d390:regex_automata-464fc35d41c3d390.regex_automata.ab23a1c50add178-cgu.01.rcgu.o
 0001:00048a00       _ZN70_$LT$alloc..vec..Vec$LT$T$C$A$GT$$u20$as$u20$core..ops..drop..Drop$GT$4drop17h057d06b56e0af46dE 0000000140049a00 f   libregex_automata-464fc35d41c3d390:regex_automata-464fc35d41c3d390.regex_automata.ab23a1c50add178-cgu.01.rcgu.o
 0001:00048a80       _ZN70_$LT$alloc..vec..Vec$LT$T$C$A$GT$$u20$as$u20$core..ops..drop..Drop$GT$4drop17hb381e82410172459E 0000000140049a80 f   libregex_automata-464fc35d41c3d390:regex_automata-464fc35d41c3d390.regex_automata.ab23a1c50add178-cgu.01.rcgu.o
 0001:00048ad0       _ZN70_$LT$alloc..vec..Vec$LT$T$C$A$GT$$u20$as$u20$core..ops..drop..Drop$GT$4drop17hc43ae10c1ea1f9e1E 0000000140049ad0 f   libregex_automata-464fc35d41c3d390:regex_automata-464fc35d41c3d390.regex_automata.ab23a1c50add178-cgu.01.rcgu.o
 0001:00048c60       _ZN70_$LT$alloc..vec..Vec$LT$T$C$A$GT$$u20$as$u20$core..ops..drop..Drop$GT$4drop17heebbd1bcdaba1a10E 0000000140049c60 f   libregex_automata-464fc35d41c3d390:regex_automata-464fc35d41c3d390.regex_automata.ab23a1c50add178-cgu.01.rcgu.o
 0001:00048d90       _ZN70_$LT$alloc..vec..Vec$LT$T$C$A$GT$$u20$as$u20$core..ops..drop..Drop$GT$4drop17hf83f8db3443858c5E 0000000140049d90 f   libregex_automata-464fc35d41c3d390:regex_automata-464fc35d41c3d390.regex_automata.ab23a1c50add178-cgu.01.rcgu.o
 0001:00048f50       _ZN70_$LT$alloc..vec..Vec$LT$T$C$A$GT$$u20$as$u20$core..ops..drop..Drop$GT$4drop17h6967f92dff9ca46cE 0000000140049f50 f   libregex_syntax-1a078ef20d4d7dee:regex_syntax-1a078ef20d4d7dee.regex_syntax.936f5d3813beee8b-cgu.02.rcgu.o
 0001:00048f50       _ZN70_$LT$alloc..vec..Vec$LT$T$C$A$GT$$u20$as$u20$core..ops..drop..Drop$GT$4drop17hfc1675c820ea1652E 0000000140049f50 f   libregex_automata-464fc35d41c3d390:regex_automata-464fc35d41c3d390.regex_automata.ab23a1c50add178-cgu.01.rcgu.o
 0001:00048fa0       _ZN70_$LT$alloc..vec..Vec$LT$T$C$A$GT$$u20$as$u20$core..ops..drop..Drop$GT$4drop17hfed05cd535a254f6E 0000000140049fa0 f   libregex_automata-464fc35d41c3d390:regex_automata-464fc35d41c3d390.regex_automata.ab23a1c50add178-cgu.01.rcgu.o
 0001:00049020       _ZN97_$LT$alloc..vec..Vec$LT$T$C$A$GT$$u20$as$u20$alloc..vec..spec_extend..SpecExtend$LT$T$C$I$GT$$GT$11spec_extend17h42f5986cb8ca99b4E 000000014004a020 f   libregex_automata-464fc35d41c3d390:regex_automata-464fc35d41c3d390.regex_automata.ab23a1c50add178-cgu.01.rcgu.o
 0001:000491e0       _ZN97_$LT$alloc..vec..Vec$LT$T$C$A$GT$$u20$as$u20$alloc..vec..spec_extend..SpecExtend$LT$T$C$I$GT$$GT$11spec_extend17h5bb00aa495a6029aE 000000014004a1e0 f   libregex_automata-464fc35d41c3d390:regex_automata-464fc35d41c3d390.regex_automata.ab23a1c50add178-cgu.01.rcgu.o
 0001:000493b0       _ZN98_$LT$alloc..vec..Vec$LT$T$GT$$u20$as$u20$alloc..vec..spec_from_iter..SpecFromIter$LT$T$C$I$GT$$GT$9from_iter17h010f891826e3fa85E 000000014004a3b0 f   libregex_automata-464fc35d41c3d390:regex_automata-464fc35d41c3d390.regex_automata.ab23a1c50add178-cgu.01.rcgu.o
 0001:00049570       _ZN98_$LT$alloc..vec..Vec$LT$T$GT$$u20$as$u20$alloc..vec..spec_from_iter..SpecFromIter$LT$T$C$I$GT$$GT$9from_iter17h27f40bc23d9aebd6E 000000014004a570 f   libregex_automata-464fc35d41c3d390:regex_automata-464fc35d41c3d390.regex_automata.ab23a1c50add178-cgu.01.rcgu.o
 0001:00049740       _ZN98_$LT$alloc..vec..Vec$LT$T$GT$$u20$as$u20$alloc..vec..spec_from_iter..SpecFromIter$LT$T$C$I$GT$$GT$9from_iter17ha636a6dedfc686fbE 000000014004a740 f   libregex_automata-464fc35d41c3d390:regex_automata-464fc35d41c3d390.regex_automata.ab23a1c50add178-cgu.01.rcgu.o
 0001:000498a0       _ZN42_$LT$$RF$T$u20$as$u20$core..fmt..Debug$GT$3fmt17h4b751313dd24e2d9E 000000014004a8a0 f   libregex_automata-464fc35d41c3d390:regex_automata-464fc35d41c3d390.regex_automata.ab23a1c50add178-cgu.06.rcgu.o
 0001:00049df0       _ZN14regex_automata6hybrid3dfa5Cache3new17h65a71f4765619659E 000000014004adf0 f   libregex_automata-464fc35d41c3d390:regex_automata-464fc35d41c3d390.regex_automata.ab23a1c50add178-cgu.06.rcgu.o
 0001:0004a190       _ZN14regex_automata6hybrid3dfa4Lazy11reset_cache17h9be8bc3ab8f54190E.llvm.8640288705726485972 000000014004b190 f   libregex_automata-464fc35d41c3d390:regex_automata-464fc35d41c3d390.regex_automata.ab23a1c50add178-cgu.06.rcgu.o
 0001:0004c5f0       _ZN14regex_automata6hybrid3dfa7LazyRef16get_cached_state17hfb5bf9b5cdf33464E 000000014004d5f0 f   libregex_automata-464fc35d41c3d390:regex_automata-464fc35d41c3d390.regex_automata.ab23a1c50add178-cgu.06.rcgu.o
 0001:0004c640       _ZN14regex_automata6hybrid3dfa7LazyRef7dead_id17hee9813e3a8f69e31E 000000014004d640 f   libregex_automata-464fc35d41c3d390:regex_automata-464fc35d41c3d390.regex_automata.ab23a1c50add178-cgu.06.rcgu.o
 0001:0004c6a0       _ZN14regex_automata6hybrid3dfa7Builder14build_from_nfa17hc24e73086a1861e4E 000000014004d6a0 f   libregex_automata-464fc35d41c3d390:regex_automata-464fc35d41c3d390.regex_automata.ab23a1c50add178-cgu.06.rcgu.o
 0001:0004d360       _ZN14regex_automata6hybrid3dfa7Builder9configure17h9f02d2e8ac55af24E 000000014004e360 f   libregex_automata-464fc35d41c3d390:regex_automata-464fc35d41c3d390.regex_automata.ab23a1c50add178-cgu.06.rcgu.o
 0001:0004d680       _ZN69_$LT$regex_automata..hybrid..dfa..DFA$u20$as$u20$core..fmt..Debug$GT$3fmt17h89a102c4f9bcdd7cE 000000014004e680 f   libregex_automata-464fc35d41c3d390:regex_automata-464fc35d41c3d390.regex_automata.ab23a1c50add178-cgu.06.rcgu.o
 0001:0004d790       _ZN72_$LT$regex_automata..hybrid..dfa..Config$u20$as$u20$core..fmt..Debug$GT$3fmt17h55fb176e7ca89165E 000000014004e790 f   libregex_automata-464fc35d41c3d390:regex_automata-464fc35d41c3d390.regex_automata.ab23a1c50add178-cgu.06.rcgu.o
 0001:0004e050       _ZN42_$LT$$RF$T$u20$as$u20$core..fmt..Debug$GT$3fmt17h0367172d64c711f1E 000000014004f050 f   libregex_syntax-1a078ef20d4d7dee:regex_syntax-1a078ef20d4d7dee.regex_syntax.936f5d3813beee8b-cgu.15.rcgu.o
 0001:0004e050       _ZN42_$LT$$RF$T$u20$as$u20$core..fmt..Debug$GT$3fmt17h0aa895e1bfe60fe5E 000000014004f050 f   libregex_automata-464fc35d41c3d390:regex_automata-464fc35d41c3d390.regex_automata.ab23a1c50add178-cgu.12.rcgu.o
 0001:0004e050       _ZN42_$LT$$RF$T$u20$as$u20$core..fmt..Debug$GT$3fmt17h10bdbdcc6d3bf81bE 000000014004f050 f   libgoblin-8ee2c552e4c10df6:goblin-8ee2c552e4c10df6.goblin.f087800e97e1b550-cgu.14.rcgu.o
 0001:0004e050       _ZN42_$LT$$RF$T$u20$as$u20$core..fmt..Debug$GT$3fmt17h6621a2037a06ca7fE 000000014004f050 f   libmemchr-b8eb2490671cc383:memchr-b8eb2490671cc383.memchr.604f8ec62383ffd8-cgu.3.rcgu.o
 0001:0004e050       _ZN42_$LT$$RF$T$u20$as$u20$core..fmt..Debug$GT$3fmt17h70a611c4c33697bdE 000000014004f050 f   libaho_corasick-b4d6ea81f1a61526:aho_corasick-b4d6ea81f1a61526.aho_corasick.7f4fbca99e96e6a8-cgu.08.rcgu.o
 0001:0004e0b0       _ZN42_$LT$$RF$T$u20$as$u20$core..fmt..Debug$GT$3fmt17h124b862bea52f77aE 000000014004f0b0 f   libregex_automata-464fc35d41c3d390:regex_automata-464fc35d41c3d390.regex_automata.ab23a1c50add178-cgu.12.rcgu.o
 0001:0004e0b0       _ZN42_$LT$$RF$T$u20$as$u20$core..fmt..Debug$GT$3fmt17h182550fd479fcceeE 000000014004f0b0 f   libregex_syntax-1a078ef20d4d7dee:regex_syntax-1a078ef20d4d7dee.regex_syntax.936f5d3813beee8b-cgu.15.rcgu.o
 0001:0004e0c0       _ZN42_$LT$$RF$T$u20$as$u20$core..fmt..Debug$GT$3fmt17h4c1ae66d0b8101aeE 000000014004f0c0 f   libregex_automata-464fc35d41c3d390:regex_automata-464fc35d41c3d390.regex_automata.ab23a1c50add178-cgu.12.rcgu.o
 0001:0004e100       _ZN42_$LT$$RF$T$u20$as$u20$core..fmt..Debug$GT$3fmt17h60cc62bb5abe3688E 000000014004f100 f   libregex_automata-464fc35d41c3d390:regex_automata-464fc35d41c3d390.regex_automata.ab23a1c50add178-cgu.12.rcgu.o
 0001:0004e100       _ZN42_$LT$$RF$T$u20$as$u20$core..fmt..Debug$GT$3fmt17h7da57f5fb7f5bb77E 000000014004f100 f   libmemchr-b8eb2490671cc383:memchr-b8eb2490671cc383.memchr.604f8ec62383ffd8-cgu.3.rcgu.o
 0001:0004e100       _ZN42_$LT$$RF$T$u20$as$u20$core..fmt..Debug$GT$3fmt17he2c2a3abf482ffdaE 000000014004f100 f   libgoblin-8ee2c552e4c10df6:goblin-8ee2c552e4c10df6.goblin.f087800e97e1b550-cgu.14.rcgu.o
 0001:0004e100       _ZN42_$LT$$RF$T$u20$as$u20$core..fmt..Debug$GT$3fmt17he8e5c17f3bc1c1d7E 000000014004f100 f   libregex_syntax-1a078ef20d4d7dee:regex_syntax-1a078ef20d4d7dee.regex_syntax.936f5d3813beee8b-cgu.15.rcgu.o
 0001:0004e160       _ZN42_$LT$$RF$T$u20$as$u20$core..fmt..Debug$GT$3fmt17hc8da0cf89e67b27dE 000000014004f160 f   libregex_automata-464fc35d41c3d390:regex_automata-464fc35d41c3d390.regex_automata.ab23a1c50add178-cgu.12.rcgu.o
 0001:0004e190       _ZN42_$LT$$RF$T$u20$as$u20$core..fmt..Debug$GT$3fmt17he20409d03bf68830E 000000014004f190 f   libregex_automata-464fc35d41c3d390:regex_automata-464fc35d41c3d390.regex_automata.ab23a1c50add178-cgu.12.rcgu.o
 0001:0004e1b0       _ZN42_$LT$$RF$T$u20$as$u20$core..fmt..Debug$GT$3fmt17he5a579fae244a83dE 000000014004f1b0 f   libregex_automata-464fc35d41c3d390:regex_automata-464fc35d41c3d390.regex_automata.ab23a1c50add178-cgu.12.rcgu.o
 0001:0004e220       _ZN4core3ptr100drop_in_place$LT$alloc..raw_vec..RawVec$LT$regex_automata..nfa..thompson..compiler..Utf8Node$GT$$GT$17hec7823d91dba6181E.llvm.1376675858812116721 000000014004f220 f   libregex_automata-464fc35d41c3d390:regex_automata-464fc35d41c3d390.regex_automata.ab23a1c50add178-cgu.12.rcgu.o
 0001:0004e220       _ZN4core3ptr103drop_in_place$LT$alloc..raw_vec..RawVec$LT$regex_automata..nfa..thompson..map..Utf8BoundedEntry$GT$$GT$17h50480285f417c40dE.llvm.1376675858812116721 000000014004f220 f   libregex_automata-464fc35d41c3d390:regex_automata-464fc35d41c3d390.regex_automata.ab23a1c50add178-cgu.12.rcgu.o
 0001:0004e220       _ZN4core3ptr96drop_in_place$LT$alloc..raw_vec..RawVec$LT$regex_automata..nfa..thompson..builder..State$GT$$GT$17hc4598768801a606cE.llvm.1376675858812116721 000000014004f220 f   libregex_automata-464fc35d41c3d390:regex_automata-464fc35d41c3d390.regex_automata.ab23a1c50add178-cgu.12.rcgu.o
 0001:0004e5d0       _ZN4core3ptr95drop_in_place$LT$core..cell..RefCell$LT$regex_automata..nfa..thompson..builder..Builder$GT$$GT$17hab00b8e38f632181E.llvm.1376675858812116721 000000014004f5d0 f   libregex_automata-464fc35d41c3d390:regex_automata-464fc35d41c3d390.regex_automata.ab23a1c50add178-cgu.12.rcgu.o
 0001:0004e6e0       _ZN14regex_automata4meta7literal20alternation_literals17h459560a4694115aeE 000000014004f6e0 f   libregex_automata-464fc35d41c3d390:regex_automata-464fc35d41c3d390.regex_automata.ab23a1c50add178-cgu.12.rcgu.o
 0001:0004eb30       _ZN14regex_automata3nfa8thompson8compiler8Compiler3new17hcb63867eea548619E 000000014004fb30 f   libregex_automata-464fc35d41c3d390:regex_automata-464fc35d41c3d390.regex_automata.ab23a1c50add178-cgu.12.rcgu.o
 0001:0004ee30       _ZN14regex_automata3nfa8thompson8compiler8Compiler9configure17h05780fb1e7f890aeE 000000014004fe30 f   libregex_automata-464fc35d41c3d390:regex_automata-464fc35d41c3d390.regex_automata.ab23a1c50add178-cgu.12.rcgu.o
 0001:0004eea0       _ZN14regex_automata3nfa8thompson8compiler8Compiler7compile17h8df32e5df2a8240eE 000000014004fea0 f   libregex_automata-464fc35d41c3d390:regex_automata-464fc35d41c3d390.regex_automata.ab23a1c50add178-cgu.12.rcgu.o
 0001:00053c50       _ZN14regex_automata3nfa8thompson8compiler8Compiler5c_cap17h06391128a1400ad9E 0000000140054c50 f   libregex_automata-464fc35d41c3d390:regex_automata-464fc35d41c3d390.regex_automata.ab23a1c50add178-cgu.12.rcgu.o
 0001:00054860       _ZN14regex_automata3nfa8thompson8compiler8Compiler10c_at_least17hd43d385260501f12E 0000000140055860 f   libregex_automata-464fc35d41c3d390:regex_automata-464fc35d41c3d390.regex_automata.ab23a1c50add178-cgu.12.rcgu.o
 0001:000553f0       _ZN14regex_automata3nfa8thompson8compiler8Compiler5patch17haf6c810fe81ee114E 00000001400563f0 f   libregex_automata-464fc35d41c3d390:regex_automata-464fc35d41c3d390.regex_automata.ab23a1c50add178-cgu.12.rcgu.o
 0001:00055470       _ZN14regex_automata3nfa8thompson8compiler8Compiler9add_empty17hbcd0a659ce676b3fE 0000000140056470 f   libregex_automata-464fc35d41c3d390:regex_automata-464fc35d41c3d390.regex_automata.ab23a1c50add178-cgu.12.rcgu.o
 0001:00055500       _ZN14regex_automata3nfa8thompson8compiler8Compiler9add_union17h3437a3bf3533511aE 0000000140056500 f   libregex_automata-464fc35d41c3d390:regex_automata-464fc35d41c3d390.regex_automata.ab23a1c50add178-cgu.12.rcgu.o
 0001:00055990       _ZN14regex_automata3nfa8thompson8compiler12Utf8Compiler3add17h36b297baec9aa308E 0000000140056990 f   libregex_automata-464fc35d41c3d390:regex_automata-464fc35d41c3d390.regex_automata.ab23a1c50add178-cgu.12.rcgu.o
 0001:00056240       _ZN76_$LT$regex_automata..hybrid..id..LazyStateID$u20$as$u20$core..fmt..Debug$GT$3fmt17h7277b3df86386743E 0000000140057240 f   libregex_automata-464fc35d41c3d390:regex_automata-464fc35d41c3d390.regex_automata.ab23a1c50add178-cgu.12.rcgu.o
 0001:00056280       _ZN81_$LT$regex_automata..hybrid..id..LazyStateIDError$u20$as$u20$core..fmt..Debug$GT$3fmt17hc195500ecc19a634E 0000000140057280 f   libregex_automata-464fc35d41c3d390:regex_automata-464fc35d41c3d390.regex_automata.ab23a1c50add178-cgu.12.rcgu.o
 0001:000562d0       _ZN5alloc7raw_vec19RawVec$LT$T$C$A$GT$11allocate_in17h581da9d42de34fc6E 00000001400572d0 f   libregex_automata-464fc35d41c3d390:regex_automata-464fc35d41c3d390.regex_automata.ab23a1c50add178-cgu.00.rcgu.o
 0001:000562d0       _ZN5alloc7raw_vec19RawVec$LT$T$C$A$GT$11allocate_in17hcf2dbbb77144307eE 00000001400572d0 f   libregex_automata-464fc35d41c3d390:regex_automata-464fc35d41c3d390.regex_automata.ab23a1c50add178-cgu.00.rcgu.o
 0001:000562d0       _ZN5alloc7raw_vec19RawVec$LT$T$C$A$GT$11allocate_in17hd1fb0b925f0bf6e8E 00000001400572d0 f   libregex_automata-464fc35d41c3d390:regex_automata-464fc35d41c3d390.regex_automata.ab23a1c50add178-cgu.00.rcgu.o
 0001:000562d0       _ZN5alloc7raw_vec19RawVec$LT$T$C$A$GT$11allocate_in17hf8d41126cf7545c2E 00000001400572d0 f   libregex_automata-464fc35d41c3d390:regex_automata-464fc35d41c3d390.regex_automata.ab23a1c50add178-cgu.00.rcgu.o
 0001:00056350       _ZN5alloc7raw_vec19RawVec$LT$T$C$A$GT$11allocate_in17hb48dd4e39b52fee0E 0000000140057350 f   libregex_automata-464fc35d41c3d390:regex_automata-464fc35d41c3d390.regex_automata.ab23a1c50add178-cgu.00.rcgu.o
 0001:000563e0       _ZN5alloc7raw_vec19RawVec$LT$T$C$A$GT$16reserve_for_push17h0ab0e6ce9ebd7409E 00000001400573e0 f   libgoblin-8ee2c552e4c10df6:goblin-8ee2c552e4c10df6.goblin.f087800e97e1b550-cgu.01.rcgu.o
 0001:000563e0       _ZN5alloc7raw_vec19RawVec$LT$T$C$A$GT$16reserve_for_push17h10fcfc4f3b33d87cE 00000001400573e0 f   libregex_automata-464fc35d41c3d390:regex_automata-464fc35d41c3d390.regex_automata.ab23a1c50add178-cgu.00.rcgu.o
 0001:000563e0       _ZN5alloc7raw_vec19RawVec$LT$T$C$A$GT$16reserve_for_push17h2dc4e3af4b5c5bfaE 00000001400573e0 f   libaho_corasick-b4d6ea81f1a61526:aho_corasick-b4d6ea81f1a61526.aho_corasick.7f4fbca99e96e6a8-cgu.02.rcgu.o
 0001:000563e0       _ZN5alloc7raw_vec19RawVec$LT$T$C$A$GT$16reserve_for_push17h2ff29e6c6ce49335E 00000001400573e0 f   libregex_automata-464fc35d41c3d390:regex_automata-464fc35d41c3d390.regex_automata.ab23a1c50add178-cgu.00.rcgu.o
 0001:000563e0       _ZN5alloc7raw_vec19RawVec$LT$T$C$A$GT$16reserve_for_push17h43b54f54aa326c2dE 00000001400573e0 f   libgoblin-8ee2c552e4c10df6:goblin-8ee2c552e4c10df6.goblin.f087800e97e1b550-cgu.01.rcgu.o
 0001:000563e0       _ZN5alloc7raw_vec19RawVec$LT$T$C$A$GT$16reserve_for_push17h628e0092d3893b2aE 00000001400573e0 f   libregex_automata-464fc35d41c3d390:regex_automata-464fc35d41c3d390.regex_automata.ab23a1c50add178-cgu.00.rcgu.o
 0001:000563e0       _ZN5alloc7raw_vec19RawVec$LT$T$C$A$GT$16reserve_for_push17h6d560dbd674401beE 00000001400573e0 f   libaho_corasick-b4d6ea81f1a61526:aho_corasick-b4d6ea81f1a61526.aho_corasick.7f4fbca99e96e6a8-cgu.02.rcgu.o
 0001:000563e0       _ZN5alloc7raw_vec19RawVec$LT$T$C$A$GT$16reserve_for_push17h8222cfeba998ced0E 00000001400573e0 f   libregex_syntax-1a078ef20d4d7dee:regex_syntax-1a078ef20d4d7dee.regex_syntax.936f5d3813beee8b-cgu.03.rcgu.o
 0001:000563e0       _ZN5alloc7raw_vec19RawVec$LT$T$C$A$GT$16reserve_for_push17hb8418b5076b4dd57E 00000001400573e0 f   libregex_automata-464fc35d41c3d390:regex_automata-464fc35d41c3d390.regex_automata.ab23a1c50add178-cgu.00.rcgu.o
 0001:000563e0       _ZN5alloc7raw_vec19RawVec$LT$T$C$A$GT$16reserve_for_push17hf7d33cff1f552107E 00000001400573e0 f   libregex_syntax-1a078ef20d4d7dee:regex_syntax-1a078ef20d4d7dee.regex_syntax.936f5d3813beee8b-cgu.03.rcgu.o
 0001:000564b0       _ZN5alloc7raw_vec19RawVec$LT$T$C$A$GT$16reserve_for_push17h124b06c68e307e3fE 00000001400574b0 f   libregex_automata-464fc35d41c3d390:regex_automata-464fc35d41c3d390.regex_automata.ab23a1c50add178-cgu.00.rcgu.o
 0001:000564b0       _ZN5alloc7raw_vec19RawVec$LT$T$C$A$GT$16reserve_for_push17h308fd41e0ffc46f5E 00000001400574b0 f   libaho_corasick-b4d6ea81f1a61526:aho_corasick-b4d6ea81f1a61526.aho_corasick.7f4fbca99e96e6a8-cgu.02.rcgu.o
 0001:000564b0       _ZN5alloc7raw_vec19RawVec$LT$T$C$A$GT$16reserve_for_push17h3a87f3b3b7b3d719E 00000001400574b0 f   libgoblin-8ee2c552e4c10df6:goblin-8ee2c552e4c10df6.goblin.f087800e97e1b550-cgu.01.rcgu.o
 0001:000564b0       _ZN5alloc7raw_vec19RawVec$LT$T$C$A$GT$16reserve_for_push17h4061bd3a6da25494E 00000001400574b0 f   libaho_corasick-b4d6ea81f1a61526:aho_corasick-b4d6ea81f1a61526.aho_corasick.7f4fbca99e96e6a8-cgu.02.rcgu.o
 0001:000564b0       _ZN5alloc7raw_vec19RawVec$LT$T$C$A$GT$16reserve_for_push17h4f7cd7280b3fe266E 00000001400574b0 f   libregex_automata-464fc35d41c3d390:regex_automata-464fc35d41c3d390.regex_automata.ab23a1c50add178-cgu.00.rcgu.o
 0001:000564b0       _ZN5alloc7raw_vec19RawVec$LT$T$C$A$GT$16reserve_for_push17hb5b606f3d0665e85E 00000001400574b0 f   libregex_automata-464fc35d41c3d390:regex_automata-464fc35d41c3d390.regex_automata.ab23a1c50add178-cgu.00.rcgu.o
 0001:000564b0       _ZN5alloc7raw_vec19RawVec$LT$T$C$A$GT$16reserve_for_push17hd6eaaf4b97d8469dE 00000001400574b0 f   libregex_automata-464fc35d41c3d390:regex_automata-464fc35d41c3d390.regex_automata.ab23a1c50add178-cgu.00.rcgu.o
 0001:000564b0       _ZN5alloc7raw_vec19RawVec$LT$T$C$A$GT$16reserve_for_push17he3977bc6d0308eacE 00000001400574b0 f   libaho_corasick-b4d6ea81f1a61526:aho_corasick-b4d6ea81f1a61526.aho_corasick.7f4fbca99e96e6a8-cgu.02.rcgu.o
 0001:000564b0       _ZN5alloc7raw_vec19RawVec$LT$T$C$A$GT$16reserve_for_push17hfd45e054ba914411E 00000001400574b0 f   libregex_syntax-1a078ef20d4d7dee:regex_syntax-1a078ef20d4d7dee.regex_syntax.936f5d3813beee8b-cgu.03.rcgu.o
 0001:00056580       _ZN5alloc7raw_vec19RawVec$LT$T$C$A$GT$16reserve_for_push17h166f27e5d3310969E 0000000140057580 f   libregex_automata-464fc35d41c3d390:regex_automata-464fc35d41c3d390.regex_automata.ab23a1c50add178-cgu.00.rcgu.o
 0001:00056580       _ZN5alloc7raw_vec19RawVec$LT$T$C$A$GT$16reserve_for_push17h2164a7a3797e961eE 0000000140057580 f   libregex_automata-464fc35d41c3d390:regex_automata-464fc35d41c3d390.regex_automata.ab23a1c50add178-cgu.00.rcgu.o
 0001:00056580       _ZN5alloc7raw_vec19RawVec$LT$T$C$A$GT$16reserve_for_push17h3433aa1df47602faE 0000000140057580 f   libgoblin-8ee2c552e4c10df6:goblin-8ee2c552e4c10df6.goblin.f087800e97e1b550-cgu.01.rcgu.o
 0001:00056580       _ZN5alloc7raw_vec19RawVec$LT$T$C$A$GT$16reserve_for_push17h5ab211f974a14f80E 0000000140057580 f   libregex_automata-464fc35d41c3d390:regex_automata-464fc35d41c3d390.regex_automata.ab23a1c50add178-cgu.00.rcgu.o
 0001:00056580       _ZN5alloc7raw_vec19RawVec$LT$T$C$A$GT$16reserve_for_push17h6976fee9a3cfa8ffE 0000000140057580 f   libregex_automata-464fc35d41c3d390:regex_automata-464fc35d41c3d390.regex_automata.ab23a1c50add178-cgu.00.rcgu.o
 0001:00056580       _ZN5alloc7raw_vec19RawVec$LT$T$C$A$GT$16reserve_for_push17h74e48f196ee5003cE 0000000140057580 f   libregex_syntax-1a078ef20d4d7dee:regex_syntax-1a078ef20d4d7dee.regex_syntax.936f5d3813beee8b-cgu.03.rcgu.o
 0001:00056580       _ZN5alloc7raw_vec19RawVec$LT$T$C$A$GT$16reserve_for_push17h8dcaf0bf2f6bb6bfE 0000000140057580 f   libregex_automata-464fc35d41c3d390:regex_automata-464fc35d41c3d390.regex_automata.ab23a1c50add178-cgu.00.rcgu.o
 0001:00056580       _ZN5alloc7raw_vec19RawVec$LT$T$C$A$GT$16reserve_for_push17h95aa2f81970d539aE 0000000140057580 f   libaho_corasick-b4d6ea81f1a61526:aho_corasick-b4d6ea81f1a61526.aho_corasick.7f4fbca99e96e6a8-cgu.02.rcgu.o
 0001:00056580       _ZN5alloc7raw_vec19RawVec$LT$T$C$A$GT$16reserve_for_push17hafdc4162ce0d148dE 0000000140057580 f   libregex_automata-464fc35d41c3d390:regex_automata-464fc35d41c3d390.regex_automata.ab23a1c50add178-cgu.00.rcgu.o
 0001:00056580       _ZN5alloc7raw_vec19RawVec$LT$T$C$A$GT$16reserve_for_push17hd49318a784b551d9E 0000000140057580 f   libregex_automata-464fc35d41c3d390:regex_automata-464fc35d41c3d390.regex_automata.ab23a1c50add178-cgu.00.rcgu.o
 0001:00056580       _ZN5alloc7raw_vec19RawVec$LT$T$C$A$GT$16reserve_for_push17he1b5e0cc045ef4f3E 0000000140057580 f   libregex_automata-464fc35d41c3d390:regex_automata-464fc35d41c3d390.regex_automata.ab23a1c50add178-cgu.00.rcgu.o
 0001:00056580       _ZN5alloc7raw_vec19RawVec$LT$T$C$A$GT$16reserve_for_push17hf1ec90bfaa00b8b3E 0000000140057580 f   libgoblin-8ee2c552e4c10df6:goblin-8ee2c552e4c10df6.goblin.f087800e97e1b550-cgu.01.rcgu.o
 0001:00056640       _ZN5alloc7raw_vec19RawVec$LT$T$C$A$GT$16reserve_for_push17h2dc2b25ae1f816b2E 0000000140057640 f   libregex_automata-464fc35d41c3d390:regex_automata-464fc35d41c3d390.regex_automata.ab23a1c50add178-cgu.00.rcgu.o
 0001:00056640       _ZN5alloc7raw_vec19RawVec$LT$T$C$A$GT$16reserve_for_push17h68b63b4b0c8f4041E 0000000140057640 f   libregex_automata-464fc35d41c3d390:regex_automata-464fc35d41c3d390.regex_automata.ab23a1c50add178-cgu.00.rcgu.o
 0001:00056640       _ZN5alloc7raw_vec19RawVec$LT$T$C$A$GT$16reserve_for_push17h7ab4d12031aabc69E 0000000140057640 f   libregex_automata-464fc35d41c3d390:regex_automata-464fc35d41c3d390.regex_automata.ab23a1c50add178-cgu.00.rcgu.o
 0001:00056640       _ZN5alloc7raw_vec19RawVec$LT$T$C$A$GT$16reserve_for_push17h82a89df6e3b64d03E 0000000140057640 f   libregex_automata-464fc35d41c3d390:regex_automata-464fc35d41c3d390.regex_automata.ab23a1c50add178-cgu.00.rcgu.o
 0001:00056640       _ZN5alloc7raw_vec19RawVec$LT$T$C$A$GT$16reserve_for_push17h86c6a0f8f58c72feE 0000000140057640 f   libaho_corasick-b4d6ea81f1a61526:aho_corasick-b4d6ea81f1a61526.aho_corasick.7f4fbca99e96e6a8-cgu.02.rcgu.o
 0001:00056640       _ZN5alloc7raw_vec19RawVec$LT$T$C$A$GT$16reserve_for_push17ha54185246c863367E 0000000140057640 f   libregex_automata-464fc35d41c3d390:regex_automata-464fc35d41c3d390.regex_automata.ab23a1c50add178-cgu.00.rcgu.o
 0001:00056640       _ZN5alloc7raw_vec19RawVec$LT$T$C$A$GT$16reserve_for_push17hb1263bbe6304b562E 0000000140057640 f   libregex_syntax-1a078ef20d4d7dee:regex_syntax-1a078ef20d4d7dee.regex_syntax.936f5d3813beee8b-cgu.03.rcgu.o
 0001:00056640       _ZN5alloc7raw_vec19RawVec$LT$T$C$A$GT$16reserve_for_push17hb8d6103320a0f72eE 0000000140057640 f   libgoblin-8ee2c552e4c10df6:goblin-8ee2c552e4c10df6.goblin.f087800e97e1b550-cgu.01.rcgu.o
 0001:00056640       _ZN5alloc7raw_vec19RawVec$LT$T$C$A$GT$16reserve_for_push17hfb735ef33545a556E 0000000140057640 f   libregex_automata-464fc35d41c3d390:regex_automata-464fc35d41c3d390.regex_automata.ab23a1c50add178-cgu.00.rcgu.o
 0001:00056640       _ZN5alloc7raw_vec19RawVec$LT$T$C$A$GT$16reserve_for_push17hfec8689fbef5a55bE 0000000140057640 f   libregex_syntax-1a078ef20d4d7dee:regex_syntax-1a078ef20d4d7dee.regex_syntax.936f5d3813beee8b-cgu.03.rcgu.o
 0001:00056710       _ZN5alloc7raw_vec19RawVec$LT$T$C$A$GT$16reserve_for_push17h4127042a0d960b16E 0000000140057710 f   libregex_automata-464fc35d41c3d390:regex_automata-464fc35d41c3d390.regex_automata.ab23a1c50add178-cgu.00.rcgu.o
 0001:000567d0       _ZN5alloc7raw_vec19RawVec$LT$T$C$A$GT$16reserve_for_push17h557d5a894e302e32E 00000001400577d0 f   libregex_automata-464fc35d41c3d390:regex_automata-464fc35d41c3d390.regex_automata.ab23a1c50add178-cgu.00.rcgu.o
 0001:000567d0       _ZN5alloc7raw_vec19RawVec$LT$T$C$A$GT$16reserve_for_push17h5ca0c42ec5b202b4E 00000001400577d0 f   libregex_syntax-1a078ef20d4d7dee:regex_syntax-1a078ef20d4d7dee.regex_syntax.936f5d3813beee8b-cgu.03.rcgu.o
 0001:00056890       _ZN5alloc7raw_vec19RawVec$LT$T$C$A$GT$16reserve_for_push17h1c884e426596bcf0E 0000000140057890 f   libregex_syntax-1a078ef20d4d7dee:regex_syntax-1a078ef20d4d7dee.regex_syntax.936f5d3813beee8b-cgu.03.rcgu.o
 0001:00056890       _ZN5alloc7raw_vec19RawVec$LT$T$C$A$GT$16reserve_for_push17h50b2de5d0ca496d8E 0000000140057890 f   libregex_syntax-1a078ef20d4d7dee:regex_syntax-1a078ef20d4d7dee.regex_syntax.936f5d3813beee8b-cgu.03.rcgu.o
 0001:00056890       _ZN5alloc7raw_vec19RawVec$LT$T$C$A$GT$16reserve_for_push17h61e43874d16a1f80E 0000000140057890 f   libregex_syntax-1a078ef20d4d7dee:regex_syntax-1a078ef20d4d7dee.regex_syntax.936f5d3813beee8b-cgu.03.rcgu.o
 0001:00056890       _ZN5alloc7raw_vec19RawVec$LT$T$C$A$GT$16reserve_for_push17h755e5d81181afc25E 0000000140057890 f   libregex_automata-464fc35d41c3d390:regex_automata-464fc35d41c3d390.regex_automata.ab23a1c50add178-cgu.00.rcgu.o
 0001:00056890       _ZN5alloc7raw_vec19RawVec$LT$T$C$A$GT$16reserve_for_push17h81874f13b9ded960E 0000000140057890 f   libregex_syntax-1a078ef20d4d7dee:regex_syntax-1a078ef20d4d7dee.regex_syntax.936f5d3813beee8b-cgu.03.rcgu.o
 0001:00056890       _ZN5alloc7raw_vec19RawVec$LT$T$C$A$GT$16reserve_for_push17h9def3578d45d896dE 0000000140057890 f   libregex_automata-464fc35d41c3d390:regex_automata-464fc35d41c3d390.regex_automata.ab23a1c50add178-cgu.00.rcgu.o
 0001:00056890       _ZN5alloc7raw_vec19RawVec$LT$T$C$A$GT$16reserve_for_push17ha77888558bea6b4aE 0000000140057890 f   libregex_automata-464fc35d41c3d390:regex_automata-464fc35d41c3d390.regex_automata.ab23a1c50add178-cgu.00.rcgu.o
 0001:00056960       _ZN5alloc7raw_vec19RawVec$LT$T$C$A$GT$16reserve_for_push17h2a468915fa9bfb4dE 0000000140057960 f   libaho_corasick-b4d6ea81f1a61526:aho_corasick-b4d6ea81f1a61526.aho_corasick.7f4fbca99e96e6a8-cgu.02.rcgu.o
 0001:00056960       _ZN5alloc7raw_vec19RawVec$LT$T$C$A$GT$16reserve_for_push17h8de005bff379864aE 0000000140057960 f   libregex_automata-464fc35d41c3d390:regex_automata-464fc35d41c3d390.regex_automata.ab23a1c50add178-cgu.00.rcgu.o
 0001:00056a20       _ZN5alloc7raw_vec19RawVec$LT$T$C$A$GT$16reserve_for_push17h42da313fb40e63b7E 0000000140057a20 f   libgoblin-8ee2c552e4c10df6:goblin-8ee2c552e4c10df6.goblin.f087800e97e1b550-cgu.01.rcgu.o
 0001:00056a20       _ZN5alloc7raw_vec19RawVec$LT$T$C$A$GT$16reserve_for_push17h92a7d2c581009266E 0000000140057a20 f   libregex_automata-464fc35d41c3d390:regex_automata-464fc35d41c3d390.regex_automata.ab23a1c50add178-cgu.00.rcgu.o
 0001:00056a20       _ZN5alloc7raw_vec19RawVec$LT$T$C$A$GT$16reserve_for_push17he682aea2d0203884E 0000000140057a20 f   libgoblin-8ee2c552e4c10df6:goblin-8ee2c552e4c10df6.goblin.f087800e97e1b550-cgu.01.rcgu.o
 0001:00056a20       _ZN5alloc7raw_vec19RawVec$LT$T$C$A$GT$16reserve_for_push17hf92d6d224a688430E 0000000140057a20 f   libregex_syntax-1a078ef20d4d7dee:regex_syntax-1a078ef20d4d7dee.regex_syntax.936f5d3813beee8b-cgu.03.rcgu.o
 0001:00056a20       _ZN5alloc7raw_vec19RawVec$LT$T$C$A$GT$16reserve_for_push17hf9eeb4d99e1975a6E 0000000140057a20 f   libregex_automata-464fc35d41c3d390:regex_automata-464fc35d41c3d390.regex_automata.ab23a1c50add178-cgu.00.rcgu.o
 0001:00056ae0       _ZN5alloc7raw_vec19RawVec$LT$T$C$A$GT$16reserve_for_push17h9eed868bcf712cf1E 0000000140057ae0 f   libregex_automata-464fc35d41c3d390:regex_automata-464fc35d41c3d390.regex_automata.ab23a1c50add178-cgu.00.rcgu.o
 0001:00056bb0       _ZN42_$LT$$RF$T$u20$as$u20$core..fmt..Debug$GT$3fmt17hda251b3e7bf87b2cE 0000000140057bb0 f   libregex_automata-464fc35d41c3d390:regex_automata-464fc35d41c3d390.regex_automata.ab23a1c50add178-cgu.13.rcgu.o
 0001:00056db0       _ZN14regex_automata3dfa7onepass7Builder14build_from_nfa17ha761025cf0606374E 0000000140057db0 f   libregex_automata-464fc35d41c3d390:regex_automata-464fc35d41c3d390.regex_automata.ab23a1c50add178-cgu.13.rcgu.o
 0001:00058d70       _ZN14regex_automata3dfa7onepass3DFA20try_search_slots_imp17hd4128c0939d56104E 0000000140059d70 f   libregex_automata-464fc35d41c3d390:regex_automata-464fc35d41c3d390.regex_automata.ab23a1c50add178-cgu.13.rcgu.o
 0001:0005a770       _ZN70_$LT$regex_automata..dfa..onepass..DFA$u20$as$u20$core..fmt..Debug$GT$3fmt17hc4ebff226c8f51fcE 000000014005b770 f   libregex_automata-464fc35d41c3d390:regex_automata-464fc35d41c3d390.regex_automata.ab23a1c50add178-cgu.13.rcgu.o
 0001:0005b290       _ZN82_$LT$regex_automata..dfa..onepass..PatternEpsilons$u20$as$u20$core..fmt..Debug$GT$3fmt17h91cb9b2e9b28fd8bE 000000014005c290 f   libregex_automata-464fc35d41c3d390:regex_automata-464fc35d41c3d390.regex_automata.ab23a1c50add178-cgu.13.rcgu.o
 0001:0005b410       _ZN75_$LT$regex_automata..dfa..onepass..Epsilons$u20$as$u20$core..fmt..Debug$GT$3fmt17hefe456d4209b7736E 000000014005c410 f   libregex_automata-464fc35d41c3d390:regex_automata-464fc35d41c3d390.regex_automata.ab23a1c50add178-cgu.13.rcgu.o
 0001:0005b580       _ZN72_$LT$regex_automata..dfa..onepass..Slots$u20$as$u20$core..fmt..Debug$GT$3fmt17h83979798fc47b9dfE 000000014005c580 f   libregex_automata-464fc35d41c3d390:regex_automata-464fc35d41c3d390.regex_automata.ab23a1c50add178-cgu.13.rcgu.o
 0001:0005b6a0       _ZN14regex_automata3dfa8remapper7onepass105_$LT$impl$u20$regex_automata..dfa..remapper..Remappable$u20$for$u20$regex_automata..dfa..onepass..DFA$GT$5remap17h6ea12aebdb5113abE 000000014005c6a0 f   libregex_automata-464fc35d41c3d390:regex_automata-464fc35d41c3d390.regex_automata.ab23a1c50add178-cgu.13.rcgu.o
 0001:0005bd80       _ZN12aho_corasick9automaton12try_find_fwd17h38afc75e7cba5239E 000000014005cd80 f   libregex_automata-464fc35d41c3d390:regex_automata-464fc35d41c3d390.regex_automata.ab23a1c50add178-cgu.11.rcgu.o
 0001:0005d660       _ZN12aho_corasick9automaton12try_find_fwd17h6038ad4c9b2a2a1cE 000000014005e660 f   libregex_automata-464fc35d41c3d390:regex_automata-464fc35d41c3d390.regex_automata.ab23a1c50add178-cgu.11.rcgu.o
 0001:0005e650       _ZN12aho_corasick9automaton12try_find_fwd17h6eb0d0a3574ee843E 000000014005f650 f   libregex_automata-464fc35d41c3d390:regex_automata-464fc35d41c3d390.regex_automata.ab23a1c50add178-cgu.11.rcgu.o
 0001:0005f150       _ZN12aho_corasick9automaton24try_find_overlapping_fwd17h547da079786129f2E 0000000140060150 f   libregex_automata-464fc35d41c3d390:regex_automata-464fc35d41c3d390.regex_automata.ab23a1c50add178-cgu.11.rcgu.o
 0001:0005f7b0       _ZN12aho_corasick9automaton24try_find_overlapping_fwd17h840238a03b87635cE 00000001400607b0 f   libregex_automata-464fc35d41c3d390:regex_automata-464fc35d41c3d390.regex_automata.ab23a1c50add178-cgu.11.rcgu.o
 0001:000608d0       _ZN12aho_corasick9automaton24try_find_overlapping_fwd17hd41cee3185a4bbbfE 00000001400618d0 f   libregex_automata-464fc35d41c3d390:regex_automata-464fc35d41c3d390.regex_automata.ab23a1c50add178-cgu.11.rcgu.o
 0001:00061340       _ZN12regex_syntax3hir10Properties5union17hf221f778ed6be233E 0000000140062340 f   libregex_automata-464fc35d41c3d390:regex_automata-464fc35d41c3d390.regex_automata.ab23a1c50add178-cgu.11.rcgu.o
 0001:00061600       _ZN42_$LT$$RF$T$u20$as$u20$core..fmt..Debug$GT$3fmt17h2c40a61787d31732E 0000000140062600 f   libregex_automata-464fc35d41c3d390:regex_automata-464fc35d41c3d390.regex_automata.ab23a1c50add178-cgu.11.rcgu.o
 0001:00061680       _ZN42_$LT$$RF$T$u20$as$u20$core..fmt..Debug$GT$3fmt17h896ed1c2a35256faE 0000000140062680 f   libregex_automata-464fc35d41c3d390:regex_automata-464fc35d41c3d390.regex_automata.ab23a1c50add178-cgu.11.rcgu.o
 0001:00061690       _ZN42_$LT$$RF$T$u20$as$u20$core..fmt..Debug$GT$3fmt17hd7fbf221413dc419E 0000000140062690 f   libregex_automata-464fc35d41c3d390:regex_automata-464fc35d41c3d390.regex_automata.ab23a1c50add178-cgu.11.rcgu.o
 0001:000618d0       _ZN4core3ptr58drop_in_place$LT$aho_corasick..util..error..MatchError$GT$17hdbd9c4e24c6787f5E.llvm.4281819601847883408 00000001400628d0 f   libregex_automata-464fc35d41c3d390:regex_automata-464fc35d41c3d390.regex_automata.ab23a1c50add178-cgu.11.rcgu.o
 0001:00061a60       _ZN5alloc3str17join_generic_copy17h48864b7c0a507ff0E 0000000140062a60 f   libregex_automata-464fc35d41c3d390:regex_automata-464fc35d41c3d390.regex_automata.ab23a1c50add178-cgu.11.rcgu.o
 0001:00062070       _ZN122_$LT$regex_automata..util..prefilter..aho_corasick..AhoCorasick$u20$as$u20$regex_automata..util..prefilter..PrefilterI$GT$4find17h1a1740fca123b39aE 0000000140063070 f   libregex_automata-464fc35d41c3d390:regex_automata-464fc35d41c3d390.regex_automata.ab23a1c50add178-cgu.11.rcgu.o
 0001:00062210       _ZN122_$LT$regex_automata..util..prefilter..aho_corasick..AhoCorasick$u20$as$u20$regex_automata..util..prefilter..PrefilterI$GT$6prefix17h1bae7519c90b731cE 0000000140063210 f   libregex_automata-464fc35d41c3d390:regex_automata-464fc35d41c3d390.regex_automata.ab23a1c50add178-cgu.11.rcgu.o
 0001:000623b0       _ZN122_$LT$regex_automata..util..prefilter..aho_corasick..AhoCorasick$u20$as$u20$regex_automata..util..prefilter..PrefilterI$GT$12memory_usage17h1ae68a29647f87b7E 00000001400633b0 f   libregex_automata-464fc35d41c3d390:regex_automata-464fc35d41c3d390.regex_automata.ab23a1c50add178-cgu.11.rcgu.o
 0001:00062850       _ZN109_$LT$regex_automata..util..prefilter..teddy..Teddy$u20$as$u20$regex_automata..util..prefilter..PrefilterI$GT$4find17h368ac5471254bcf2E 0000000140063850 f   libregex_automata-464fc35d41c3d390:regex_automata-464fc35d41c3d390.regex_automata.ab23a1c50add178-cgu.11.rcgu.o
 0001:00062a10       _ZN109_$LT$regex_automata..util..prefilter..teddy..Teddy$u20$as$u20$regex_automata..util..prefilter..PrefilterI$GT$6prefix17hed40cd1f8eaba239E 0000000140063a10 f   libregex_automata-464fc35d41c3d390:regex_automata-464fc35d41c3d390.regex_automata.ab23a1c50add178-cgu.11.rcgu.o
 0001:00062b80       _ZN109_$LT$regex_automata..util..prefilter..teddy..Teddy$u20$as$u20$regex_automata..util..prefilter..PrefilterI$GT$12memory_usage17hadc47ee2275cfa99E 0000000140063b80 f   libregex_automata-464fc35d41c3d390:regex_automata-464fc35d41c3d390.regex_automata.ab23a1c50add178-cgu.11.rcgu.o
 0001:00062c00       _ZN109_$LT$regex_automata..util..prefilter..teddy..Teddy$u20$as$u20$regex_automata..util..prefilter..PrefilterI$GT$7is_fast17h0af7c06d777e7f4aE 0000000140063c00 f   libregex_automata-464fc35d41c3d390:regex_automata-464fc35d41c3d390.regex_automata.ab23a1c50add178-cgu.11.rcgu.o
 0001:00062c10       _ZN14regex_automata4util9prefilter9Prefilter3new17hd87621306d7c1782E 0000000140063c10 f   libregex_automata-464fc35d41c3d390:regex_automata-464fc35d41c3d390.regex_automata.ab23a1c50add178-cgu.11.rcgu.o
 0001:000636c0       _ZN14regex_automata4util9prefilter9Prefilter11from_choice17hb15827c98adede6eE 00000001400646c0 f   libregex_automata-464fc35d41c3d390:regex_automata-464fc35d41c3d390.regex_automata.ab23a1c50add178-cgu.11.rcgu.o
 0001:00063b10       _ZN14regex_automata4util9prefilter6Choice3new17h3939b1b736c0b239E 0000000140064b10 f   libregex_automata-464fc35d41c3d390:regex_automata-464fc35d41c3d390.regex_automata.ab23a1c50add178-cgu.11.rcgu.o
 0001:00063d70       _ZN14regex_automata4util9prefilter8prefixes17hfe1303469657f2e5E 0000000140064d70 f   libregex_automata-464fc35d41c3d390:regex_automata-464fc35d41c3d390.regex_automata.ab23a1c50add178-cgu.11.rcgu.o
 0001:00064200       _ZN14regex_automata4util9prefilter8suffixes17h3a66911303e3766bE 0000000140065200 f   libregex_automata-464fc35d41c3d390:regex_automata-464fc35d41c3d390.regex_automata.ab23a1c50add178-cgu.11.rcgu.o
 0001:00064690       _ZN95_$LT$regex_automata..util..prefilter..aho_corasick..AhoCorasick$u20$as$u20$core..fmt..Debug$GT$3fmt17h065b6263cae0f6baE 0000000140065690 f   libregex_automata-464fc35d41c3d390:regex_automata-464fc35d41c3d390.regex_automata.ab23a1c50add178-cgu.11.rcgu.o
 0001:000646e0       _ZN82_$LT$regex_automata..util..prefilter..teddy..Teddy$u20$as$u20$core..fmt..Debug$GT$3fmt17h002c9c37d10a1955E 00000001400656e0 f   libregex_automata-464fc35d41c3d390:regex_automata-464fc35d41c3d390.regex_automata.ab23a1c50add178-cgu.11.rcgu.o
 0001:00064790       _ZN79_$LT$regex_automata..util..prefilter..Prefilter$u20$as$u20$core..fmt..Debug$GT$3fmt17h0ba9dcda2ef094aeE 0000000140065790 f   libregex_automata-464fc35d41c3d390:regex_automata-464fc35d41c3d390.regex_automata.ab23a1c50add178-cgu.11.rcgu.o
 0001:00064810       _ZN42_$LT$$RF$T$u20$as$u20$core..fmt..Debug$GT$3fmt17h05e17d1db0bc19cbE 0000000140065810 f   libregex_automata-464fc35d41c3d390:regex_automata-464fc35d41c3d390.regex_automata.ab23a1c50add178-cgu.09.rcgu.o
 0001:00064870       _ZN42_$LT$$RF$T$u20$as$u20$core..fmt..Debug$GT$3fmt17h13adbf25670c17b3E 0000000140065870 f   libregex_automata-464fc35d41c3d390:regex_automata-464fc35d41c3d390.regex_automata.ab23a1c50add178-cgu.09.rcgu.o
 0001:000648d0       _ZN42_$LT$$RF$T$u20$as$u20$core..fmt..Debug$GT$3fmt17h142a5f7cb798ddeaE 00000001400658d0 f   libregex_automata-464fc35d41c3d390:regex_automata-464fc35d41c3d390.regex_automata.ab23a1c50add178-cgu.09.rcgu.o
 0001:00064930       _ZN42_$LT$$RF$T$u20$as$u20$core..fmt..Debug$GT$3fmt17h1d035ebf3b28e8c9E 0000000140065930 f   libregex_automata-464fc35d41c3d390:regex_automata-464fc35d41c3d390.regex_automata.ab23a1c50add178-cgu.09.rcgu.o
 0001:00064990       _ZN42_$LT$$RF$T$u20$as$u20$core..fmt..Debug$GT$3fmt17h3c52d30d9c20e827E 0000000140065990 f   libregex_automata-464fc35d41c3d390:regex_automata-464fc35d41c3d390.regex_automata.ab23a1c50add178-cgu.09.rcgu.o
 0001:00064ab0       _ZN42_$LT$$RF$T$u20$as$u20$core..fmt..Debug$GT$3fmt17h64d0094468b6c944E 0000000140065ab0 f   libregex_automata-464fc35d41c3d390:regex_automata-464fc35d41c3d390.regex_automata.ab23a1c50add178-cgu.09.rcgu.o
 0001:00064b10       _ZN42_$LT$$RF$T$u20$as$u20$core..fmt..Debug$GT$3fmt17h8457c2b6f3258da5E 0000000140065b10 f   libregex_automata-464fc35d41c3d390:regex_automata-464fc35d41c3d390.regex_automata.ab23a1c50add178-cgu.09.rcgu.o
 0001:00064b70       _ZN42_$LT$$RF$T$u20$as$u20$core..fmt..Debug$GT$3fmt17h886e5193d5e38888E 0000000140065b70 f   libregex_automata-464fc35d41c3d390:regex_automata-464fc35d41c3d390.regex_automata.ab23a1c50add178-cgu.09.rcgu.o
 0001:00064bd0       _ZN42_$LT$$RF$T$u20$as$u20$core..fmt..Debug$GT$3fmt17hbb9e65394ff9a04cE 0000000140065bd0 f   libregex_automata-464fc35d41c3d390:regex_automata-464fc35d41c3d390.regex_automata.ab23a1c50add178-cgu.09.rcgu.o
 0001:00064c30       _ZN42_$LT$$RF$T$u20$as$u20$core..fmt..Debug$GT$3fmt17hbbdca85e29a1d753E 0000000140065c30 f   libregex_automata-464fc35d41c3d390:regex_automata-464fc35d41c3d390.regex_automata.ab23a1c50add178-cgu.09.rcgu.o
 0001:00064c90       _ZN42_$LT$$RF$T$u20$as$u20$core..fmt..Debug$GT$3fmt17hd314a64257bb0ecdE 0000000140065c90 f   libregex_automata-464fc35d41c3d390:regex_automata-464fc35d41c3d390.regex_automata.ab23a1c50add178-cgu.09.rcgu.o
 0001:00064d80       _ZN66_$LT$core..option..Option$LT$T$GT$$u20$as$u20$core..fmt..Debug$GT$3fmt17h025cc24577b109fbE 0000000140065d80 f   libregex_automata-464fc35d41c3d390:regex_automata-464fc35d41c3d390.regex_automata.ab23a1c50add178-cgu.09.rcgu.o
 0001:00064de0       _ZN66_$LT$core..option..Option$LT$T$GT$$u20$as$u20$core..fmt..Debug$GT$3fmt17h0681a52e433a67b7E 0000000140065de0 f   libregex_automata-464fc35d41c3d390:regex_automata-464fc35d41c3d390.regex_automata.ab23a1c50add178-cgu.09.rcgu.o
 0001:00064e40       _ZN66_$LT$core..option..Option$LT$T$GT$$u20$as$u20$core..fmt..Debug$GT$3fmt17h0b2999a1385d758dE 0000000140065e40 f   libregex_automata-464fc35d41c3d390:regex_automata-464fc35d41c3d390.regex_automata.ab23a1c50add178-cgu.09.rcgu.o
 0001:00064ea0       _ZN66_$LT$core..option..Option$LT$T$GT$$u20$as$u20$core..fmt..Debug$GT$3fmt17h0d1a339d702e0466E 0000000140065ea0 f   libregex_automata-464fc35d41c3d390:regex_automata-464fc35d41c3d390.regex_automata.ab23a1c50add178-cgu.09.rcgu.o
 0001:00064f00       _ZN66_$LT$core..option..Option$LT$T$GT$$u20$as$u20$core..fmt..Debug$GT$3fmt17h212a7aa9908c087aE 0000000140065f00 f   libregex_automata-464fc35d41c3d390:regex_automata-464fc35d41c3d390.regex_automata.ab23a1c50add178-cgu.09.rcgu.o
 0001:00064f60       _ZN66_$LT$core..option..Option$LT$T$GT$$u20$as$u20$core..fmt..Debug$GT$3fmt17h3f12be7a2ae39873E 0000000140065f60 f   libregex_automata-464fc35d41c3d390:regex_automata-464fc35d41c3d390.regex_automata.ab23a1c50add178-cgu.09.rcgu.o
 0001:00064fc0       _ZN66_$LT$core..option..Option$LT$T$GT$$u20$as$u20$core..fmt..Debug$GT$3fmt17h470064eb638c199aE 0000000140065fc0 f   libregex_automata-464fc35d41c3d390:regex_automata-464fc35d41c3d390.regex_automata.ab23a1c50add178-cgu.09.rcgu.o
 0001:00065020       _ZN66_$LT$core..option..Option$LT$T$GT$$u20$as$u20$core..fmt..Debug$GT$3fmt17h752bb50dcd651cfaE 0000000140066020 f   libregex_automata-464fc35d41c3d390:regex_automata-464fc35d41c3d390.regex_automata.ab23a1c50add178-cgu.09.rcgu.o
 0001:00065080       _ZN66_$LT$core..option..Option$LT$T$GT$$u20$as$u20$core..fmt..Debug$GT$3fmt17h985daabf59700fa6E 0000000140066080 f   libregex_automata-464fc35d41c3d390:regex_automata-464fc35d41c3d390.regex_automata.ab23a1c50add178-cgu.09.rcgu.o
 0001:000650e0       _ZN14regex_automata3dfa8remapper8Remapper4swap17hc9e0dd0b5653e267E 00000001400660e0 f   libregex_automata-464fc35d41c3d390:regex_automata-464fc35d41c3d390.regex_automata.ab23a1c50add178-cgu.09.rcgu.o
 0001:000651d0       _ZN14regex_automata3dfa8remapper8Remapper5remap17h887aac8477afe10cE 00000001400661d0 f   libregex_automata-464fc35d41c3d390:regex_automata-464fc35d41c3d390.regex_automata.ab23a1c50add178-cgu.09.rcgu.o
 0001:00065400       _ZN14regex_automata3nfa8thompson6pikevm6PikeVM16search_slots_imp17hdeb571f73ec874a2E 0000000140066400 f   libregex_automata-464fc35d41c3d390:regex_automata-464fc35d41c3d390.regex_automata.ab23a1c50add178-cgu.09.rcgu.o
 0001:00065580       _ZN14regex_automata3nfa8thompson6pikevm6PikeVM10search_imp17h2fc35bc3ea83735bE 0000000140066580 f   libregex_automata-464fc35d41c3d390:regex_automata-464fc35d41c3d390.regex_automata.ab23a1c50add178-cgu.09.rcgu.o
 0001:0006c870       _ZN14regex_automata3nfa8thompson6pikevm6PikeVM21which_overlapping_imp17h61bfecde66a186deE 000000014006d870 f   libregex_automata-464fc35d41c3d390:regex_automata-464fc35d41c3d390.regex_automata.ab23a1c50add178-cgu.09.rcgu.o
 0001:00073a30       _ZN14regex_automata3nfa8thompson6pikevm5Cache3new17h795e5cba6fcfb4d9E 0000000140074a30 f   libregex_automata-464fc35d41c3d390:regex_automata-464fc35d41c3d390.regex_automata.ab23a1c50add178-cgu.09.rcgu.o
 0001:00073c50       _ZN14regex_automata3nfa8thompson6pikevm12ActiveStates5reset17hd2576e4aa052c343E.llvm.5923153528386317138 0000000140074c50 f   libregex_automata-464fc35d41c3d390:regex_automata-464fc35d41c3d390.regex_automata.ab23a1c50add178-cgu.09.rcgu.o
 0001:00073f80       _ZN14regex_automata4util11determinize5state5State4dead17h03a9e8f1bed871f7E 0000000140074f80 f   libregex_automata-464fc35d41c3d390:regex_automata-464fc35d41c3d390.regex_automata.ab23a1c50add178-cgu.09.rcgu.o
 0001:00074120       _ZN14regex_automata4util11determinize5state5State13match_pattern17h76c8649f0c768534E 0000000140075120 f   libregex_automata-464fc35d41c3d390:regex_automata-464fc35d41c3d390.regex_automata.ab23a1c50add178-cgu.09.rcgu.o
 0001:000741a0       _ZN14regex_automata4util11determinize5state5State18iter_nfa_state_ids17h947e4775ac87ec34E 00000001400751a0 f   libregex_automata-464fc35d41c3d390:regex_automata-464fc35d41c3d390.regex_automata.ab23a1c50add178-cgu.09.rcgu.o
 0001:00074430       _ZN14regex_automata4util11determinize5state19StateBuilderMatches8into_nfa17hdbf1918dff2e9d64E 0000000140075430 f   libregex_automata-464fc35d41c3d390:regex_automata-464fc35d41c3d390.regex_automata.ab23a1c50add178-cgu.09.rcgu.o
 0001:00074530       _ZN14regex_automata4util11determinize5state19StateBuilderMatches20add_match_pattern_id17h049dee8d6f1c3600E 0000000140075530 f   libregex_automata-464fc35d41c3d390:regex_automata-464fc35d41c3d390.regex_automata.ab23a1c50add178-cgu.09.rcgu.o
 0001:000746d0       _ZN14regex_automata4util10sparse_set10SparseSets3new17hfa5aa870fffb216aE 00000001400756d0 f   libregex_automata-464fc35d41c3d390:regex_automata-464fc35d41c3d390.regex_automata.ab23a1c50add178-cgu.09.rcgu.o
 0001:00074a70       _ZN82_$LT$regex_automata..nfa..thompson..pikevm..Config$u20$as$u20$core..fmt..Debug$GT$3fmt17h57ac3eba217e3dfdE 0000000140075a70 f   libregex_automata-464fc35d41c3d390:regex_automata-464fc35d41c3d390.regex_automata.ab23a1c50add178-cgu.09.rcgu.o
 0001:00074af0       _ZN12aho_corasick11ahocorasick18AhoCorasickBuilder5build17h22aaacf9ab192cc8E 0000000140075af0 f   libregex_automata-464fc35d41c3d390:regex_automata-464fc35d41c3d390.regex_automata.ab23a1c50add178-cgu.03.rcgu.o
 0001:00075aa0       _ZN12aho_corasick11ahocorasick18AhoCorasickBuilder5build17h481aa4d46d3895cdE 0000000140076aa0 f   libregex_automata-464fc35d41c3d390:regex_automata-464fc35d41c3d390.regex_automata.ab23a1c50add178-cgu.03.rcgu.o
 0001:00075fa0       _ZN12aho_corasick11ahocorasick18AhoCorasickBuilder5build17h9f78fde640ca481fE 0000000140076fa0 f   libregex_automata-464fc35d41c3d390:regex_automata-464fc35d41c3d390.regex_automata.ab23a1c50add178-cgu.03.rcgu.o
 0001:000764a0       _ZN12aho_corasick3dfa7Builder5build17h610d844338c5eb80E 00000001400774a0 f   libregex_automata-464fc35d41c3d390:regex_automata-464fc35d41c3d390.regex_automata.ab23a1c50add178-cgu.03.rcgu.o
 0001:000765d0       _ZN12aho_corasick3nfa13noncontiguous7Builder5build17h705475c2dae189e4E.llvm.6209206241771657251 00000001400775d0 f   libregex_automata-464fc35d41c3d390:regex_automata-464fc35d41c3d390.regex_automata.ab23a1c50add178-cgu.03.rcgu.o
 0001:00077080       _ZN12aho_corasick3nfa13noncontiguous7Builder5build17h9703011c740d0d65E.llvm.6209206241771657251 0000000140078080 f   libregex_automata-464fc35d41c3d390:regex_automata-464fc35d41c3d390.regex_automata.ab23a1c50add178-cgu.03.rcgu.o
 0001:00077b20       _ZN12aho_corasick6packed3api7Builder6extend17h4c5a172665ec421cE 0000000140078b20 f   libregex_automata-464fc35d41c3d390:regex_automata-464fc35d41c3d390.regex_automata.ab23a1c50add178-cgu.03.rcgu.o
 0001:00077be0       _ZN12aho_corasick6packed3api7Builder6extend17h7226e4e05027e6d0E 0000000140078be0 f   libregex_automata-464fc35d41c3d390:regex_automata-464fc35d41c3d390.regex_automata.ab23a1c50add178-cgu.03.rcgu.o
 0001:00077d30       _ZN42_$LT$$RF$T$u20$as$u20$core..fmt..Debug$GT$3fmt17h4fd7ec14f7dadc38E 0000000140078d30 f   libregex_automata-464fc35d41c3d390:regex_automata-464fc35d41c3d390.regex_automata.ab23a1c50add178-cgu.03.rcgu.o
 0001:00077d40       _ZN42_$LT$$RF$T$u20$as$u20$core..fmt..Debug$GT$3fmt17h8da2f2946f321653E 0000000140078d40 f   libregex_automata-464fc35d41c3d390:regex_automata-464fc35d41c3d390.regex_automata.ab23a1c50add178-cgu.03.rcgu.o
 0001:00077dc0       _ZN4core3ptr58drop_in_place$LT$aho_corasick..nfa..noncontiguous..NFA$GT$17he9bce22a4b6b444aE.llvm.6209206241771657251 0000000140078dc0 f   libregex_automata-464fc35d41c3d390:regex_automata-464fc35d41c3d390.regex_automata.ab23a1c50add178-cgu.03.rcgu.o
 0001:00078bc0       _ZN14regex_automata4util9prefilter7byteset7ByteSet3new17h3ba6566eb527375fE 0000000140079bc0 f   libregex_automata-464fc35d41c3d390:regex_automata-464fc35d41c3d390.regex_automata.ab23a1c50add178-cgu.03.rcgu.o
 0001:00078ca0       _ZN113_$LT$regex_automata..util..prefilter..byteset..ByteSet$u20$as$u20$regex_automata..util..prefilter..PrefilterI$GT$4find17h0d301e882bf5281eE 0000000140079ca0 f   libregex_automata-464fc35d41c3d390:regex_automata-464fc35d41c3d390.regex_automata.ab23a1c50add178-cgu.03.rcgu.o
 0001:00078d30       _ZN113_$LT$regex_automata..util..prefilter..byteset..ByteSet$u20$as$u20$regex_automata..util..prefilter..PrefilterI$GT$6prefix17hd5b4cdaa3aa1f22dE 0000000140079d30 f   libregex_automata-464fc35d41c3d390:regex_automata-464fc35d41c3d390.regex_automata.ab23a1c50add178-cgu.03.rcgu.o
 0001:00078d70       _ZN111_$LT$regex_automata..util..prefilter..memchr..Memchr$u20$as$u20$regex_automata..util..prefilter..PrefilterI$GT$4find17h8a21268d1335fd5fE 0000000140079d70 f   libregex_automata-464fc35d41c3d390:regex_automata-464fc35d41c3d390.regex_automata.ab23a1c50add178-cgu.03.rcgu.o
 0001:00078e10       _ZN111_$LT$regex_automata..util..prefilter..memchr..Memchr$u20$as$u20$regex_automata..util..prefilter..PrefilterI$GT$6prefix17h6ab747e9af9315dcE 0000000140079e10 f   libregex_automata-464fc35d41c3d390:regex_automata-464fc35d41c3d390.regex_automata.ab23a1c50add178-cgu.03.rcgu.o
 0001:00078e40       _ZN14regex_automata4util9prefilter6memchr7Memchr23new17h28e92fb753eb7d0cE 0000000140079e40 f   libregex_automata-464fc35d41c3d390:regex_automata-464fc35d41c3d390.regex_automata.ab23a1c50add178-cgu.03.rcgu.o
 0001:00078ee0       _ZN112_$LT$regex_automata..util..prefilter..memchr..Memchr2$u20$as$u20$regex_automata..util..prefilter..PrefilterI$GT$4find17h556d5bb5a2fb2574E 0000000140079ee0 f   libregex_automata-464fc35d41c3d390:regex_automata-464fc35d41c3d390.regex_automata.ab23a1c50add178-cgu.03.rcgu.o
 0001:00078f80       _ZN112_$LT$regex_automata..util..prefilter..memchr..Memchr2$u20$as$u20$regex_automata..util..prefilter..PrefilterI$GT$6prefix17h0efd8d821f5ee3ccE 0000000140079f80 f   libregex_automata-464fc35d41c3d390:regex_automata-464fc35d41c3d390.regex_automata.ab23a1c50add178-cgu.03.rcgu.o
 0001:00078fc0       _ZN14regex_automata4util9prefilter6memchr7Memchr33new17hd8b0e661d3dc4deeE 0000000140079fc0 f   libregex_automata-464fc35d41c3d390:regex_automata-464fc35d41c3d390.regex_automata.ab23a1c50add178-cgu.03.rcgu.o
 0001:000790a0       _ZN112_$LT$regex_automata..util..prefilter..memchr..Memchr3$u20$as$u20$regex_automata..util..prefilter..PrefilterI$GT$4find17h45bb29f2b356915dE 000000014007a0a0 f   libregex_automata-464fc35d41c3d390:regex_automata-464fc35d41c3d390.regex_automata.ab23a1c50add178-cgu.03.rcgu.o
 0001:00079150       _ZN112_$LT$regex_automata..util..prefilter..memchr..Memchr3$u20$as$u20$regex_automata..util..prefilter..PrefilterI$GT$6prefix17h63a379ac85fefba6E 000000014007a150 f   libregex_automata-464fc35d41c3d390:regex_automata-464fc35d41c3d390.regex_automata.ab23a1c50add178-cgu.03.rcgu.o
 0001:00079190       _ZN14regex_automata4util9prefilter6memmem6Memmem3new17h2c52a66635f96281E 000000014007a190 f   libregex_automata-464fc35d41c3d390:regex_automata-464fc35d41c3d390.regex_automata.ab23a1c50add178-cgu.03.rcgu.o
 0001:000792c0       _ZN14regex_automata4util9prefilter6memmem6Memmem3new17h7aeb9ad1369d39a4E 000000014007a2c0 f   libregex_automata-464fc35d41c3d390:regex_automata-464fc35d41c3d390.regex_automata.ab23a1c50add178-cgu.03.rcgu.o
 0001:000793e0       _ZN111_$LT$regex_automata..util..prefilter..memmem..Memmem$u20$as$u20$regex_automata..util..prefilter..PrefilterI$GT$4find17h816a7ade4cf41c37E 000000014007a3e0 f   libregex_automata-464fc35d41c3d390:regex_automata-464fc35d41c3d390.regex_automata.ab23a1c50add178-cgu.03.rcgu.o
 0001:00079490       _ZN111_$LT$regex_automata..util..prefilter..memmem..Memmem$u20$as$u20$regex_automata..util..prefilter..PrefilterI$GT$6prefix17h75771c4fd14adcd6E 000000014007a490 f   libregex_automata-464fc35d41c3d390:regex_automata-464fc35d41c3d390.regex_automata.ab23a1c50add178-cgu.03.rcgu.o
 0001:00079520       _ZN86_$LT$regex_automata..util..prefilter..byteset..ByteSet$u20$as$u20$core..fmt..Debug$GT$3fmt17h6c7445da392bf9b6E 000000014007a520 f   libregex_automata-464fc35d41c3d390:regex_automata-464fc35d41c3d390.regex_automata.ab23a1c50add178-cgu.03.rcgu.o
 0001:00079560       _ZN84_$LT$regex_automata..util..prefilter..memchr..Memchr$u20$as$u20$core..fmt..Debug$GT$3fmt17h5285d2e1d512a1f6E 000000014007a560 f   libregex_automata-464fc35d41c3d390:regex_automata-464fc35d41c3d390.regex_automata.ab23a1c50add178-cgu.03.rcgu.o
 0001:000795a0       _ZN85_$LT$regex_automata..util..prefilter..memchr..Memchr2$u20$as$u20$core..fmt..Debug$GT$3fmt17h9191082e461c7176E 000000014007a5a0 f   libregex_automata-464fc35d41c3d390:regex_automata-464fc35d41c3d390.regex_automata.ab23a1c50add178-cgu.03.rcgu.o
 0001:000795f0       _ZN85_$LT$regex_automata..util..prefilter..memchr..Memchr3$u20$as$u20$core..fmt..Debug$GT$3fmt17h35fad3f8cb4e3ddaE 000000014007a5f0 f   libregex_automata-464fc35d41c3d390:regex_automata-464fc35d41c3d390.regex_automata.ab23a1c50add178-cgu.03.rcgu.o
 0001:00079650       _ZN84_$LT$regex_automata..util..prefilter..memmem..Memmem$u20$as$u20$core..fmt..Debug$GT$3fmt17h99a57923b64ca8c3E 000000014007a650 f   libregex_automata-464fc35d41c3d390:regex_automata-464fc35d41c3d390.regex_automata.ab23a1c50add178-cgu.03.rcgu.o
 0001:000796a0       _ZN42_$LT$$RF$T$u20$as$u20$core..fmt..Debug$GT$3fmt17h747631a58f57832aE 000000014007a6a0 f   libregex_automata-464fc35d41c3d390:regex_automata-464fc35d41c3d390.regex_automata.ab23a1c50add178-cgu.10.rcgu.o
 0001:000796a0       _ZN42_$LT$$RF$T$u20$as$u20$core..fmt..Debug$GT$3fmt17hd2abadebb88c657aE 000000014007a6a0 f   libaho_corasick-b4d6ea81f1a61526:aho_corasick-b4d6ea81f1a61526.aho_corasick.7f4fbca99e96e6a8-cgu.14.rcgu.o
 0001:000796f0       _ZN4core5slice4sort10merge_sort17h09a831ea0aa47232E 000000014007a6f0 f   libregex_automata-464fc35d41c3d390:regex_automata-464fc35d41c3d390.regex_automata.ab23a1c50add178-cgu.10.rcgu.o
 0001:0007a3f0       _ZN6memchr6memmem13FinderBuilder25build_forward_with_ranker17he171a73e582e195fE 000000014007b3f0 f   libregex_automata-464fc35d41c3d390:regex_automata-464fc35d41c3d390.regex_automata.ab23a1c50add178-cgu.10.rcgu.o
 0001:0007b200       _ZN4core9core_arch3x863avx18_mm256_loadu_si25617h49595e2cc1f054bfE.llvm.7137040370862660648 000000014007c200 f   libaho_corasick-b4d6ea81f1a61526:aho_corasick-b4d6ea81f1a61526.aho_corasick.7f4fbca99e96e6a8-cgu.09.rcgu.o
 0001:0007b210       _ZN12aho_corasick11ahocorasick11AhoCorasick7builder17ha828d93514d798c9E 000000014007c210 f   libaho_corasick-b4d6ea81f1a61526:aho_corasick-b4d6ea81f1a61526.aho_corasick.7f4fbca99e96e6a8-cgu.09.rcgu.o
 0001:0007b210       _ZN12aho_corasick11ahocorasick18AhoCorasickBuilder3new17he32bd01f9d8c9a15E 000000014007c210 f   libaho_corasick-b4d6ea81f1a61526:aho_corasick-b4d6ea81f1a61526.aho_corasick.7f4fbca99e96e6a8-cgu.09.rcgu.o
 0001:0007b270       _ZN12aho_corasick11ahocorasick11AhoCorasick12memory_usage17h807c39d4ebd0e4cbE 000000014007c270 f   libaho_corasick-b4d6ea81f1a61526:aho_corasick-b4d6ea81f1a61526.aho_corasick.7f4fbca99e96e6a8-cgu.09.rcgu.o
 0001:0007b290       _ZN75_$LT$aho_corasick..ahocorasick..AhoCorasick$u20$as$u20$core..fmt..Debug$GT$3fmt17haf2853b7c008b016E 000000014007c290 f   libaho_corasick-b4d6ea81f1a61526:aho_corasick-b4d6ea81f1a61526.aho_corasick.7f4fbca99e96e6a8-cgu.09.rcgu.o
 0001:0007b2e0       _ZN12aho_corasick11ahocorasick18AhoCorasickBuilder10build_auto17h7d0c9790fb0b64a2E 000000014007c2e0 f   libaho_corasick-b4d6ea81f1a61526:aho_corasick-b4d6ea81f1a61526.aho_corasick.7f4fbca99e96e6a8-cgu.09.rcgu.o
 0001:0007b620       _ZN12aho_corasick11ahocorasick18AhoCorasickBuilder10match_kind17h17c98878e73ad327E 000000014007c620 f   libaho_corasick-b4d6ea81f1a61526:aho_corasick-b4d6ea81f1a61526.aho_corasick.7f4fbca99e96e6a8-cgu.09.rcgu.o
 0001:0007b630       _ZN12aho_corasick11ahocorasick18AhoCorasickBuilder10start_kind17hf3bb1e7312458cceE 000000014007c630 f   libaho_corasick-b4d6ea81f1a61526:aho_corasick-b4d6ea81f1a61526.aho_corasick.7f4fbca99e96e6a8-cgu.09.rcgu.o
 0001:0007b640       _ZN12aho_corasick11ahocorasick18AhoCorasickBuilder4kind17h4f711244f65c7505E 000000014007c640 f   libaho_corasick-b4d6ea81f1a61526:aho_corasick-b4d6ea81f1a61526.aho_corasick.7f4fbca99e96e6a8-cgu.09.rcgu.o
 0001:0007b650       _ZN12aho_corasick11ahocorasick18AhoCorasickBuilder9prefilter17h5d805b6acaec4ca7E 000000014007c650 f   libaho_corasick-b4d6ea81f1a61526:aho_corasick-b4d6ea81f1a61526.aho_corasick.7f4fbca99e96e6a8-cgu.09.rcgu.o
 0001:0007b660       _ZN12aho_corasick11ahocorasick28enforce_anchored_consistency17hcf702f8a62be5bc7E 000000014007c660 f   libaho_corasick-b4d6ea81f1a61526:aho_corasick-b4d6ea81f1a61526.aho_corasick.7f4fbca99e96e6a8-cgu.09.rcgu.o
 0001:0007c0a0       _ZN12aho_corasick4util8remapper8Remapper4swap17h316c64e094ea80f6E 000000014007d0a0 f   libaho_corasick-b4d6ea81f1a61526:aho_corasick-b4d6ea81f1a61526.aho_corasick.7f4fbca99e96e6a8-cgu.09.rcgu.o
 0001:0007c190       _ZN12aho_corasick4util8remapper8Remapper5remap17h950881d1c03975b0E 000000014007d190 f   libaho_corasick-b4d6ea81f1a61526:aho_corasick-b4d6ea81f1a61526.aho_corasick.7f4fbca99e96e6a8-cgu.09.rcgu.o
 0001:0007c3b0       _ZN42_$LT$$RF$T$u20$as$u20$core..fmt..Debug$GT$3fmt17h3149900398997692E 000000014007d3b0 f   libaho_corasick-b4d6ea81f1a61526:aho_corasick-b4d6ea81f1a61526.aho_corasick.7f4fbca99e96e6a8-cgu.14.rcgu.o
 0001:0007c540       _ZN6memchr6memmem13FinderBuilder25build_forward_with_ranker17h89b8c4d3714a1f5bE 000000014007d540 f   libaho_corasick-b4d6ea81f1a61526:aho_corasick-b4d6ea81f1a61526.aho_corasick.7f4fbca99e96e6a8-cgu.14.rcgu.o
 0001:0007d340       _ZN12aho_corasick6packed7pattern8Patterns3add17hbda0708bedbcda5eE 000000014007e340 f   libaho_corasick-b4d6ea81f1a61526:aho_corasick-b4d6ea81f1a61526.aho_corasick.7f4fbca99e96e6a8-cgu.14.rcgu.o
 0001:0007d4b0       _ZN12aho_corasick6packed7pattern8Patterns12memory_usage17h083849741cc64d0cE 000000014007e4b0 f   libaho_corasick-b4d6ea81f1a61526:aho_corasick-b4d6ea81f1a61526.aho_corasick.7f4fbca99e96e6a8-cgu.14.rcgu.o
 0001:0007d4d0       _ZN12aho_corasick6packed7pattern8Patterns5reset17h160b22882ce99df3E 000000014007e4d0 f   libaho_corasick-b4d6ea81f1a61526:aho_corasick-b4d6ea81f1a61526.aho_corasick.7f4fbca99e96e6a8-cgu.14.rcgu.o
 0001:0007d540       _ZN12aho_corasick6packed5teddy7builder7Builder5build17h8c3e70bde8c87ca2E 000000014007e540 f   libaho_corasick-b4d6ea81f1a61526:aho_corasick-b4d6ea81f1a61526.aho_corasick.7f4fbca99e96e6a8-cgu.14.rcgu.o
 0001:0007d830       _ZN42_$LT$$RF$T$u20$as$u20$core..fmt..Debug$GT$3fmt17h44cb5a6f5fb2747dE 000000014007e830 f   libaho_corasick-b4d6ea81f1a61526:aho_corasick-b4d6ea81f1a61526.aho_corasick.7f4fbca99e96e6a8-cgu.15.rcgu.o
 0001:0007d840       _ZN42_$LT$$RF$T$u20$as$u20$core..fmt..Debug$GT$3fmt17h9419327d91b7674aE 000000014007e840 f   libaho_corasick-b4d6ea81f1a61526:aho_corasick-b4d6ea81f1a61526.aho_corasick.7f4fbca99e96e6a8-cgu.15.rcgu.o
 0001:0007d860       _ZN42_$LT$$RF$T$u20$as$u20$core..fmt..Debug$GT$3fmt17hab42ab75f5f1885fE 000000014007e860 f   libaho_corasick-b4d6ea81f1a61526:aho_corasick-b4d6ea81f1a61526.aho_corasick.7f4fbca99e96e6a8-cgu.15.rcgu.o
 0001:0007da20       _ZN12aho_corasick6packed3api6Config3new17h5aeae86e8ffb8f0fE 000000014007ea20 f   libaho_corasick-b4d6ea81f1a61526:aho_corasick-b4d6ea81f1a61526.aho_corasick.7f4fbca99e96e6a8-cgu.15.rcgu.o
 0001:0007da20       _ZN12aho_corasick6packed3api8Searcher6config17hba63b3e59c0365fcE 000000014007ea20 f   libaho_corasick-b4d6ea81f1a61526:aho_corasick-b4d6ea81f1a61526.aho_corasick.7f4fbca99e96e6a8-cgu.15.rcgu.o
 0001:0007da20       _ZN76_$LT$aho_corasick..packed..api..Config$u20$as$u20$core..default..Default$GT$7default17ha60b123bd75a468fE 000000014007ea20 f   libaho_corasick-b4d6ea81f1a61526:aho_corasick-b4d6ea81f1a61526.aho_corasick.7f4fbca99e96e6a8-cgu.15.rcgu.o
 0001:0007da30       _ZN12aho_corasick6packed3api6Config7builder17h5fcbd4f157e00c5cE 000000014007ea30 f   libaho_corasick-b4d6ea81f1a61526:aho_corasick-b4d6ea81f1a61526.aho_corasick.7f4fbca99e96e6a8-cgu.15.rcgu.o
 0001:0007da80       _ZN12aho_corasick6packed3api6Config10match_kind17h6cddd08d944b135cE 000000014007ea80 f   libaho_corasick-b4d6ea81f1a61526:aho_corasick-b4d6ea81f1a61526.aho_corasick.7f4fbca99e96e6a8-cgu.15.rcgu.o
 0001:0007da80       _ZN12regex_syntax3hir9translate17TranslatorBuilder4utf817h4d5a39945dcea66bE 000000014007ea80 f   libregex_syntax-1a078ef20d4d7dee:regex_syntax-1a078ef20d4d7dee.regex_syntax.936f5d3813beee8b-cgu.05.rcgu.o
 0001:0007da90       _ZN12aho_corasick6packed3api7Builder5build17h652536b87af17cebE 000000014007ea90 f   libaho_corasick-b4d6ea81f1a61526:aho_corasick-b4d6ea81f1a61526.aho_corasick.7f4fbca99e96e6a8-cgu.15.rcgu.o
 0001:0007e260       _ZN12aho_corasick6packed3api7Builder3add17hb554c5e974f980b5E 000000014007f260 f   libaho_corasick-b4d6ea81f1a61526:aho_corasick-b4d6ea81f1a61526.aho_corasick.7f4fbca99e96e6a8-cgu.15.rcgu.o
 0001:0007e330       _ZN12aho_corasick6packed3api8Searcher12find_in_slow17hbb402e1b255b246fE 000000014007f330 f   libaho_corasick-b4d6ea81f1a61526:aho_corasick-b4d6ea81f1a61526.aho_corasick.7f4fbca99e96e6a8-cgu.15.rcgu.o
 0001:0007e380       _ZN12aho_corasick6packed3api10SearchKind12memory_usage17hccf487057eb5d599E 000000014007f380 f   libaho_corasick-b4d6ea81f1a61526:aho_corasick-b4d6ea81f1a61526.aho_corasick.7f4fbca99e96e6a8-cgu.15.rcgu.o
 0001:0007e390       _ZN12aho_corasick6packed9rabinkarp9RabinKarp7find_at17hbfa893cf255e316bE 000000014007f390 f   libaho_corasick-b4d6ea81f1a61526:aho_corasick-b4d6ea81f1a61526.aho_corasick.7f4fbca99e96e6a8-cgu.15.rcgu.o
 0001:0007e5e0       _ZN12aho_corasick6packed9rabinkarp9RabinKarp12memory_usage17h1dadd73f5ce384f4E 000000014007f5e0 f   libaho_corasick-b4d6ea81f1a61526:aho_corasick-b4d6ea81f1a61526.aho_corasick.7f4fbca99e96e6a8-cgu.15.rcgu.o
 0001:0007e600       _ZN73_$LT$aho_corasick..util..debug..DebugByte$u20$as$u20$core..fmt..Debug$GT$3fmt17h590bb31fe7aaf642E 000000014007f600 f   libaho_corasick-b4d6ea81f1a61526:aho_corasick-b4d6ea81f1a61526.aho_corasick.7f4fbca99e96e6a8-cgu.15.rcgu.o
 0001:0007e850       _ZN12aho_corasick4util5error10BuildError19pattern_id_overflow17hc091ac521a0519aaE 000000014007f850 f   libaho_corasick-b4d6ea81f1a61526:aho_corasick-b4d6ea81f1a61526.aho_corasick.7f4fbca99e96e6a8-cgu.15.rcgu.o
 0001:0007e870       _ZN12aho_corasick4util5error10BuildError16pattern_too_long17hae534e913c607c81E 000000014007f870 f   libaho_corasick-b4d6ea81f1a61526:aho_corasick-b4d6ea81f1a61526.aho_corasick.7f4fbca99e96e6a8-cgu.15.rcgu.o
 0001:0007e890       _ZN12aho_corasick4util5error10MatchError22invalid_input_anchored17hd246c4e2ae9eb2ccE 000000014007f890 f   libaho_corasick-b4d6ea81f1a61526:aho_corasick-b4d6ea81f1a61526.aho_corasick.7f4fbca99e96e6a8-cgu.15.rcgu.o
 0001:0007e8d0       _ZN12aho_corasick4util5error10MatchError24invalid_input_unanchored17h4ba11d020074937aE 000000014007f8d0 f   libaho_corasick-b4d6ea81f1a61526:aho_corasick-b4d6ea81f1a61526.aho_corasick.7f4fbca99e96e6a8-cgu.15.rcgu.o
 0001:0007e910       _ZN69_$LT$aho_corasick..util..search..Span$u20$as$u20$core..fmt..Debug$GT$3fmt17h19e323494fa96508E 000000014007f910 f   libaho_corasick-b4d6ea81f1a61526:aho_corasick-b4d6ea81f1a61526.aho_corasick.7f4fbca99e96e6a8-cgu.15.rcgu.o
 0001:0007e980       _ZN73_$LT$aho_corasick..packed..api..MatchKind$u20$as$u20$core..fmt..Debug$GT$3fmt17ha414d3f0e609b6b6E 000000014007f980 f   libaho_corasick-b4d6ea81f1a61526:aho_corasick-b4d6ea81f1a61526.aho_corasick.7f4fbca99e96e6a8-cgu.15.rcgu.o
 0001:0007e9b0       _ZN72_$LT$aho_corasick..packed..api..Searcher$u20$as$u20$core..fmt..Debug$GT$3fmt17hcabff0a761341b55E 000000014007f9b0 f   libaho_corasick-b4d6ea81f1a61526:aho_corasick-b4d6ea81f1a61526.aho_corasick.7f4fbca99e96e6a8-cgu.15.rcgu.o
 0001:0007ea90       _ZN74_$LT$aho_corasick..packed..api..SearchKind$u20$as$u20$core..fmt..Debug$GT$3fmt17h1669bcbd9604e855E 000000014007fa90 f   libaho_corasick-b4d6ea81f1a61526:aho_corasick-b4d6ea81f1a61526.aho_corasick.7f4fbca99e96e6a8-cgu.15.rcgu.o
 0001:0007eaf0       _ZN79_$LT$aho_corasick..packed..rabinkarp..RabinKarp$u20$as$u20$core..fmt..Debug$GT$3fmt17ha808c108d281c097E 000000014007faf0 f   libaho_corasick-b4d6ea81f1a61526:aho_corasick-b4d6ea81f1a61526.aho_corasick.7f4fbca99e96e6a8-cgu.15.rcgu.o
 0001:0007ebd0       _ZN74_$LT$aho_corasick..util..error..MatchError$u20$as$u20$core..fmt..Debug$GT$3fmt17hdf50b5b89056fdc9E 000000014007fbd0 f   libaho_corasick-b4d6ea81f1a61526:aho_corasick-b4d6ea81f1a61526.aho_corasick.7f4fbca99e96e6a8-cgu.15.rcgu.o
 0001:0007ec10       _ZN78_$LT$aho_corasick..util..error..MatchErrorKind$u20$as$u20$core..fmt..Debug$GT$3fmt17h7ef42512672886f2E 000000014007fc10 f   libaho_corasick-b4d6ea81f1a61526:aho_corasick-b4d6ea81f1a61526.aho_corasick.7f4fbca99e96e6a8-cgu.15.rcgu.o
 0001:0007ed00       _ZN74_$LT$aho_corasick..util..search..MatchKind$u20$as$u20$core..fmt..Debug$GT$3fmt17h8e2ee426ed8a4ea5E 000000014007fd00 f   libaho_corasick-b4d6ea81f1a61526:aho_corasick-b4d6ea81f1a61526.aho_corasick.7f4fbca99e96e6a8-cgu.15.rcgu.o
 0001:0007ed30       _ZN41_$LT$bool$u20$as$u20$core..fmt..Debug$GT$3fmt17h4532d377961aea6aE.llvm.573348780487807197 000000014007fd30 f   libregex_syntax-1a078ef20d4d7dee:regex_syntax-1a078ef20d4d7dee.regex_syntax.936f5d3813beee8b-cgu.01.rcgu.o
 0001:0007ed40       _ZN12aho_corasick9automaton9Automaton8try_find17hfcc7212d95ddaa3eE 000000014007fd40 f   libaho_corasick-b4d6ea81f1a61526:aho_corasick-b4d6ea81f1a61526.aho_corasick.7f4fbca99e96e6a8-cgu.06.rcgu.o
 0001:0007ed60       _ZN12aho_corasick9automaton9Automaton20try_find_overlapping17h46602cb1f7f2b7d0E 000000014007fd60 f   libaho_corasick-b4d6ea81f1a61526:aho_corasick-b4d6ea81f1a61526.aho_corasick.7f4fbca99e96e6a8-cgu.06.rcgu.o
 0001:0007ed80       _ZN71_$LT$aho_corasick..nfa..contiguous..NFA$u20$as$u20$core..fmt..Debug$GT$3fmt17h687bad69620cef65E 000000014007fd80 f   libaho_corasick-b4d6ea81f1a61526:aho_corasick-b4d6ea81f1a61526.aho_corasick.7f4fbca99e96e6a8-cgu.06.rcgu.o
 0001:0007fb40       _ZN73_$LT$aho_corasick..nfa..contiguous..State$u20$as$u20$core..fmt..Debug$GT$3fmt17h6bf33b23d4a79f5cE 0000000140080b40 f   libaho_corasick-b4d6ea81f1a61526:aho_corasick-b4d6ea81f1a61526.aho_corasick.7f4fbca99e96e6a8-cgu.06.rcgu.o
 0001:00080060       _ZN12aho_corasick3nfa10contiguous7Builder24build_from_noncontiguous17he7f5c45997809754E 0000000140081060 f   libaho_corasick-b4d6ea81f1a61526:aho_corasick-b4d6ea81f1a61526.aho_corasick.7f4fbca99e96e6a8-cgu.06.rcgu.o
 0001:000815e0       _ZN12aho_corasick3nfa10contiguous7u32_len17hf800bc129f3e0b14E 00000001400825e0 f   libaho_corasick-b4d6ea81f1a61526:aho_corasick-b4d6ea81f1a61526.aho_corasick.7f4fbca99e96e6a8-cgu.06.rcgu.o
 0001:00081600       _ZN42_$LT$$RF$T$u20$as$u20$core..fmt..Debug$GT$3fmt17h08e84c0fff63f093E 0000000140082600 f   libaho_corasick-b4d6ea81f1a61526:aho_corasick-b4d6ea81f1a61526.aho_corasick.7f4fbca99e96e6a8-cgu.12.rcgu.o
 0001:00081680       _ZN42_$LT$$RF$T$u20$as$u20$core..fmt..Debug$GT$3fmt17h19a9e8d24ef002a0E 0000000140082680 f   libaho_corasick-b4d6ea81f1a61526:aho_corasick-b4d6ea81f1a61526.aho_corasick.7f4fbca99e96e6a8-cgu.12.rcgu.o
 0001:00081770       _ZN42_$LT$$RF$T$u20$as$u20$core..fmt..Debug$GT$3fmt17h4f739ba47a13d01bE 0000000140082770 f   libaho_corasick-b4d6ea81f1a61526:aho_corasick-b4d6ea81f1a61526.aho_corasick.7f4fbca99e96e6a8-cgu.12.rcgu.o
 0001:00081910       _ZN42_$LT$$RF$T$u20$as$u20$core..fmt..Debug$GT$3fmt17h64b23c3d6ef00624E 0000000140082910 f   libaho_corasick-b4d6ea81f1a61526:aho_corasick-b4d6ea81f1a61526.aho_corasick.7f4fbca99e96e6a8-cgu.12.rcgu.o
 0001:00081a10       _ZN42_$LT$$RF$T$u20$as$u20$core..fmt..Debug$GT$3fmt17h6d7d12cd67c4c75bE 0000000140082a10 f   libaho_corasick-b4d6ea81f1a61526:aho_corasick-b4d6ea81f1a61526.aho_corasick.7f4fbca99e96e6a8-cgu.12.rcgu.o
 0001:00081a90       _ZN42_$LT$$RF$T$u20$as$u20$core..fmt..Debug$GT$3fmt17h86956697709e3a08E 0000000140082a90 f   libaho_corasick-b4d6ea81f1a61526:aho_corasick-b4d6ea81f1a61526.aho_corasick.7f4fbca99e96e6a8-cgu.12.rcgu.o
 0001:00081c10       _ZN42_$LT$$RF$T$u20$as$u20$core..fmt..Debug$GT$3fmt17ha48836d90afa95c2E 0000000140082c10 f   libaho_corasick-b4d6ea81f1a61526:aho_corasick-b4d6ea81f1a61526.aho_corasick.7f4fbca99e96e6a8-cgu.12.rcgu.o
 0001:00081c90       _ZN42_$LT$$RF$T$u20$as$u20$core..fmt..Debug$GT$3fmt17ha8007ade2984f321E 0000000140082c90 f   libaho_corasick-b4d6ea81f1a61526:aho_corasick-b4d6ea81f1a61526.aho_corasick.7f4fbca99e96e6a8-cgu.12.rcgu.o
 0001:00081d10       _ZN42_$LT$$RF$T$u20$as$u20$core..fmt..Debug$GT$3fmt17hb8fcdd430bf4c6a1E 0000000140082d10 f   libaho_corasick-b4d6ea81f1a61526:aho_corasick-b4d6ea81f1a61526.aho_corasick.7f4fbca99e96e6a8-cgu.12.rcgu.o
 0001:00081d90       _ZN42_$LT$$RF$T$u20$as$u20$core..fmt..Debug$GT$3fmt17hd39351873ce97725E 0000000140082d90 f   libaho_corasick-b4d6ea81f1a61526:aho_corasick-b4d6ea81f1a61526.aho_corasick.7f4fbca99e96e6a8-cgu.12.rcgu.o
 0001:00081e90       _ZN42_$LT$$RF$T$u20$as$u20$core..fmt..Debug$GT$3fmt17hdb54e336160b0320E 0000000140082e90 f   libaho_corasick-b4d6ea81f1a61526:aho_corasick-b4d6ea81f1a61526.aho_corasick.7f4fbca99e96e6a8-cgu.12.rcgu.o
 0001:00081f10       _ZN42_$LT$$RF$T$u20$as$u20$core..fmt..Debug$GT$3fmt17he28b11471857e78dE 0000000140082f10 f   libaho_corasick-b4d6ea81f1a61526:aho_corasick-b4d6ea81f1a61526.aho_corasick.7f4fbca99e96e6a8-cgu.12.rcgu.o
 0001:00081f90       _ZN42_$LT$$RF$T$u20$as$u20$core..fmt..Debug$GT$3fmt17he9fb89613e5a243dE 0000000140082f90 f   libaho_corasick-b4d6ea81f1a61526:aho_corasick-b4d6ea81f1a61526.aho_corasick.7f4fbca99e96e6a8-cgu.12.rcgu.o
 0001:00082010       _ZN42_$LT$$RF$T$u20$as$u20$core..fmt..Debug$GT$3fmt17hfa03d7419e7d1296E 0000000140083010 f   libaho_corasick-b4d6ea81f1a61526:aho_corasick-b4d6ea81f1a61526.aho_corasick.7f4fbca99e96e6a8-cgu.12.rcgu.o
 0001:00082090       _ZN4core3ptr108drop_in_place$LT$alloc..vec..Vec$LT$alloc..vec..Vec$LT$aho_corasick..util..primitives..PatternID$GT$$GT$$GT$17h0e0a8e1d087d242eE.llvm.4770241040802308457 0000000140083090 f   libaho_corasick-b4d6ea81f1a61526:aho_corasick-b4d6ea81f1a61526.aho_corasick.7f4fbca99e96e6a8-cgu.11.rcgu.o
 0001:00082550       _ZN4core5array40_$LT$impl$u20$$u5b$T$u3b$$u20$N$u5d$$GT$3map17h55895a1b60c61044E 0000000140083550 f   libaho_corasick-b4d6ea81f1a61526:aho_corasick-b4d6ea81f1a61526.aho_corasick.7f4fbca99e96e6a8-cgu.12.rcgu.o
 0001:00082550       _ZN4core5array40_$LT$impl$u20$$u5b$T$u3b$$u20$N$u5d$$GT$3map17hfa9c416c33adccf8E 0000000140083550 f   libaho_corasick-b4d6ea81f1a61526:aho_corasick-b4d6ea81f1a61526.aho_corasick.7f4fbca99e96e6a8-cgu.12.rcgu.o
 0001:000825f0       _ZN4core5array40_$LT$impl$u20$$u5b$T$u3b$$u20$N$u5d$$GT$3map17hac864a62b6ec8b46E 00000001400835f0 f   libaho_corasick-b4d6ea81f1a61526:aho_corasick-b4d6ea81f1a61526.aho_corasick.7f4fbca99e96e6a8-cgu.12.rcgu.o
 0001:000825f0       _ZN4core5array40_$LT$impl$u20$$u5b$T$u3b$$u20$N$u5d$$GT$3map17hbf3b1c17ff59aed4E 00000001400835f0 f   libaho_corasick-b4d6ea81f1a61526:aho_corasick-b4d6ea81f1a61526.aho_corasick.7f4fbca99e96e6a8-cgu.12.rcgu.o
 0001:00082990       _ZN4core5array40_$LT$impl$u20$$u5b$T$u3b$$u20$N$u5d$$GT$3map17hc1a8891451529165E 0000000140083990 f   libaho_corasick-b4d6ea81f1a61526:aho_corasick-b4d6ea81f1a61526.aho_corasick.7f4fbca99e96e6a8-cgu.12.rcgu.o
 0001:00082990       _ZN4core5array40_$LT$impl$u20$$u5b$T$u3b$$u20$N$u5d$$GT$3map17hcd654cb0c2e8b706E 0000000140083990 f   libaho_corasick-b4d6ea81f1a61526:aho_corasick-b4d6ea81f1a61526.aho_corasick.7f4fbca99e96e6a8-cgu.12.rcgu.o
 0001:00082c50       _ZN5alloc11collections5btree3map5entry28VacantEntry$LT$K$C$V$C$A$GT$6insert17hfefff76444b22855E 0000000140083c50 f   libaho_corasick-b4d6ea81f1a61526:aho_corasick-b4d6ea81f1a61526.aho_corasick.7f4fbca99e96e6a8-cgu.12.rcgu.o
 0001:00082da0       _ZN66_$LT$alloc..sync..Arc$LT$T$C$A$GT$$u20$as$u20$core..fmt..Debug$GT$3fmt17h4cc5b9d8e362a7cdE 0000000140083da0 f   libaho_corasick-b4d6ea81f1a61526:aho_corasick-b4d6ea81f1a61526.aho_corasick.7f4fbca99e96e6a8-cgu.12.rcgu.o
 0001:00082ec0       _ZN66_$LT$alloc..sync..Arc$LT$T$C$A$GT$$u20$as$u20$core..fmt..Debug$GT$3fmt17hf04d8e408a55e35fE 0000000140083ec0 f   libaho_corasick-b4d6ea81f1a61526:aho_corasick-b4d6ea81f1a61526.aho_corasick.7f4fbca99e96e6a8-cgu.12.rcgu.o
 0001:00082ef0       _ZN12aho_corasick6packed5teddy7generic5Match7pattern17h988acf24688520a5E 0000000140083ef0 f   libaho_corasick-b4d6ea81f1a61526:aho_corasick-b4d6ea81f1a61526.aho_corasick.7f4fbca99e96e6a8-cgu.12.rcgu.o
 0001:00082f00       _ZN12aho_corasick4util10primitives12StateIDError9attempted17h9bf1451a7189c1f8E 0000000140083f00 f   libaho_corasick-b4d6ea81f1a61526:aho_corasick-b4d6ea81f1a61526.aho_corasick.7f4fbca99e96e6a8-cgu.08.rcgu.o
 0001:00082f00       _ZN12aho_corasick4util10primitives14PatternIDError9attempted17h6095635db2348b02E 0000000140083f00 f   libaho_corasick-b4d6ea81f1a61526:aho_corasick-b4d6ea81f1a61526.aho_corasick.7f4fbca99e96e6a8-cgu.08.rcgu.o
 0001:00082f00       _ZN12aho_corasick6packed5teddy7generic5Match5start17h9f5dcb912eadf7f0E 0000000140083f00 f   libaho_corasick-b4d6ea81f1a61526:aho_corasick-b4d6ea81f1a61526.aho_corasick.7f4fbca99e96e6a8-cgu.12.rcgu.o
 0001:00082f10       _ZN12aho_corasick6packed5teddy7generic5Match3end17h2f61bfa1f3ec46deE 0000000140083f10 f   libaho_corasick-b4d6ea81f1a61526:aho_corasick-b4d6ea81f1a61526.aho_corasick.7f4fbca99e96e6a8-cgu.12.rcgu.o
 0001:00082f20       _ZN12aho_corasick6packed5teddy7generic14Teddy$LT$_$GT$3new17h7855f255a6c3061fE 0000000140083f20 f   libaho_corasick-b4d6ea81f1a61526:aho_corasick-b4d6ea81f1a61526.aho_corasick.7f4fbca99e96e6a8-cgu.12.rcgu.o
 0001:00083780       _ZN12aho_corasick6packed5teddy7generic14Teddy$LT$_$GT$3new17he18bffad6c3b268cE 0000000140084780 f   libaho_corasick-b4d6ea81f1a61526:aho_corasick-b4d6ea81f1a61526.aho_corasick.7f4fbca99e96e6a8-cgu.12.rcgu.o
 0001:00084030       _ZN52_$LT$u16$u20$as$u20$aho_corasick..util..int..U16$GT$7high_u817h9ab48bb5af65a71bE 0000000140085030 f   libaho_corasick-b4d6ea81f1a61526:aho_corasick-b4d6ea81f1a61526.aho_corasick.7f4fbca99e96e6a8-cgu.12.rcgu.o
 0001:00084040       _ZN52_$LT$u32$u20$as$u20$aho_corasick..util..int..U32$GT$7low_u1617hfcb4a14429d78e97E 0000000140085040 f   libaho_corasick-b4d6ea81f1a61526:aho_corasick-b4d6ea81f1a61526.aho_corasick.7f4fbca99e96e6a8-cgu.12.rcgu.o
 0001:00084050       _ZN92_$LT$aho_corasick..packed..teddy..generic..Slim$LT$V$C$_$GT$$u20$as$u20$core..fmt..Debug$GT$3fmt17h8595d361d1d10511E 0000000140085050 f   libaho_corasick-b4d6ea81f1a61526:aho_corasick-b4d6ea81f1a61526.aho_corasick.7f4fbca99e96e6a8-cgu.12.rcgu.o
 0001:000840d0       _ZN92_$LT$aho_corasick..packed..teddy..generic..Slim$LT$V$C$_$GT$$u20$as$u20$core..fmt..Debug$GT$3fmt17hac48b7e774f9517bE 00000001400850d0 f   libaho_corasick-b4d6ea81f1a61526:aho_corasick-b4d6ea81f1a61526.aho_corasick.7f4fbca99e96e6a8-cgu.12.rcgu.o
 0001:00084150       _ZN92_$LT$aho_corasick..packed..teddy..generic..Slim$LT$V$C$_$GT$$u20$as$u20$core..fmt..Debug$GT$3fmt17had59bb3d942ea86bE 0000000140085150 f   libaho_corasick-b4d6ea81f1a61526:aho_corasick-b4d6ea81f1a61526.aho_corasick.7f4fbca99e96e6a8-cgu.12.rcgu.o
 0001:000841d0       _ZN92_$LT$aho_corasick..packed..teddy..generic..Slim$LT$V$C$_$GT$$u20$as$u20$core..fmt..Debug$GT$3fmt17hf88c5990f5034f43E 00000001400851d0 f   libaho_corasick-b4d6ea81f1a61526:aho_corasick-b4d6ea81f1a61526.aho_corasick.7f4fbca99e96e6a8-cgu.12.rcgu.o
 0001:000843a0       _ZN42_$LT$$RF$T$u20$as$u20$core..fmt..Debug$GT$3fmt17hc1dfa1fc68f89a1eE 00000001400853a0 f   libaho_corasick-b4d6ea81f1a61526:aho_corasick-b4d6ea81f1a61526.aho_corasick.7f4fbca99e96e6a8-cgu.07.rcgu.o
 0001:00084410       _ZN4core3ptr83drop_in_place$LT$core..option..Option$LT$aho_corasick..packed..api..Builder$GT$$GT$17h821c97ff9b86ca86E.llvm.2911066651926653654 0000000140085410 f   libaho_corasick-b4d6ea81f1a61526:aho_corasick-b4d6ea81f1a61526.aho_corasick.7f4fbca99e96e6a8-cgu.07.rcgu.o
 0001:000844d0       _ZN12aho_corasick4util9prefilter9Candidate11into_option17h2382e6715a4f746cE 00000001400854d0 f   libaho_corasick-b4d6ea81f1a61526:aho_corasick-b4d6ea81f1a61526.aho_corasick.7f4fbca99e96e6a8-cgu.07.rcgu.o
 0001:000844f0       _ZN12aho_corasick4util9prefilter7Builder5build17h89b572b0a0789504E 00000001400854f0 f   libaho_corasick-b4d6ea81f1a61526:aho_corasick-b4d6ea81f1a61526.aho_corasick.7f4fbca99e96e6a8-cgu.07.rcgu.o
 0001:000855d0       _ZN12aho_corasick4util9prefilter7Builder3add17h16869b1644d36760E 00000001400865d0 f   libaho_corasick-b4d6ea81f1a61526:aho_corasick-b4d6ea81f1a61526.aho_corasick.7f4fbca99e96e6a8-cgu.07.rcgu.o
 0001:00085b80       _ZN99_$LT$aho_corasick..util..prefilter..Packed$u20$as$u20$aho_corasick..util..prefilter..PrefilterI$GT$7find_in17h221ecc72aae37ea4E 0000000140086b80 f   libaho_corasick-b4d6ea81f1a61526:aho_corasick-b4d6ea81f1a61526.aho_corasick.7f4fbca99e96e6a8-cgu.07.rcgu.o
 0001:00085d10       _ZN99_$LT$aho_corasick..util..prefilter..Memmem$u20$as$u20$aho_corasick..util..prefilter..PrefilterI$GT$7find_in17h1d0eaa81659b6f09E 0000000140086d10 f   libaho_corasick-b4d6ea81f1a61526:aho_corasick-b4d6ea81f1a61526.aho_corasick.7f4fbca99e96e6a8-cgu.07.rcgu.o
 0001:00085e30       _ZN83_$LT$aho_corasick..util..prefilter..RareByteOffsets$u20$as$u20$core..fmt..Debug$GT$3fmt17h6a7a322fad6a215aE 0000000140086e30 f   libaho_corasick-b4d6ea81f1a61526:aho_corasick-b4d6ea81f1a61526.aho_corasick.7f4fbca99e96e6a8-cgu.07.rcgu.o
 0001:00085f60       _ZN105_$LT$aho_corasick..util..prefilter..RareBytesOne$u20$as$u20$aho_corasick..util..prefilter..PrefilterI$GT$7find_in17h70e0bdc7a87758e2E 0000000140086f60 f   libaho_corasick-b4d6ea81f1a61526:aho_corasick-b4d6ea81f1a61526.aho_corasick.7f4fbca99e96e6a8-cgu.07.rcgu.o
 0001:00086010       _ZN105_$LT$aho_corasick..util..prefilter..RareBytesTwo$u20$as$u20$aho_corasick..util..prefilter..PrefilterI$GT$7find_in17ha2804f2330b63c27E 0000000140087010 f   libaho_corasick-b4d6ea81f1a61526:aho_corasick-b4d6ea81f1a61526.aho_corasick.7f4fbca99e96e6a8-cgu.07.rcgu.o
 0001:00086100       _ZN107_$LT$aho_corasick..util..prefilter..RareBytesThree$u20$as$u20$aho_corasick..util..prefilter..PrefilterI$GT$7find_in17h18a81883b3cbc436E 0000000140087100 f   libaho_corasick-b4d6ea81f1a61526:aho_corasick-b4d6ea81f1a61526.aho_corasick.7f4fbca99e96e6a8-cgu.07.rcgu.o
 0001:00086200       _ZN106_$LT$aho_corasick..util..prefilter..StartBytesOne$u20$as$u20$aho_corasick..util..prefilter..PrefilterI$GT$7find_in17h608e51f5b51a12bfE 0000000140087200 f   libaho_corasick-b4d6ea81f1a61526:aho_corasick-b4d6ea81f1a61526.aho_corasick.7f4fbca99e96e6a8-cgu.07.rcgu.o
 0001:00086290       _ZN106_$LT$aho_corasick..util..prefilter..StartBytesTwo$u20$as$u20$aho_corasick..util..prefilter..PrefilterI$GT$7find_in17h6ad4b1b864be6902E 0000000140087290 f   libaho_corasick-b4d6ea81f1a61526:aho_corasick-b4d6ea81f1a61526.aho_corasick.7f4fbca99e96e6a8-cgu.07.rcgu.o
 0001:00086320       _ZN108_$LT$aho_corasick..util..prefilter..StartBytesThree$u20$as$u20$aho_corasick..util..prefilter..PrefilterI$GT$7find_in17h40aafeeeeb2c3598E 0000000140087320 f   libaho_corasick-b4d6ea81f1a61526:aho_corasick-b4d6ea81f1a61526.aho_corasick.7f4fbca99e96e6a8-cgu.07.rcgu.o
 0001:000863c0       _ZN12aho_corasick4util9prefilter19opposite_ascii_case17h107534d696dd47f3E 00000001400873c0 f   libaho_corasick-b4d6ea81f1a61526:aho_corasick-b4d6ea81f1a61526.aho_corasick.7f4fbca99e96e6a8-cgu.07.rcgu.o
 0001:000863e0       _ZN74_$LT$aho_corasick..util..prefilter..Packed$u20$as$u20$core..fmt..Debug$GT$3fmt17h279102debcb5823fE 00000001400873e0 f   libaho_corasick-b4d6ea81f1a61526:aho_corasick-b4d6ea81f1a61526.aho_corasick.7f4fbca99e96e6a8-cgu.07.rcgu.o
 0001:00086420       _ZN74_$LT$aho_corasick..util..prefilter..Memmem$u20$as$u20$core..fmt..Debug$GT$3fmt17he116376bb5913078E 0000000140087420 f   libaho_corasick-b4d6ea81f1a61526:aho_corasick-b4d6ea81f1a61526.aho_corasick.7f4fbca99e96e6a8-cgu.07.rcgu.o
 0001:00086460       _ZN80_$LT$aho_corasick..util..prefilter..RareBytesOne$u20$as$u20$core..fmt..Debug$GT$3fmt17he028488877a77c0cE 0000000140087460 f   libaho_corasick-b4d6ea81f1a61526:aho_corasick-b4d6ea81f1a61526.aho_corasick.7f4fbca99e96e6a8-cgu.07.rcgu.o
 0001:000864e0       _ZN80_$LT$aho_corasick..util..prefilter..RareBytesTwo$u20$as$u20$core..fmt..Debug$GT$3fmt17hb395842a2984694eE 00000001400874e0 f   libaho_corasick-b4d6ea81f1a61526:aho_corasick-b4d6ea81f1a61526.aho_corasick.7f4fbca99e96e6a8-cgu.07.rcgu.o
 0001:000865a0       _ZN82_$LT$aho_corasick..util..prefilter..RareBytesThree$u20$as$u20$core..fmt..Debug$GT$3fmt17h8bc8fc2d35390ce3E 00000001400875a0 f   libaho_corasick-b4d6ea81f1a61526:aho_corasick-b4d6ea81f1a61526.aho_corasick.7f4fbca99e96e6a8-cgu.07.rcgu.o
 0001:00086690       _ZN81_$LT$aho_corasick..util..prefilter..StartBytesOne$u20$as$u20$core..fmt..Debug$GT$3fmt17hd346d3106832070eE 0000000140087690 f   libaho_corasick-b4d6ea81f1a61526:aho_corasick-b4d6ea81f1a61526.aho_corasick.7f4fbca99e96e6a8-cgu.07.rcgu.o
 0001:000866e0       _ZN81_$LT$aho_corasick..util..prefilter..StartBytesTwo$u20$as$u20$core..fmt..Debug$GT$3fmt17h6c8bb53b2d928b53E 00000001400876e0 f   libaho_corasick-b4d6ea81f1a61526:aho_corasick-b4d6ea81f1a61526.aho_corasick.7f4fbca99e96e6a8-cgu.07.rcgu.o
 0001:00086760       _ZN83_$LT$aho_corasick..util..prefilter..StartBytesThree$u20$as$u20$core..fmt..Debug$GT$3fmt17h3a21c3d0c2634f80E 0000000140087760 f   libaho_corasick-b4d6ea81f1a61526:aho_corasick-b4d6ea81f1a61526.aho_corasick.7f4fbca99e96e6a8-cgu.07.rcgu.o
 0001:000868a0       _ZN12aho_corasick9automaton9Automaton8try_find17h98b8aa498c2a1daeE 00000001400878a0 f   libaho_corasick-b4d6ea81f1a61526:aho_corasick-b4d6ea81f1a61526.aho_corasick.7f4fbca99e96e6a8-cgu.03.rcgu.o
 0001:000868c0       _ZN12aho_corasick9automaton9Automaton20try_find_overlapping17hc66c77daa7a8ca13E 00000001400878c0 f   libaho_corasick-b4d6ea81f1a61526:aho_corasick-b4d6ea81f1a61526.aho_corasick.7f4fbca99e96e6a8-cgu.03.rcgu.o
 0001:000868e0       _ZN12aho_corasick3nfa13noncontiguous3NFA10iter_trans17h057d773dfd5ae7f6E 00000001400878e0 f   libaho_corasick-b4d6ea81f1a61526:aho_corasick-b4d6ea81f1a61526.aho_corasick.7f4fbca99e96e6a8-cgu.03.rcgu.o
 0001:00086910       _ZN12aho_corasick3nfa13noncontiguous3NFA12iter_matches17h69ebf4e238be9e72E 0000000140087910 f   libaho_corasick-b4d6ea81f1a61526:aho_corasick-b4d6ea81f1a61526.aho_corasick.7f4fbca99e96e6a8-cgu.03.rcgu.o
 0001:00086940       _ZN12aho_corasick3nfa13noncontiguous3NFA14add_transition17h9060a7c677d47914E 0000000140087940 f   libaho_corasick-b4d6ea81f1a61526:aho_corasick-b4d6ea81f1a61526.aho_corasick.7f4fbca99e96e6a8-cgu.03.rcgu.o
 0001:00086e30       _ZN12aho_corasick3nfa13noncontiguous3NFA9add_match17h5de0e119ae7c4ab1E 0000000140087e30 f   libaho_corasick-b4d6ea81f1a61526:aho_corasick-b4d6ea81f1a61526.aho_corasick.7f4fbca99e96e6a8-cgu.03.rcgu.o
 0001:00087160       _ZN12aho_corasick3nfa13noncontiguous3NFA11alloc_state17h126b7fbc5f97c4b2E 0000000140088160 f   libaho_corasick-b4d6ea81f1a61526:aho_corasick-b4d6ea81f1a61526.aho_corasick.7f4fbca99e96e6a8-cgu.03.rcgu.o
 0001:00087230       _ZN12aho_corasick3nfa13noncontiguous5State8is_match17h9307439fc475bd38E 0000000140088230 f   libaho_corasick-b4d6ea81f1a61526:aho_corasick-b4d6ea81f1a61526.aho_corasick.7f4fbca99e96e6a8-cgu.03.rcgu.o
 0001:00087240       _ZN12aho_corasick3nfa13noncontiguous5State4fail17h7ce43a3a980a35f9E 0000000140088240 f   libaho_corasick-b4d6ea81f1a61526:aho_corasick-b4d6ea81f1a61526.aho_corasick.7f4fbca99e96e6a8-cgu.03.rcgu.o
 0001:00087250       _ZN12aho_corasick3nfa13noncontiguous8Compiler3new17h88312f6ed7c76798E 0000000140088250 f   libaho_corasick-b4d6ea81f1a61526:aho_corasick-b4d6ea81f1a61526.aho_corasick.7f4fbca99e96e6a8-cgu.03.rcgu.o
 0001:000876f0       _ZN12aho_corasick3nfa13noncontiguous8Compiler24fill_failure_transitions17haf81b2e124ad4d0eE 00000001400886f0 f   libaho_corasick-b4d6ea81f1a61526:aho_corasick-b4d6ea81f1a61526.aho_corasick.7f4fbca99e96e6a8-cgu.03.rcgu.o
 0001:00087fa0       _ZN12aho_corasick3nfa13noncontiguous8Compiler7shuffle17h886f44b24207e6a7E 0000000140088fa0 f   libaho_corasick-b4d6ea81f1a61526:aho_corasick-b4d6ea81f1a61526.aho_corasick.7f4fbca99e96e6a8-cgu.03.rcgu.o
 0001:000884b0       _ZN12aho_corasick3nfa13noncontiguous8Compiler7densify17hc9daa6f92bd07ea9E 00000001400894b0 f   libaho_corasick-b4d6ea81f1a61526:aho_corasick-b4d6ea81f1a61526.aho_corasick.7f4fbca99e96e6a8-cgu.03.rcgu.o
 0001:00088740       _ZN12aho_corasick3nfa13noncontiguous8Compiler27init_unanchored_start_state17hea201d77b4dfbf7fE 0000000140089740 f   libaho_corasick-b4d6ea81f1a61526:aho_corasick-b4d6ea81f1a61526.aho_corasick.7f4fbca99e96e6a8-cgu.03.rcgu.o
 0001:000887c0       _ZN12aho_corasick3nfa13noncontiguous8Compiler24set_anchored_start_state17h84339227fdb6c1abE 00000001400897c0 f   libaho_corasick-b4d6ea81f1a61526:aho_corasick-b4d6ea81f1a61526.aho_corasick.7f4fbca99e96e6a8-cgu.03.rcgu.o
 0001:000889f0       _ZN12aho_corasick3nfa13noncontiguous8Compiler31add_unanchored_start_state_loop17h7606a12f0584581cE 00000001400899f0 f   libaho_corasick-b4d6ea81f1a61526:aho_corasick-b4d6ea81f1a61526.aho_corasick.7f4fbca99e96e6a8-cgu.03.rcgu.o
 0001:00088a80       _ZN12aho_corasick3nfa13noncontiguous8Compiler35close_start_state_loop_for_leftmost17h27f8656db72fd720E 0000000140089a80 f   libaho_corasick-b4d6ea81f1a61526:aho_corasick-b4d6ea81f1a61526.aho_corasick.7f4fbca99e96e6a8-cgu.03.rcgu.o
 0001:00088bc0       _ZN12aho_corasick3nfa13noncontiguous8Compiler19add_dead_state_loop17h45b1ceacbd24c51eE 0000000140089bc0 f   libaho_corasick-b4d6ea81f1a61526:aho_corasick-b4d6ea81f1a61526.aho_corasick.7f4fbca99e96e6a8-cgu.03.rcgu.o
 0001:00088c00       _ZN74_$LT$aho_corasick..nfa..noncontiguous..NFA$u20$as$u20$core..fmt..Debug$GT$3fmt17h093b9ca8f66a0aaeE 0000000140089c00 f   libaho_corasick-b4d6ea81f1a61526:aho_corasick-b4d6ea81f1a61526.aho_corasick.7f4fbca99e96e6a8-cgu.03.rcgu.o
 0001:000898f0       _ZN98_$LT$aho_corasick..nfa..noncontiguous..NFA$u20$as$u20$aho_corasick..util..remapper..Remappable$GT$5remap17hd1c3d5e4c738cd13E 000000014008a8f0 f   libaho_corasick-b4d6ea81f1a61526:aho_corasick-b4d6ea81f1a61526.aho_corasick.7f4fbca99e96e6a8-cgu.03.rcgu.o
 0001:00089ac0       _ZN12aho_corasick9automaton9Automaton8try_find17ha48ce3ec4d5439aaE 000000014008aac0 f   libaho_corasick-b4d6ea81f1a61526:aho_corasick-b4d6ea81f1a61526.aho_corasick.7f4fbca99e96e6a8-cgu.04.rcgu.o
 0001:00089ae0       _ZN12aho_corasick9automaton9Automaton20try_find_overlapping17hfc11a3a204452521E 000000014008aae0 f   libaho_corasick-b4d6ea81f1a61526:aho_corasick-b4d6ea81f1a61526.aho_corasick.7f4fbca99e96e6a8-cgu.04.rcgu.o
 0001:00089b00       _ZN12aho_corasick3dfa3DFA7builder17hae3d4983c412b735E 000000014008ab00 f   libaho_corasick-b4d6ea81f1a61526:aho_corasick-b4d6ea81f1a61526.aho_corasick.7f4fbca99e96e6a8-cgu.04.rcgu.o
 0001:00089b00       _ZN12aho_corasick3dfa7Builder3new17hcf34f8b96031bc0cE 000000014008ab00 f   libaho_corasick-b4d6ea81f1a61526:aho_corasick-b4d6ea81f1a61526.aho_corasick.7f4fbca99e96e6a8-cgu.04.rcgu.o
 0001:00089b00       _ZN69_$LT$aho_corasick..dfa..Builder$u20$as$u20$core..default..Default$GT$7default17h8af36d2e947e8957E 000000014008ab00 f   libaho_corasick-b4d6ea81f1a61526:aho_corasick-b4d6ea81f1a61526.aho_corasick.7f4fbca99e96e6a8-cgu.04.rcgu.o
 0001:00089c50       _ZN59_$LT$aho_corasick..dfa..DFA$u20$as$u20$core..fmt..Debug$GT$3fmt17h77229c03531e8322E 000000014008ac50 f   libaho_corasick-b4d6ea81f1a61526:aho_corasick-b4d6ea81f1a61526.aho_corasick.7f4fbca99e96e6a8-cgu.04.rcgu.o
 0001:0008aa20       _ZN12aho_corasick3dfa7Builder24build_from_noncontiguous17h04461aebe438c309E 000000014008ba20 f   libaho_corasick-b4d6ea81f1a61526:aho_corasick-b4d6ea81f1a61526.aho_corasick.7f4fbca99e96e6a8-cgu.04.rcgu.o
 0001:0008cee0       _ZN12aho_corasick3dfa7Builder10match_kind17h925b5250bfba70b0E 000000014008dee0 f   libaho_corasick-b4d6ea81f1a61526:aho_corasick-b4d6ea81f1a61526.aho_corasick.7f4fbca99e96e6a8-cgu.04.rcgu.o
 0001:0008cef0       _ZN12aho_corasick3dfa7Builder9prefilter17h64eddeece3b19bccE 000000014008def0 f   libaho_corasick-b4d6ea81f1a61526:aho_corasick-b4d6ea81f1a61526.aho_corasick.7f4fbca99e96e6a8-cgu.04.rcgu.o
 0001:0008cf00       _ZN12aho_corasick3dfa7Builder10start_kind17h8a83477cfc457bddE 000000014008df00 f   libaho_corasick-b4d6ea81f1a61526:aho_corasick-b4d6ea81f1a61526.aho_corasick.7f4fbca99e96e6a8-cgu.04.rcgu.o
 0001:0008cf10       _ZN42_$LT$$RF$T$u20$as$u20$core..fmt..Debug$GT$3fmt17h1d200dbb271cfd10E 000000014008df10 f   libaho_corasick-b4d6ea81f1a61526:aho_corasick-b4d6ea81f1a61526.aho_corasick.7f4fbca99e96e6a8-cgu.08.rcgu.o
 0001:0008cf60       _ZN42_$LT$$RF$T$u20$as$u20$core..fmt..Debug$GT$3fmt17h3fd4854582036a7eE.llvm.13302588950870518637 000000014008df60 f   libaho_corasick-b4d6ea81f1a61526:aho_corasick-b4d6ea81f1a61526.aho_corasick.7f4fbca99e96e6a8-cgu.08.rcgu.o
 0001:0008cfb0       _ZN42_$LT$$RF$T$u20$as$u20$core..fmt..Debug$GT$3fmt17h614330d919a292f5E.llvm.13302588950870518637 000000014008dfb0 f   libaho_corasick-b4d6ea81f1a61526:aho_corasick-b4d6ea81f1a61526.aho_corasick.7f4fbca99e96e6a8-cgu.08.rcgu.o
 0001:0008d070       _ZN78_$LT$aho_corasick..util..alphabet..ByteClasses$u20$as$u20$core..fmt..Debug$GT$3fmt17h3b4f647173bfd5d1E 000000014008e070 f   libaho_corasick-b4d6ea81f1a61526:aho_corasick-b4d6ea81f1a61526.aho_corasick.7f4fbca99e96e6a8-cgu.08.rcgu.o
 0001:0008d410       _ZN12aho_corasick4util8alphabet12ByteClassSet9set_range17h0c8061561e89c0e2E 000000014008e410 f   libaho_corasick-b4d6ea81f1a61526:aho_corasick-b4d6ea81f1a61526.aho_corasick.7f4fbca99e96e6a8-cgu.08.rcgu.o
 0001:0008d490       _ZN12aho_corasick4util8alphabet12ByteClassSet12byte_classes17hee8830c244706025E 000000014008e490 f   libaho_corasick-b4d6ea81f1a61526:aho_corasick-b4d6ea81f1a61526.aho_corasick.7f4fbca99e96e6a8-cgu.08.rcgu.o
 0001:0008d5b0       _ZN96_$LT$aho_corasick..util..primitives..SmallIndex$u20$as$u20$core..convert..TryFrom$LT$u64$GT$$GT$8try_from17hc3c0f38fe69d9641E 000000014008e5b0 f   libaho_corasick-b4d6ea81f1a61526:aho_corasick-b4d6ea81f1a61526.aho_corasick.7f4fbca99e96e6a8-cgu.08.rcgu.o
 0001:0008d5b0       _ZN98_$LT$aho_corasick..util..primitives..SmallIndex$u20$as$u20$core..convert..TryFrom$LT$usize$GT$$GT$8try_from17hb2837f28bff8b9feE 000000014008e5b0 f   libaho_corasick-b4d6ea81f1a61526:aho_corasick-b4d6ea81f1a61526.aho_corasick.7f4fbca99e96e6a8-cgu.08.rcgu.o
 0001:0008d5d0       _ZN84_$LT$aho_corasick..util..primitives..SmallIndexError$u20$as$u20$core..fmt..Debug$GT$3fmt17hbebb497e923c2374E 000000014008e5d0 f   libaho_corasick-b4d6ea81f1a61526:aho_corasick-b4d6ea81f1a61526.aho_corasick.7f4fbca99e96e6a8-cgu.08.rcgu.o
 0001:0008d620       _ZN81_$LT$aho_corasick..util..primitives..StateIDError$u20$as$u20$core..fmt..Debug$GT$3fmt17h3ca8bb4c953c1c60E 000000014008e620 f   libaho_corasick-b4d6ea81f1a61526:aho_corasick-b4d6ea81f1a61526.aho_corasick.7f4fbca99e96e6a8-cgu.08.rcgu.o
 0001:0008d660       _ZN12aho_corasick9automaton12try_find_fwd17h0c59f8f9fb24b0aeE 000000014008e660 f   libaho_corasick-b4d6ea81f1a61526:aho_corasick-b4d6ea81f1a61526.aho_corasick.7f4fbca99e96e6a8-cgu.05.rcgu.o
 0001:0008e670       _ZN12aho_corasick9automaton12try_find_fwd17h8085b1f0d5650ea9E 000000014008f670 f   libaho_corasick-b4d6ea81f1a61526:aho_corasick-b4d6ea81f1a61526.aho_corasick.7f4fbca99e96e6a8-cgu.05.rcgu.o
 0001:0008f180       _ZN12aho_corasick9automaton12try_find_fwd17he1e805153e7bbad0E 0000000140090180 f   libaho_corasick-b4d6ea81f1a61526:aho_corasick-b4d6ea81f1a61526.aho_corasick.7f4fbca99e96e6a8-cgu.05.rcgu.o
 0001:00090ec0       _ZN12aho_corasick9automaton24try_find_overlapping_fwd17h32f59ef1c73a4f53E 0000000140091ec0 f   libaho_corasick-b4d6ea81f1a61526:aho_corasick-b4d6ea81f1a61526.aho_corasick.7f4fbca99e96e6a8-cgu.05.rcgu.o
 0001:00091fc0       _ZN12aho_corasick9automaton24try_find_overlapping_fwd17h6ed557d0c1fbdd88E 0000000140092fc0 f   libaho_corasick-b4d6ea81f1a61526:aho_corasick-b4d6ea81f1a61526.aho_corasick.7f4fbca99e96e6a8-cgu.05.rcgu.o
 0001:00092680       _ZN12aho_corasick9automaton24try_find_overlapping_fwd17hf71a4a4accce906aE 0000000140093680 f   libaho_corasick-b4d6ea81f1a61526:aho_corasick-b4d6ea81f1a61526.aho_corasick.7f4fbca99e96e6a8-cgu.05.rcgu.o
 0001:00093100       _ZN12aho_corasick9automaton19fmt_state_indicator17h3258b31384d4b3adE 0000000140094100 f   libaho_corasick-b4d6ea81f1a61526:aho_corasick-b4d6ea81f1a61526.aho_corasick.7f4fbca99e96e6a8-cgu.05.rcgu.o
 0001:000931a0       _ZN12aho_corasick9automaton19fmt_state_indicator17h8a590d4a7904512dE 00000001400941a0 f   libaho_corasick-b4d6ea81f1a61526:aho_corasick-b4d6ea81f1a61526.aho_corasick.7f4fbca99e96e6a8-cgu.05.rcgu.o
 0001:00093240       _ZN12aho_corasick9automaton19fmt_state_indicator17ha093e19e303f5095E 0000000140094240 f   libaho_corasick-b4d6ea81f1a61526:aho_corasick-b4d6ea81f1a61526.aho_corasick.7f4fbca99e96e6a8-cgu.05.rcgu.o
 0001:000932e0       _ZN42_$LT$$RF$T$u20$as$u20$core..fmt..Debug$GT$3fmt17h2106e6bb15bb4400E 00000001400942e0 f   libaho_corasick-b4d6ea81f1a61526:aho_corasick-b4d6ea81f1a61526.aho_corasick.7f4fbca99e96e6a8-cgu.11.rcgu.o
 0001:00093360       _ZN42_$LT$$RF$T$u20$as$u20$core..fmt..Debug$GT$3fmt17h50fbc2cc40b23db8E 0000000140094360 f   libaho_corasick-b4d6ea81f1a61526:aho_corasick-b4d6ea81f1a61526.aho_corasick.7f4fbca99e96e6a8-cgu.11.rcgu.o
 0001:000933e0       _ZN42_$LT$$RF$T$u20$as$u20$core..fmt..Debug$GT$3fmt17h519e0dfe64288d43E 00000001400943e0 f   libaho_corasick-b4d6ea81f1a61526:aho_corasick-b4d6ea81f1a61526.aho_corasick.7f4fbca99e96e6a8-cgu.11.rcgu.o
 0001:000935b0       _ZN42_$LT$$RF$T$u20$as$u20$core..fmt..Debug$GT$3fmt17hbc8c1b03c70a6e80E 00000001400945b0 f   libaho_corasick-b4d6ea81f1a61526:aho_corasick-b4d6ea81f1a61526.aho_corasick.7f4fbca99e96e6a8-cgu.11.rcgu.o
 0001:000936b0       _ZN42_$LT$$RF$T$u20$as$u20$core..fmt..Debug$GT$3fmt17hbd44c74253f12e2cE 00000001400946b0 f   libaho_corasick-b4d6ea81f1a61526:aho_corasick-b4d6ea81f1a61526.aho_corasick.7f4fbca99e96e6a8-cgu.11.rcgu.o
 0001:00093730       _ZN4core3ptr147drop_in_place$LT$$LT$T$u20$as$u20$alloc..slice..hack..ConvertVec$GT$..to_vec..DropGuard$LT$alloc..vec..Vec$LT$u8$GT$$C$alloc..alloc..Global$GT$$GT$17h4bd71b94ce2ad7bfE.llvm.4770241040802308457 0000000140094730 f   libaho_corasick-b4d6ea81f1a61526:aho_corasick-b4d6ea81f1a61526.aho_corasick.7f4fbca99e96e6a8-cgu.11.rcgu.o
 0001:00093730       _ZN4core3ptr157drop_in_place$LT$$LT$T$u20$as$u20$alloc..slice..hack..ConvertVec$GT$..to_vec..DropGuard$LT$regex_syntax..hir..literal..Literal$C$alloc..alloc..Global$GT$$GT$17hcb1f93e3a6720bb1E.llvm.2631318121689656173 0000000140094730 f   libregex_syntax-1a078ef20d4d7dee:regex_syntax-1a078ef20d4d7dee.regex_syntax.936f5d3813beee8b-cgu.02.rcgu.o
 0001:00093740       _ZN62_$LT$T$u20$as$u20$alloc..vec..spec_from_elem..SpecFromElem$GT$9from_elem17h7b1672748e00900bE 0000000140094740 f   libaho_corasick-b4d6ea81f1a61526:aho_corasick-b4d6ea81f1a61526.aho_corasick.7f4fbca99e96e6a8-cgu.11.rcgu.o
 0001:00093b50       _ZN62_$LT$T$u20$as$u20$alloc..vec..spec_from_elem..SpecFromElem$GT$9from_elem17hdce193f66eb5ad1cE 0000000140094b50 f   libaho_corasick-b4d6ea81f1a61526:aho_corasick-b4d6ea81f1a61526.aho_corasick.7f4fbca99e96e6a8-cgu.11.rcgu.o
 0001:00093f60       _ZN65_$LT$alloc..vec..Vec$LT$T$C$A$GT$$u20$as$u20$core..fmt..Debug$GT$3fmt17h036f4fb8ee087f58E 0000000140094f60 f   libaho_corasick-b4d6ea81f1a61526:aho_corasick-b4d6ea81f1a61526.aho_corasick.7f4fbca99e96e6a8-cgu.11.rcgu.o
 0001:00093fe0       _ZN65_$LT$alloc..vec..Vec$LT$T$C$A$GT$$u20$as$u20$core..fmt..Debug$GT$3fmt17h2b3eb7c8f5fe83d1E 0000000140094fe0 f   libaho_corasick-b4d6ea81f1a61526:aho_corasick-b4d6ea81f1a61526.aho_corasick.7f4fbca99e96e6a8-cgu.11.rcgu.o
 0001:00094060       _ZN65_$LT$alloc..vec..Vec$LT$T$C$A$GT$$u20$as$u20$core..fmt..Debug$GT$3fmt17h5dba1effc3744ec2E 0000000140095060 f   libaho_corasick-b4d6ea81f1a61526:aho_corasick-b4d6ea81f1a61526.aho_corasick.7f4fbca99e96e6a8-cgu.11.rcgu.o
 0001:000940e0       _ZN65_$LT$alloc..vec..Vec$LT$T$C$A$GT$$u20$as$u20$core..fmt..Debug$GT$3fmt17ha6ed10dd2e423cf5E 00000001400950e0 f   libaho_corasick-b4d6ea81f1a61526:aho_corasick-b4d6ea81f1a61526.aho_corasick.7f4fbca99e96e6a8-cgu.11.rcgu.o
 0001:00094160       _ZN65_$LT$alloc..vec..Vec$LT$T$C$A$GT$$u20$as$u20$core..fmt..Debug$GT$3fmt17hdab58d90932f1f1dE 0000000140095160 f   libaho_corasick-b4d6ea81f1a61526:aho_corasick-b4d6ea81f1a61526.aho_corasick.7f4fbca99e96e6a8-cgu.11.rcgu.o
 0001:000941e0       _ZN67_$LT$alloc..vec..Vec$LT$T$C$A$GT$$u20$as$u20$core..clone..Clone$GT$5clone17h7d99f14cf7424e65E 00000001400951e0 f   libaho_corasick-b4d6ea81f1a61526:aho_corasick-b4d6ea81f1a61526.aho_corasick.7f4fbca99e96e6a8-cgu.11.rcgu.o
 0001:000943b0       _ZN5alloc7raw_vec19RawVec$LT$T$C$A$GT$16reserve_for_push17hfdec6e5c3ae990f7E 00000001400953b0 f   libaho_corasick-b4d6ea81f1a61526:aho_corasick-b4d6ea81f1a61526.aho_corasick.7f4fbca99e96e6a8-cgu.02.rcgu.o
 0001:000944c0       _ZN4core5slice4sort10merge_sort17h935803ec60085951E 00000001400954c0 f   libaho_corasick-b4d6ea81f1a61526:aho_corasick-b4d6ea81f1a61526.aho_corasick.7f4fbca99e96e6a8-cgu.10.rcgu.o
 0001:00094e20       _ZN4core5slice4sort10merge_sort17he23cd3887ade5e19E 0000000140095e20 f   libaho_corasick-b4d6ea81f1a61526:aho_corasick-b4d6ea81f1a61526.aho_corasick.7f4fbca99e96e6a8-cgu.10.rcgu.o
 0001:00095be0       _ZN5alloc11collections9vec_deque21VecDeque$LT$T$C$A$GT$4grow17h46951c890aba05afE.llvm.15233433793776332764 0000000140096be0 f   libaho_corasick-b4d6ea81f1a61526:aho_corasick-b4d6ea81f1a61526.aho_corasick.7f4fbca99e96e6a8-cgu.10.rcgu.o
 0001:00096c70       _ZN12aho_corasick6packed5teddy7builder6x86_6424SlimSSSE3$LT$1_usize$GT$13new_unchecked17h88bf5f68ab82592dE.llvm.17846080284425199279 0000000140097c70 f   libaho_corasick-b4d6ea81f1a61526:aho_corasick-b4d6ea81f1a61526.aho_corasick.7f4fbca99e96e6a8-cgu.00.rcgu.o
 0001:00097730       _ZN12aho_corasick6packed5teddy7builder6x86_6424SlimSSSE3$LT$2_usize$GT$3new17h56bc1dc6e86a4504E 0000000140098730 f   libaho_corasick-b4d6ea81f1a61526:aho_corasick-b4d6ea81f1a61526.aho_corasick.7f4fbca99e96e6a8-cgu.00.rcgu.o
 0001:00097790       _ZN12aho_corasick6packed5teddy7builder6x86_6424SlimSSSE3$LT$2_usize$GT$13new_unchecked17hc9e031d404d91091E.llvm.17846080284425199279 0000000140098790 f   libaho_corasick-b4d6ea81f1a61526:aho_corasick-b4d6ea81f1a61526.aho_corasick.7f4fbca99e96e6a8-cgu.00.rcgu.o
 0001:00098430       _ZN12aho_corasick6packed5teddy7builder6x86_6424SlimSSSE3$LT$3_usize$GT$3new17h07d509f87a17f36eE 0000000140099430 f   libaho_corasick-b4d6ea81f1a61526:aho_corasick-b4d6ea81f1a61526.aho_corasick.7f4fbca99e96e6a8-cgu.00.rcgu.o
 0001:00098490       _ZN12aho_corasick6packed5teddy7builder6x86_6424SlimSSSE3$LT$3_usize$GT$13new_unchecked17hb621ecef0b75b175E.llvm.17846080284425199279 0000000140099490 f   libaho_corasick-b4d6ea81f1a61526:aho_corasick-b4d6ea81f1a61526.aho_corasick.7f4fbca99e96e6a8-cgu.00.rcgu.o
 0001:000992c0       _ZN12aho_corasick6packed5teddy7builder6x86_6424SlimSSSE3$LT$4_usize$GT$3new17h5d3c537b858501e1E 000000014009a2c0 f   libaho_corasick-b4d6ea81f1a61526:aho_corasick-b4d6ea81f1a61526.aho_corasick.7f4fbca99e96e6a8-cgu.00.rcgu.o
 0001:00099320       _ZN12aho_corasick6packed5teddy7builder6x86_6424SlimSSSE3$LT$4_usize$GT$13new_unchecked17h3e615de7971e08e6E.llvm.17846080284425199279 000000014009a320 f   libaho_corasick-b4d6ea81f1a61526:aho_corasick-b4d6ea81f1a61526.aho_corasick.7f4fbca99e96e6a8-cgu.00.rcgu.o
 0001:0009a430       _ZN12aho_corasick6packed5teddy7builder6x86_6423SlimAVX2$LT$1_usize$GT$13new_unchecked17h381695cf47be2ddaE.llvm.17846080284425199279 000000014009b430 f   libaho_corasick-b4d6ea81f1a61526:aho_corasick-b4d6ea81f1a61526.aho_corasick.7f4fbca99e96e6a8-cgu.00.rcgu.o
 0001:0009bf10       _ZN12aho_corasick6packed5teddy7builder6x86_6423SlimAVX2$LT$2_usize$GT$3new17h26d555ff7f3a9880E 000000014009cf10 f   libaho_corasick-b4d6ea81f1a61526:aho_corasick-b4d6ea81f1a61526.aho_corasick.7f4fbca99e96e6a8-cgu.00.rcgu.o
 0001:0009bf70       _ZN12aho_corasick6packed5teddy7builder6x86_6423SlimAVX2$LT$2_usize$GT$13new_unchecked17he97570d3d10fc6fcE.llvm.17846080284425199279 000000014009cf70 f   libaho_corasick-b4d6ea81f1a61526:aho_corasick-b4d6ea81f1a61526.aho_corasick.7f4fbca99e96e6a8-cgu.00.rcgu.o
 0001:0009dc80       _ZN12aho_corasick6packed5teddy7builder6x86_6423SlimAVX2$LT$3_usize$GT$3new17hfae73df230015cd2E 000000014009ec80 f   libaho_corasick-b4d6ea81f1a61526:aho_corasick-b4d6ea81f1a61526.aho_corasick.7f4fbca99e96e6a8-cgu.00.rcgu.o
 0001:0009dce0       _ZN12aho_corasick6packed5teddy7builder6x86_6423SlimAVX2$LT$3_usize$GT$13new_unchecked17h8447e0cd993c0e41E.llvm.17846080284425199279 000000014009ece0 f   libaho_corasick-b4d6ea81f1a61526:aho_corasick-b4d6ea81f1a61526.aho_corasick.7f4fbca99e96e6a8-cgu.00.rcgu.o
 0001:0009fce0       _ZN12aho_corasick6packed5teddy7builder6x86_6423SlimAVX2$LT$4_usize$GT$3new17h9881a6931dc895aaE 00000001400a0ce0 f   libaho_corasick-b4d6ea81f1a61526:aho_corasick-b4d6ea81f1a61526.aho_corasick.7f4fbca99e96e6a8-cgu.00.rcgu.o
 0001:0009fd40       _ZN12aho_corasick6packed5teddy7builder6x86_6423SlimAVX2$LT$4_usize$GT$13new_unchecked17h865d3677606242bdE.llvm.17846080284425199279 00000001400a0d40 f   libaho_corasick-b4d6ea81f1a61526:aho_corasick-b4d6ea81f1a61526.aho_corasick.7f4fbca99e96e6a8-cgu.00.rcgu.o
 0001:000a1f80       _ZN12aho_corasick6packed5teddy7builder6x86_6422FatAVX2$LT$1_usize$GT$13new_unchecked17hdd37c16573b147f3E.llvm.17846080284425199279 00000001400a2f80 f   libaho_corasick-b4d6ea81f1a61526:aho_corasick-b4d6ea81f1a61526.aho_corasick.7f4fbca99e96e6a8-cgu.00.rcgu.o
 0001:000a3070       _ZN12aho_corasick6packed5teddy7builder6x86_6422FatAVX2$LT$2_usize$GT$3new17h737d8aed0e8a00b4E 00000001400a4070 f   libaho_corasick-b4d6ea81f1a61526:aho_corasick-b4d6ea81f1a61526.aho_corasick.7f4fbca99e96e6a8-cgu.00.rcgu.o
 0001:000a30d0       _ZN12aho_corasick6packed5teddy7builder6x86_6422FatAVX2$LT$2_usize$GT$13new_unchecked17h63050878c023cd2eE.llvm.17846080284425199279 00000001400a40d0 f   libaho_corasick-b4d6ea81f1a61526:aho_corasick-b4d6ea81f1a61526.aho_corasick.7f4fbca99e96e6a8-cgu.00.rcgu.o
 0001:000a4330       _ZN12aho_corasick6packed5teddy7builder6x86_6422FatAVX2$LT$3_usize$GT$3new17heee764d00e843a7dE 00000001400a5330 f   libaho_corasick-b4d6ea81f1a61526:aho_corasick-b4d6ea81f1a61526.aho_corasick.7f4fbca99e96e6a8-cgu.00.rcgu.o
 0001:000a4390       _ZN12aho_corasick6packed5teddy7builder6x86_6422FatAVX2$LT$3_usize$GT$13new_unchecked17h4572f29ce39304b2E.llvm.17846080284425199279 00000001400a5390 f   libaho_corasick-b4d6ea81f1a61526:aho_corasick-b4d6ea81f1a61526.aho_corasick.7f4fbca99e96e6a8-cgu.00.rcgu.o
 0001:000a5770       _ZN12aho_corasick6packed5teddy7builder6x86_6422FatAVX2$LT$4_usize$GT$3new17haffb62afdd84de5dE 00000001400a6770 f   libaho_corasick-b4d6ea81f1a61526:aho_corasick-b4d6ea81f1a61526.aho_corasick.7f4fbca99e96e6a8-cgu.00.rcgu.o
 0001:000a57d0       _ZN12aho_corasick6packed5teddy7builder6x86_6422FatAVX2$LT$4_usize$GT$13new_unchecked17h18b6c3114f427477E.llvm.17846080284425199279 00000001400a67d0 f   libaho_corasick-b4d6ea81f1a61526:aho_corasick-b4d6ea81f1a61526.aho_corasick.7f4fbca99e96e6a8-cgu.00.rcgu.o
 0001:000a6d30       _ZN4core5array5drain16drain_array_with17h06b663bff6aab624E 00000001400a7d30 f   libaho_corasick-b4d6ea81f1a61526:aho_corasick-b4d6ea81f1a61526.aho_corasick.7f4fbca99e96e6a8-cgu.13.rcgu.o
 0001:000a6da0       _ZN4core5array5drain16drain_array_with17h1c1ffcde1f8f91ddE 00000001400a7da0 f   libaho_corasick-b4d6ea81f1a61526:aho_corasick-b4d6ea81f1a61526.aho_corasick.7f4fbca99e96e6a8-cgu.13.rcgu.o
 0001:000a6da0       _ZN4core5array5drain16drain_array_with17h61c39897c435c87cE 00000001400a7da0 f   libaho_corasick-b4d6ea81f1a61526:aho_corasick-b4d6ea81f1a61526.aho_corasick.7f4fbca99e96e6a8-cgu.13.rcgu.o
 0001:000a7260       _ZN5alloc11collections5btree3map25BTreeMap$LT$K$C$V$C$A$GT$6insert17h7860e3dab46dc69eE 00000001400a8260 f   libaho_corasick-b4d6ea81f1a61526:aho_corasick-b4d6ea81f1a61526.aho_corasick.7f4fbca99e96e6a8-cgu.13.rcgu.o
 0001:000a73c0       _ZN5alloc11collections5btree3map25BTreeMap$LT$K$C$V$C$A$GT$6insert17ha3bb564fbe29184fE 00000001400a83c0 f   libaho_corasick-b4d6ea81f1a61526:aho_corasick-b4d6ea81f1a61526.aho_corasick.7f4fbca99e96e6a8-cgu.13.rcgu.o
 0001:000a7500       _ZN5alloc11collections5btree3map25IntoIter$LT$K$C$V$C$A$GT$10dying_next17haeb27ee59834f8ccE.llvm.12485847494875040689 00000001400a8500 f   libaho_corasick-b4d6ea81f1a61526:aho_corasick-b4d6ea81f1a61526.aho_corasick.7f4fbca99e96e6a8-cgu.13.rcgu.o
 0001:000a7890       _ZN5alloc11collections5btree3map25IntoIter$LT$K$C$V$C$A$GT$10dying_next17he7c88be20f8dfb3dE.llvm.12485847494875040689 00000001400a8890 f   libaho_corasick-b4d6ea81f1a61526:aho_corasick-b4d6ea81f1a61526.aho_corasick.7f4fbca99e96e6a8-cgu.13.rcgu.o
 0001:000a7ca0       _ZN5alloc11collections5btree4node210Handle$LT$alloc..collections..btree..node..NodeRef$LT$alloc..collections..btree..node..marker..Mut$C$K$C$V$C$alloc..collections..btree..node..marker..Leaf$GT$$C$alloc..collections..btree..node..marker..Edge$GT$16insert_recursing17h232ed77f268f00edE 00000001400a8ca0 f   libaho_corasick-b4d6ea81f1a61526:aho_corasick-b4d6ea81f1a61526.aho_corasick.7f4fbca99e96e6a8-cgu.01.rcgu.o
 0001:000a89f0       _ZN5alloc11collections5btree4node210Handle$LT$alloc..collections..btree..node..NodeRef$LT$alloc..collections..btree..node..marker..Mut$C$K$C$V$C$alloc..collections..btree..node..marker..Leaf$GT$$C$alloc..collections..btree..node..marker..Edge$GT$16insert_recursing17h5337544f73156a53E 00000001400a99f0 f   libaho_corasick-b4d6ea81f1a61526:aho_corasick-b4d6ea81f1a61526.aho_corasick.7f4fbca99e96e6a8-cgu.01.rcgu.o
 0001:000a9d10       _ZN6memchr4arch6x86_646memchr10memchr_raw6detect17h092a994c3db0441bE 00000001400aad10 f   libmemchr-b8eb2490671cc383:memchr-b8eb2490671cc383.memchr.604f8ec62383ffd8-cgu.0.rcgu.o
 0001:000a9fa0       _ZN6memchr4arch6x86_646memchr11memchr2_raw6detect17hd55fe9d247505befE 00000001400aafa0 f   libmemchr-b8eb2490671cc383:memchr-b8eb2490671cc383.memchr.604f8ec62383ffd8-cgu.0.rcgu.o
 0001:000aa2e0       _ZN6memchr4arch6x86_646memchr11memchr3_raw6detect17h1e5e0d1009f149c8E 00000001400ab2e0 f   libmemchr-b8eb2490671cc383:memchr-b8eb2490671cc383.memchr.604f8ec62383ffd8-cgu.0.rcgu.o
 0001:000aa3c0       _ZN42_$LT$$RF$T$u20$as$u20$core..fmt..Debug$GT$3fmt17h198ffe4ca31e2bbdE 00000001400ab3c0 f   libmemchr-b8eb2490671cc383:memchr-b8eb2490671cc383.memchr.604f8ec62383ffd8-cgu.3.rcgu.o
 0001:000aa3c0       _ZN42_$LT$$RF$T$u20$as$u20$core..fmt..Debug$GT$3fmt17h9366cdd31be03862E 00000001400ab3c0 f   libgoblin-8ee2c552e4c10df6:goblin-8ee2c552e4c10df6.goblin.f087800e97e1b550-cgu.14.rcgu.o
 0001:000aa450       _ZN125_$LT$memchr..arch..all..packedpair..DefaultFrequencyRank$u20$as$u20$memchr..arch..all..packedpair..HeuristicFrequencyRank$GT$4rank17hccde7babe634d775E 00000001400ab450 f   libmemchr-b8eb2490671cc383:memchr-b8eb2490671cc383.memchr.604f8ec62383ffd8-cgu.3.rcgu.o
 0001:000aa460       _ZN73_$LT$memchr..arch..all..rabinkarp..Finder$u20$as$u20$core..fmt..Debug$GT$3fmt17h50d8b534b8e33506E 00000001400ab460 f   libmemchr-b8eb2490671cc383:memchr-b8eb2490671cc383.memchr.604f8ec62383ffd8-cgu.3.rcgu.o
 0001:000aa4e0       _ZN71_$LT$memchr..arch..all..rabinkarp..Hash$u20$as$u20$core..fmt..Debug$GT$3fmt17h25ff00212af69434E 00000001400ab4e0 f   libmemchr-b8eb2490671cc383:memchr-b8eb2490671cc383.memchr.604f8ec62383ffd8-cgu.3.rcgu.o
 0001:000aa520       _ZN58_$LT$memchr..cow..CowBytes$u20$as$u20$core..fmt..Debug$GT$3fmt17h8b9ddc547a7f7d1aE 00000001400ab520 f   libmemchr-b8eb2490671cc383:memchr-b8eb2490671cc383.memchr.604f8ec62383ffd8-cgu.3.rcgu.o
 0001:000aa560       _ZN6memchr4arch3all6twoway5Shift7forward17h76c2f57fd5938fffE 00000001400ab560 f   libmemchr-b8eb2490671cc383:memchr-b8eb2490671cc383.memchr.604f8ec62383ffd8-cgu.2.rcgu.o
 0001:000aa690       _ZN6memchr4arch3all6twoway6Suffix7forward17hb76fe6533a1f79f1E 00000001400ab690 f   libmemchr-b8eb2490671cc383:memchr-b8eb2490671cc383.memchr.604f8ec62383ffd8-cgu.2.rcgu.o
 0001:000aa7f0       _ZN6memchr4arch3all6twoway18ApproximateByteSet3new17hed7bc5677515b90fE 00000001400ab7f0 f   libmemchr-b8eb2490671cc383:memchr-b8eb2490671cc383.memchr.604f8ec62383ffd8-cgu.2.rcgu.o
 0001:000aa870       _ZN59_$LT$memchr..memmem..Finder$u20$as$u20$core..fmt..Debug$GT$3fmt17hdd28619213767d5fE 00000001400ab870 f   libmemchr-b8eb2490671cc383:memchr-b8eb2490671cc383.memchr.604f8ec62383ffd8-cgu.2.rcgu.o
 0001:000aa8f0       _ZN42_$LT$$RF$T$u20$as$u20$core..fmt..Debug$GT$3fmt17h8f0dde833c1883deE 00000001400ab8f0 f   libmemchr-b8eb2490671cc383:memchr-b8eb2490671cc383.memchr.604f8ec62383ffd8-cgu.1.rcgu.o
 0001:000ab460       _ZN6memchr6memmem8searcher19searcher_kind_empty17haa734e5f94214e86E 00000001400ac460 f   libmemchr-b8eb2490671cc383:memchr-b8eb2490671cc383.memchr.604f8ec62383ffd8-cgu.1.rcgu.o
 0001:000ab470       _ZN6memchr6memmem8searcher22searcher_kind_one_byte17hf705f114234caac3E 00000001400ac470 f   libmemchr-b8eb2490671cc383:memchr-b8eb2490671cc383.memchr.604f8ec62383ffd8-cgu.1.rcgu.o
 0001:000ab4b0       _ZN6memchr6memmem8searcher21searcher_kind_two_way17h1ef9378ebda6ef0aE 00000001400ac4b0 f   libmemchr-b8eb2490671cc383:memchr-b8eb2490671cc383.memchr.604f8ec62383ffd8-cgu.1.rcgu.o
 0001:000ab940       _ZN6memchr6memmem8searcher36searcher_kind_two_way_with_prefilter17h890cd8f329775380E 00000001400ac940 f   libmemchr-b8eb2490671cc383:memchr-b8eb2490671cc383.memchr.604f8ec62383ffd8-cgu.1.rcgu.o
 0001:000ac120       _ZN6memchr6memmem8searcher18searcher_kind_sse217h7a7686d0eb235462E 00000001400ad120 f   libmemchr-b8eb2490671cc383:memchr-b8eb2490671cc383.memchr.604f8ec62383ffd8-cgu.1.rcgu.o
 0001:000ac6e0       _ZN6memchr6memmem8searcher18searcher_kind_avx217h92716796069fd2bcE 00000001400ad6e0 f   libmemchr-b8eb2490671cc383:memchr-b8eb2490671cc383.memchr.604f8ec62383ffd8-cgu.1.rcgu.o
 0001:000ac7f0       _ZN6memchr6memmem8searcher15PrefilterConfig7is_none17h3c71f7ece9f37374E 00000001400ad7f0 f   libmemchr-b8eb2490671cc383:memchr-b8eb2490671cc383.memchr.604f8ec62383ffd8-cgu.1.rcgu.o
 0001:000ac800       _ZN6memchr6memmem8searcher19prefilter_kind_sse217hb70e971ce3b43655E 00000001400ad800 f   libmemchr-b8eb2490671cc383:memchr-b8eb2490671cc383.memchr.604f8ec62383ffd8-cgu.1.rcgu.o
 0001:000acab0       _ZN6memchr6memmem8searcher19prefilter_kind_avx217hf9aa925b79194f7cE 00000001400adab0 f   libmemchr-b8eb2490671cc383:memchr-b8eb2490671cc383.memchr.604f8ec62383ffd8-cgu.1.rcgu.o
 0001:000acf80       _ZN98_$LT$regex_syntax..error..Error$u20$as$u20$core..convert..From$LT$regex_syntax..ast..Error$GT$$GT$4from17h9a13299698c63cb9E 00000001400adf80 f   libregex_syntax-1a078ef20d4d7dee:regex_syntax-1a078ef20d4d7dee.regex_syntax.936f5d3813beee8b-cgu.06.rcgu.o
 0001:000acfd0       _ZN98_$LT$regex_syntax..error..Error$u20$as$u20$core..convert..From$LT$regex_syntax..hir..Error$GT$$GT$4from17h408860fd0de144eeE 00000001400adfd0 f   libregex_syntax-1a078ef20d4d7dee:regex_syntax-1a078ef20d4d7dee.regex_syntax.936f5d3813beee8b-cgu.06.rcgu.o
 0001:000ad010       _ZN65_$LT$regex_syntax..error..Error$u20$as$u20$core..fmt..Display$GT$3fmt17h78cfd2d9d94e0df6E 00000001400ae010 f   libregex_syntax-1a078ef20d4d7dee:regex_syntax-1a078ef20d4d7dee.regex_syntax.936f5d3813beee8b-cgu.06.rcgu.o
 0001:000ad0b0       _ZN78_$LT$regex_syntax..error..Formatter$LT$E$GT$$u20$as$u20$core..fmt..Display$GT$3fmt17h2c8a4a8e735b5cbdE 00000001400ae0b0 f   libregex_syntax-1a078ef20d4d7dee:regex_syntax-1a078ef20d4d7dee.regex_syntax.936f5d3813beee8b-cgu.06.rcgu.o
 0001:000ada90       _ZN78_$LT$regex_syntax..error..Formatter$LT$E$GT$$u20$as$u20$core..fmt..Display$GT$3fmt17h72f44d86e8a68209E 00000001400aea90 f   libregex_syntax-1a078ef20d4d7dee:regex_syntax-1a078ef20d4d7dee.regex_syntax.936f5d3813beee8b-cgu.06.rcgu.o
 0001:000ae6f0       _ZN12regex_syntax5error5Spans3add17h448867415c4a8ebbE 00000001400af6f0 f   libregex_syntax-1a078ef20d4d7dee:regex_syntax-1a078ef20d4d7dee.regex_syntax.936f5d3813beee8b-cgu.06.rcgu.o
 0001:000ae810       _ZN12regex_syntax5error5Spans6notate17hacd84166d15a3ac3E 00000001400af810 f   libregex_syntax-1a078ef20d4d7dee:regex_syntax-1a078ef20d4d7dee.regex_syntax.936f5d3813beee8b-cgu.06.rcgu.o
 0001:000af000       _ZN4core3fmt5Write9write_fmt17h56e941b54a3639ccE 00000001400b0000 f   libregex_syntax-1a078ef20d4d7dee:regex_syntax-1a078ef20d4d7dee.regex_syntax.936f5d3813beee8b-cgu.09.rcgu.o
 0001:000af010       _ZN62_$LT$regex_syntax..debug..Byte$u20$as$u20$core..fmt..Debug$GT$3fmt17h5a3998fe7b34dd73E 00000001400b0010 f   libregex_syntax-1a078ef20d4d7dee:regex_syntax-1a078ef20d4d7dee.regex_syntax.936f5d3813beee8b-cgu.09.rcgu.o
 0001:000af260       _ZN63_$LT$regex_syntax..debug..Bytes$u20$as$u20$core..fmt..Debug$GT$3fmt17hcec547a887be359dE 00000001400b0260 f   libregex_syntax-1a078ef20d4d7dee:regex_syntax-1a078ef20d4d7dee.regex_syntax.936f5d3813beee8b-cgu.09.rcgu.o
 0001:000af6e0       _ZN12regex_syntax5debug11utf8_decode17h0bf3eedbcf3bce3dE 00000001400b06e0 f   libregex_syntax-1a078ef20d4d7dee:regex_syntax-1a078ef20d4d7dee.regex_syntax.936f5d3813beee8b-cgu.09.rcgu.o
 0001:000af820       _ZN12regex_syntax4utf812Utf8Sequence8as_slice17hb896bf21a8656cabE 00000001400b0820 f   libregex_syntax-1a078ef20d4d7dee:regex_syntax-1a078ef20d4d7dee.regex_syntax.936f5d3813beee8b-cgu.09.rcgu.o
 0001:000af860       _ZN12regex_syntax4utf812Utf8Sequence7reverse17h4fdfce1b7ba828fdE 00000001400b0860 f   libregex_syntax-1a078ef20d4d7dee:regex_syntax-1a078ef20d4d7dee.regex_syntax.936f5d3813beee8b-cgu.09.rcgu.o
 0001:000af8b0       _ZN12regex_syntax4utf813Utf8Sequences3new17h057b13473aec1de8E 00000001400b08b0 f   libregex_syntax-1a078ef20d4d7dee:regex_syntax-1a078ef20d4d7dee.regex_syntax.936f5d3813beee8b-cgu.09.rcgu.o
 0001:000af950       _ZN92_$LT$regex_syntax..utf8..Utf8Sequences$u20$as$u20$core..iter..traits..iterator..Iterator$GT$4next17hc895166306ad9c8bE 00000001400b0950 f   libregex_syntax-1a078ef20d4d7dee:regex_syntax-1a078ef20d4d7dee.regex_syntax.936f5d3813beee8b-cgu.09.rcgu.o
 0001:000aff10       _ZN12regex_syntax17is_meta_character17h2b8165b710c2b212E 00000001400b0f10 f   libregex_syntax-1a078ef20d4d7dee:regex_syntax-1a078ef20d4d7dee.regex_syntax.936f5d3813beee8b-cgu.09.rcgu.o
 0001:000aff30       _ZN12regex_syntax21try_is_word_character17h44a66b0aa24a1c53E 00000001400b0f30 f   libregex_syntax-1a078ef20d4d7dee:regex_syntax-1a078ef20d4d7dee.regex_syntax.936f5d3813beee8b-cgu.09.rcgu.o
 0001:000affd0       _ZN44_$LT$$RF$T$u20$as$u20$core..fmt..Display$GT$3fmt17hb8276819987b8cb4E 00000001400b0fd0 f   libregex_syntax-1a078ef20d4d7dee:regex_syntax-1a078ef20d4d7dee.regex_syntax.936f5d3813beee8b-cgu.08.rcgu.o
 0001:000affe0       _ZN4core3ptr43drop_in_place$LT$regex_syntax..ast..Ast$GT$17he647054e5ec40e10E.llvm.8454077967597911764 00000001400b0fe0 f   libregex_syntax-1a078ef20d4d7dee:regex_syntax-1a078ef20d4d7dee.regex_syntax.936f5d3813beee8b-cgu.08.rcgu.o
 0001:000b0480       _ZN4core3ptr45drop_in_place$LT$regex_syntax..ast..Group$GT$17h2c21b1cb06ac326dE.llvm.8454077967597911764 00000001400b1480 f   libregex_syntax-1a078ef20d4d7dee:regex_syntax-1a078ef20d4d7dee.regex_syntax.936f5d3813beee8b-cgu.08.rcgu.o
 0001:000b0520       _ZN4core3ptr46drop_in_place$LT$regex_syntax..ast..Concat$GT$17habc20dc1335df9fdE.llvm.8454077967597911764 00000001400b1520 f   libregex_syntax-1a078ef20d4d7dee:regex_syntax-1a078ef20d4d7dee.regex_syntax.936f5d3813beee8b-cgu.08.rcgu.o
 0001:000b0520       _ZN4core3ptr51drop_in_place$LT$regex_syntax..ast..Alternation$GT$17h80e697d8fae90db1E.llvm.8454077967597911764 00000001400b1520 f   libregex_syntax-1a078ef20d4d7dee:regex_syntax-1a078ef20d4d7dee.regex_syntax.936f5d3813beee8b-cgu.08.rcgu.o
 0001:000b0640       _ZN4core3ptr48drop_in_place$LT$regex_syntax..ast..ClassSet$GT$17ha59ae3a2695da1c7E.llvm.8454077967597911764 00000001400b1640 f   libregex_syntax-1a078ef20d4d7dee:regex_syntax-1a078ef20d4d7dee.regex_syntax.936f5d3813beee8b-cgu.08.rcgu.o
 0001:000b0800       _ZN4core3ptr48drop_in_place$LT$regex_syntax..ast..SetFlags$GT$17hb73325f2948dab49E.llvm.8454077967597911764 00000001400b1800 f   libregex_syntax-1a078ef20d4d7dee:regex_syntax-1a078ef20d4d7dee.regex_syntax.936f5d3813beee8b-cgu.08.rcgu.o
 0001:000b0800       _ZN4core3ptr86drop_in_place$LT$alloc..vec..Vec$LT$goblin..elf..program_header..ProgramHeader$GT$$GT$17hfcb3e6969251e893E.llvm.15661059199776731258 00000001400b1800 f   libgoblin-8ee2c552e4c10df6:goblin-8ee2c552e4c10df6.goblin.f087800e97e1b550-cgu.03.rcgu.o
 0001:000b0820       _ZN4core3ptr50drop_in_place$LT$regex_syntax..ast..Repetition$GT$17ha5ee2d47dcc74966E.llvm.8454077967597911764 00000001400b1820 f   libregex_syntax-1a078ef20d4d7dee:regex_syntax-1a078ef20d4d7dee.regex_syntax.936f5d3813beee8b-cgu.08.rcgu.o
 0001:000b0880       _ZN4core3ptr52drop_in_place$LT$regex_syntax..ast..ClassSetItem$GT$17hdd3684f3983c3195E.llvm.8454077967597911764 00000001400b1880 f   libregex_syntax-1a078ef20d4d7dee:regex_syntax-1a078ef20d4d7dee.regex_syntax.936f5d3813beee8b-cgu.08.rcgu.o
 0001:000b09b0       _ZN4core3ptr52drop_in_place$LT$regex_syntax..ast..ClassUnicode$GT$17hf27455f895017843E.llvm.8454077967597911764 00000001400b19b0 f   libregex_syntax-1a078ef20d4d7dee:regex_syntax-1a078ef20d4d7dee.regex_syntax.936f5d3813beee8b-cgu.08.rcgu.o
 0001:000b0a10       _ZN4core3ptr53drop_in_place$LT$regex_syntax..ast..ClassSetUnion$GT$17h3770790f0d697352E.llvm.8454077967597911764 00000001400b1a10 f   libregex_syntax-1a078ef20d4d7dee:regex_syntax-1a078ef20d4d7dee.regex_syntax.936f5d3813beee8b-cgu.08.rcgu.o
 0001:000b0a80       _ZN4core3ptr54drop_in_place$LT$regex_syntax..ast..ClassBracketed$GT$17h1ab23b9531f620e3E.llvm.8454077967597911764 00000001400b1a80 f   libregex_syntax-1a078ef20d4d7dee:regex_syntax-1a078ef20d4d7dee.regex_syntax.936f5d3813beee8b-cgu.08.rcgu.o
 0001:000b0a90       _ZN4core3ptr56drop_in_place$LT$regex_syntax..ast..ClassSetBinaryOp$GT$17h3d7cbdb3265931e5E.llvm.8454077967597911764 00000001400b1a90 f   libregex_syntax-1a078ef20d4d7dee:regex_syntax-1a078ef20d4d7dee.regex_syntax.936f5d3813beee8b-cgu.08.rcgu.o
 0001:000b0e00       _ZN4core3ptr73drop_in_place$LT$alloc..boxed..Box$LT$regex_syntax..ast..ClassSet$GT$$GT$17he474a0dfbad7d9b4E.llvm.8454077967597911764 00000001400b1e00 f   libregex_syntax-1a078ef20d4d7dee:regex_syntax-1a078ef20d4d7dee.regex_syntax.936f5d3813beee8b-cgu.08.rcgu.o
 0001:000b0ff0       _ZN67_$LT$regex_syntax..ast..ErrorKind$u20$as$u20$core..fmt..Display$GT$3fmt17h6fbecb06332cab9cE 00000001400b1ff0 f   libregex_syntax-1a078ef20d4d7dee:regex_syntax-1a078ef20d4d7dee.regex_syntax.936f5d3813beee8b-cgu.08.rcgu.o
 0001:000b1220       _ZN12regex_syntax3ast3Ast5empty17h1d6503e1a1c1016fE 00000001400b2220 f   libregex_syntax-1a078ef20d4d7dee:regex_syntax-1a078ef20d4d7dee.regex_syntax.936f5d3813beee8b-cgu.08.rcgu.o
 0001:000b1280       _ZN12regex_syntax3ast11Alternation8into_ast17hb02f20c8289308b7E 00000001400b2280 f   libregex_syntax-1a078ef20d4d7dee:regex_syntax-1a078ef20d4d7dee.regex_syntax.936f5d3813beee8b-cgu.08.rcgu.o
 0001:000b1410       _ZN12regex_syntax3ast6Concat8into_ast17h7157a61d8db7565eE 00000001400b2410 f   libregex_syntax-1a078ef20d4d7dee:regex_syntax-1a078ef20d4d7dee.regex_syntax.936f5d3813beee8b-cgu.08.rcgu.o
 0001:000b15a0       _ZN12regex_syntax3ast14ClassAsciiKind9from_name17hfcf44a8b6ed3c727E 00000001400b25a0 f   libregex_syntax-1a078ef20d4d7dee:regex_syntax-1a078ef20d4d7dee.regex_syntax.936f5d3813beee8b-cgu.08.rcgu.o
 0001:000b1740       _ZN12regex_syntax3ast13ClassSetUnion4push17hffbd7304bc80ce1aE 00000001400b2740 f   libregex_syntax-1a078ef20d4d7dee:regex_syntax-1a078ef20d4d7dee.regex_syntax.936f5d3813beee8b-cgu.08.rcgu.o
 0001:000b1860       _ZN12regex_syntax3ast13ClassSetUnion9into_item17h8c625880dea8f0efE 00000001400b2860 f   libregex_syntax-1a078ef20d4d7dee:regex_syntax-1a078ef20d4d7dee.regex_syntax.936f5d3813beee8b-cgu.08.rcgu.o
 0001:000b19f0       _ZN64_$LT$regex_syntax..ast..Ast$u20$as$u20$core..ops..drop..Drop$GT$4drop17h8e44e342d42a4903E 00000001400b29f0 f   libregex_syntax-1a078ef20d4d7dee:regex_syntax-1a078ef20d4d7dee.regex_syntax.936f5d3813beee8b-cgu.08.rcgu.o
 0001:000b2040       _ZN69_$LT$regex_syntax..ast..ClassSet$u20$as$u20$core..ops..drop..Drop$GT$4drop17h6be1d0a626cc989eE 00000001400b3040 f   libregex_syntax-1a078ef20d4d7dee:regex_syntax-1a078ef20d4d7dee.regex_syntax.936f5d3813beee8b-cgu.08.rcgu.o
 0001:000b2860       _ZN42_$LT$$RF$T$u20$as$u20$core..fmt..Debug$GT$3fmt17h2a88ea2fe14cd795E.llvm.573348780487807197 00000001400b3860 f   libregex_syntax-1a078ef20d4d7dee:regex_syntax-1a078ef20d4d7dee.regex_syntax.936f5d3813beee8b-cgu.01.rcgu.o
 0001:000b2910       _ZN42_$LT$$RF$T$u20$as$u20$core..fmt..Debug$GT$3fmt17h42f7d49ef0083850E 00000001400b3910 f   libregex_syntax-1a078ef20d4d7dee:regex_syntax-1a078ef20d4d7dee.regex_syntax.936f5d3813beee8b-cgu.01.rcgu.o
 0001:000b2960       _ZN42_$LT$$RF$T$u20$as$u20$core..fmt..Debug$GT$3fmt17h6782dd6ad0cb7f4aE 00000001400b3960 f   libregex_syntax-1a078ef20d4d7dee:regex_syntax-1a078ef20d4d7dee.regex_syntax.936f5d3813beee8b-cgu.01.rcgu.o
 0001:000b2970       _ZN42_$LT$$RF$T$u20$as$u20$core..fmt..Debug$GT$3fmt17ha5ceeaa1b064cdf1E.llvm.573348780487807197 00000001400b3970 f   libregex_syntax-1a078ef20d4d7dee:regex_syntax-1a078ef20d4d7dee.regex_syntax.936f5d3813beee8b-cgu.01.rcgu.o
 0001:000b2980       _ZN42_$LT$$RF$T$u20$as$u20$core..fmt..Debug$GT$3fmt17hbc4eea46713aa87dE 00000001400b3980 f   libregex_syntax-1a078ef20d4d7dee:regex_syntax-1a078ef20d4d7dee.regex_syntax.936f5d3813beee8b-cgu.01.rcgu.o
 0001:000b2990       _ZN42_$LT$$RF$T$u20$as$u20$core..fmt..Debug$GT$3fmt17hc5829eed39e91627E 00000001400b3990 f   libregex_syntax-1a078ef20d4d7dee:regex_syntax-1a078ef20d4d7dee.regex_syntax.936f5d3813beee8b-cgu.01.rcgu.o
 0001:000b29e0       _ZN42_$LT$$RF$T$u20$as$u20$core..fmt..Debug$GT$3fmt17hc7b418a214353ed0E.llvm.573348780487807197 00000001400b39e0 f   libregex_syntax-1a078ef20d4d7dee:regex_syntax-1a078ef20d4d7dee.regex_syntax.936f5d3813beee8b-cgu.01.rcgu.o
 0001:000b29f0       _ZN42_$LT$$RF$T$u20$as$u20$core..fmt..Debug$GT$3fmt17hc9b9d14e829f35b0E.llvm.573348780487807197 00000001400b39f0 f   libregex_syntax-1a078ef20d4d7dee:regex_syntax-1a078ef20d4d7dee.regex_syntax.936f5d3813beee8b-cgu.01.rcgu.o
 0001:000b2a10       _ZN42_$LT$$RF$T$u20$as$u20$core..fmt..Debug$GT$3fmt17hd237f1da6ef8ef6aE.llvm.573348780487807197 00000001400b3a10 f   libregex_syntax-1a078ef20d4d7dee:regex_syntax-1a078ef20d4d7dee.regex_syntax.936f5d3813beee8b-cgu.01.rcgu.o
 0001:000b2b00       _ZN42_$LT$$RF$T$u20$as$u20$core..fmt..Debug$GT$3fmt17hf10ae06c5ca481bdE 00000001400b3b00 f   libregex_syntax-1a078ef20d4d7dee:regex_syntax-1a078ef20d4d7dee.regex_syntax.936f5d3813beee8b-cgu.01.rcgu.o
 0001:000b2b90       _ZN44_$LT$$RF$T$u20$as$u20$core..fmt..Display$GT$3fmt17h52b874fcaf506416E 00000001400b3b90 f   libregex_syntax-1a078ef20d4d7dee:regex_syntax-1a078ef20d4d7dee.regex_syntax.936f5d3813beee8b-cgu.01.rcgu.o
 0001:000b2f60       _ZN4core3ptr82drop_in_place$LT$alloc..vec..into_iter..IntoIter$LT$regex_syntax..hir..Hir$GT$$GT$17hfc9f4c8661ddf4e4E.llvm.2631318121689656173 00000001400b3f60 f   libregex_syntax-1a078ef20d4d7dee:regex_syntax-1a078ef20d4d7dee.regex_syntax.936f5d3813beee8b-cgu.02.rcgu.o
 0001:000b2f90       _ZN12regex_syntax3hir8interval8Interval10difference17h0918566e66f4620dE 00000001400b3f90 f   libregex_syntax-1a078ef20d4d7dee:regex_syntax-1a078ef20d4d7dee.regex_syntax.936f5d3813beee8b-cgu.01.rcgu.o
 0001:000b3110       _ZN12regex_syntax3hir8interval8Interval10difference17h39d22f9e0cb5970aE 00000001400b4110 f   libregex_syntax-1a078ef20d4d7dee:regex_syntax-1a078ef20d4d7dee.regex_syntax.936f5d3813beee8b-cgu.01.rcgu.o
 0001:000b3230       _ZN12regex_syntax3hir3Hir9into_kind17h02b8d34c6beecfdeE 00000001400b4230 f   libregex_syntax-1a078ef20d4d7dee:regex_syntax-1a078ef20d4d7dee.regex_syntax.936f5d3813beee8b-cgu.01.rcgu.o
 0001:000b32f0       _ZN12regex_syntax3hir3Hir10properties17hff9462be28b348fcE 00000001400b42f0 f   libregex_syntax-1a078ef20d4d7dee:regex_syntax-1a078ef20d4d7dee.regex_syntax.936f5d3813beee8b-cgu.01.rcgu.o
 0001:000b3a20       _ZN12regex_syntax3hir3Hir6concat17h4d85cb107fd6897aE 00000001400b4a20 f   libregex_syntax-1a078ef20d4d7dee:regex_syntax-1a078ef20d4d7dee.regex_syntax.936f5d3813beee8b-cgu.01.rcgu.o
 0001:000b5310       _ZN12regex_syntax3hir3Hir11alternation17h5f29312b17ddb192E 00000001400b6310 f   libregex_syntax-1a078ef20d4d7dee:regex_syntax-1a078ef20d4d7dee.regex_syntax.936f5d3813beee8b-cgu.01.rcgu.o
 0001:000b7b10       _ZN59_$LT$regex_syntax..hir..Hir$u20$as$u20$core..fmt..Debug$GT$3fmt17h5e29abe225d44c6cE 00000001400b8b10 f   libregex_syntax-1a078ef20d4d7dee:regex_syntax-1a078ef20d4d7dee.regex_syntax.936f5d3813beee8b-cgu.01.rcgu.o
 0001:000b7b20       _ZN12regex_syntax3hir5Class8is_empty17hd910e47bddc7c974E 00000001400b8b20 f   libregex_syntax-1a078ef20d4d7dee:regex_syntax-1a078ef20d4d7dee.regex_syntax.936f5d3813beee8b-cgu.01.rcgu.o
 0001:000b7b30       _ZN12regex_syntax3hir5Class7literal17h0271640e0ed81efeE 00000001400b8b30 f   libregex_syntax-1a078ef20d4d7dee:regex_syntax-1a078ef20d4d7dee.regex_syntax.936f5d3813beee8b-cgu.01.rcgu.o
 0001:000b7bc0       _ZN61_$LT$regex_syntax..hir..Class$u20$as$u20$core..fmt..Debug$GT$3fmt17h2a51910334423b05E 00000001400b8bc0 f   libregex_syntax-1a078ef20d4d7dee:regex_syntax-1a078ef20d4d7dee.regex_syntax.936f5d3813beee8b-cgu.01.rcgu.o
 0001:000b7ca0       _ZN12regex_syntax3hir12ClassUnicode5empty17h6a18b1f726a59252E 00000001400b8ca0 f   libregex_syntax-1a078ef20d4d7dee:regex_syntax-1a078ef20d4d7dee.regex_syntax.936f5d3813beee8b-cgu.01.rcgu.o
 0001:000b7d40       _ZN12regex_syntax3hir12ClassUnicode4push17h53964440f3d7bc14E 00000001400b8d40 f   libregex_syntax-1a078ef20d4d7dee:regex_syntax-1a078ef20d4d7dee.regex_syntax.936f5d3813beee8b-cgu.01.rcgu.o
 0001:000b7d90       _ZN12regex_syntax3hir12ClassUnicode4iter17h15190572b3c4ff1aE 00000001400b8d90 f   libregex_syntax-1a078ef20d4d7dee:regex_syntax-1a078ef20d4d7dee.regex_syntax.936f5d3813beee8b-cgu.01.rcgu.o
 0001:000b7da0       _ZN12regex_syntax3hir12ClassUnicode20try_case_fold_simple17h103d63d72993695aE 00000001400b8da0 f   libregex_syntax-1a078ef20d4d7dee:regex_syntax-1a078ef20d4d7dee.regex_syntax.936f5d3813beee8b-cgu.01.rcgu.o
 0001:000b7e40       _ZN12regex_syntax3hir12ClassUnicode8is_ascii17hae141d2b26ac7371E 00000001400b8e40 f   libregex_syntax-1a078ef20d4d7dee:regex_syntax-1a078ef20d4d7dee.regex_syntax.936f5d3813beee8b-cgu.01.rcgu.o
 0001:000b7e60       _ZN12regex_syntax3hir12ClassUnicode7literal17hce9557f86a978489E 00000001400b8e60 f   libregex_syntax-1a078ef20d4d7dee:regex_syntax-1a078ef20d4d7dee.regex_syntax.936f5d3813beee8b-cgu.01.rcgu.o
 0001:000b7fe0       _ZN94_$LT$regex_syntax..hir..ClassUnicodeIter$u20$as$u20$core..iter..traits..iterator..Iterator$GT$4next17h834552003e01ae77E 00000001400b8fe0 f   libregex_syntax-1a078ef20d4d7dee:regex_syntax-1a078ef20d4d7dee.regex_syntax.936f5d3813beee8b-cgu.01.rcgu.o
 0001:000b8000       _ZN73_$LT$regex_syntax..hir..ClassUnicodeRange$u20$as$u20$core..fmt..Debug$GT$3fmt17he9ea9570eecc2172E 00000001400b9000 f   libregex_syntax-1a078ef20d4d7dee:regex_syntax-1a078ef20d4d7dee.regex_syntax.936f5d3813beee8b-cgu.01.rcgu.o
 0001:000b84e0       _ZN94_$LT$regex_syntax..hir..ClassUnicodeRange$u20$as$u20$regex_syntax..hir..interval..Interval$GT$16case_fold_simple17hf74664e35f4ed050E 00000001400b94e0 f   libregex_syntax-1a078ef20d4d7dee:regex_syntax-1a078ef20d4d7dee.regex_syntax.936f5d3813beee8b-cgu.01.rcgu.o
 0001:000b8750       _ZN12regex_syntax3hir17ClassUnicodeRange5start17h8d802061f53dd5c1E 00000001400b9750 f   libregex_syntax-1a078ef20d4d7dee:regex_syntax-1a078ef20d4d7dee.regex_syntax.936f5d3813beee8b-cgu.01.rcgu.o
 0001:000b8760       _ZN12regex_syntax3hir17ClassUnicodeRange3end17h41b1178ce9ff92a3E 00000001400b9760 f   libregex_syntax-1a078ef20d4d7dee:regex_syntax-1a078ef20d4d7dee.regex_syntax.936f5d3813beee8b-cgu.01.rcgu.o
 0001:000b8770       _ZN12regex_syntax3hir10ClassBytes5empty17h38a66a0555a7af58E 00000001400b9770 f   libregex_syntax-1a078ef20d4d7dee:regex_syntax-1a078ef20d4d7dee.regex_syntax.936f5d3813beee8b-cgu.01.rcgu.o
 0001:000b8810       _ZN12regex_syntax3hir10ClassBytes4push17he8694a6d9f9613b9E 00000001400b9810 f   libregex_syntax-1a078ef20d4d7dee:regex_syntax-1a078ef20d4d7dee.regex_syntax.936f5d3813beee8b-cgu.01.rcgu.o
 0001:000b8860       _ZN12regex_syntax3hir10ClassBytes4iter17h53aa8419319a1db1E 00000001400b9860 f   libregex_syntax-1a078ef20d4d7dee:regex_syntax-1a078ef20d4d7dee.regex_syntax.936f5d3813beee8b-cgu.01.rcgu.o
 0001:000b8870       _ZN12regex_syntax3hir10ClassBytes6ranges17hf8538ef1c2b065aeE 00000001400b9870 f   libregex_syntax-1a078ef20d4d7dee:regex_syntax-1a078ef20d4d7dee.regex_syntax.936f5d3813beee8b-cgu.01.rcgu.o
 0001:000b8870       _ZN12regex_syntax3hir12ClassUnicode6ranges17h1b474e6385ec9edeE 00000001400b9870 f   libregex_syntax-1a078ef20d4d7dee:regex_syntax-1a078ef20d4d7dee.regex_syntax.936f5d3813beee8b-cgu.01.rcgu.o
 0001:000b8870       _ZN96_$LT$regex_syntax..hir..literal..Literal$u20$as$u20$core..convert..AsRef$LT$$u5b$u8$u5d$$GT$$GT$6as_ref17h6bb04b911c6fb9f9E 00000001400b9870 f   libregex_syntax-1a078ef20d4d7dee:regex_syntax-1a078ef20d4d7dee.regex_syntax.936f5d3813beee8b-cgu.04.rcgu.o
 0001:000b8880       _ZN12regex_syntax3hir10ClassBytes16case_fold_simple17hf8d5da0476bb7451E 00000001400b9880 f   libregex_syntax-1a078ef20d4d7dee:regex_syntax-1a078ef20d4d7dee.regex_syntax.936f5d3813beee8b-cgu.01.rcgu.o
 0001:000b88c0       _ZN92_$LT$regex_syntax..hir..ClassBytesIter$u20$as$u20$core..iter..traits..iterator..Iterator$GT$4next17heb6cc9d9bbad5c7fE 00000001400b98c0 f   libregex_syntax-1a078ef20d4d7dee:regex_syntax-1a078ef20d4d7dee.regex_syntax.936f5d3813beee8b-cgu.01.rcgu.o
 0001:000b88e0       _ZN12regex_syntax3hir15ClassBytesRange3new17h73535a8a421e6340E 00000001400b98e0 f   libregex_syntax-1a078ef20d4d7dee:regex_syntax-1a078ef20d4d7dee.regex_syntax.936f5d3813beee8b-cgu.01.rcgu.o
 0001:000b88e0       _ZN12regex_syntax3hir8interval8Interval6create17he631efa280a442fdE 00000001400b98e0 f   libregex_syntax-1a078ef20d4d7dee:regex_syntax-1a078ef20d4d7dee.regex_syntax.936f5d3813beee8b-cgu.01.rcgu.o
 0001:000b8900       _ZN12regex_syntax3hir15ClassBytesRange5start17h4037d06b7e839ba6E 00000001400b9900 f   libregex_syntax-1a078ef20d4d7dee:regex_syntax-1a078ef20d4d7dee.regex_syntax.936f5d3813beee8b-cgu.01.rcgu.o
 0001:000b8910       _ZN12regex_syntax3hir15ClassBytesRange3end17h971b138005e9c4d3E 00000001400b9910 f   libregex_syntax-1a078ef20d4d7dee:regex_syntax-1a078ef20d4d7dee.regex_syntax.936f5d3813beee8b-cgu.01.rcgu.o
 0001:000b8920       _ZN12regex_syntax3hir10Repetition4with17h83739ded2e40825bE 00000001400b9920 f   libregex_syntax-1a078ef20d4d7dee:regex_syntax-1a078ef20d4d7dee.regex_syntax.936f5d3813beee8b-cgu.01.rcgu.o
 0001:000b8a00       _ZN64_$LT$regex_syntax..hir..Hir$u20$as$u20$core..ops..drop..Drop$GT$4drop17h676b918fdaeb96b2E 00000001400b9a00 f   libregex_syntax-1a078ef20d4d7dee:regex_syntax-1a078ef20d4d7dee.regex_syntax.936f5d3813beee8b-cgu.01.rcgu.o
 0001:000b9390       _ZN12regex_syntax3hir10Properties5empty17hccad8684baccd954E 00000001400ba390 f   libregex_syntax-1a078ef20d4d7dee:regex_syntax-1a078ef20d4d7dee.regex_syntax.936f5d3813beee8b-cgu.01.rcgu.o
 0001:000b9410       _ZN12regex_syntax3hir10Properties7literal17ha9665b7296190463E 00000001400ba410 f   libregex_syntax-1a078ef20d4d7dee:regex_syntax-1a078ef20d4d7dee.regex_syntax.936f5d3813beee8b-cgu.01.rcgu.o
 0001:000b94a0       _ZN12regex_syntax3hir10Properties5class17hfcbfa5161cb0ac7dE 00000001400ba4a0 f   libregex_syntax-1a078ef20d4d7dee:regex_syntax-1a078ef20d4d7dee.regex_syntax.936f5d3813beee8b-cgu.01.rcgu.o
 0001:000b95d0       _ZN12regex_syntax3hir10Properties4look17hcbc70b196314df02E 00000001400ba5d0 f   libregex_syntax-1a078ef20d4d7dee:regex_syntax-1a078ef20d4d7dee.regex_syntax.936f5d3813beee8b-cgu.01.rcgu.o
 0001:000b9660       _ZN12regex_syntax3hir10Properties10repetition17hec75a599a09ce0f2E 00000001400ba660 f   libregex_syntax-1a078ef20d4d7dee:regex_syntax-1a078ef20d4d7dee.regex_syntax.936f5d3813beee8b-cgu.01.rcgu.o
 0001:000b97b0       _ZN12regex_syntax3hir10Properties7capture17hb779c5b288f09faaE 00000001400ba7b0 f   libregex_syntax-1a078ef20d4d7dee:regex_syntax-1a078ef20d4d7dee.regex_syntax.936f5d3813beee8b-cgu.01.rcgu.o
 0001:000b99c0       _ZN63_$LT$regex_syntax..hir..LookSet$u20$as$u20$core..fmt..Debug$GT$3fmt17h70beb0fa4a5dbe02E 00000001400ba9c0 f   libregex_syntax-1a078ef20d4d7dee:regex_syntax-1a078ef20d4d7dee.regex_syntax.936f5d3813beee8b-cgu.01.rcgu.o
 0001:000ba000       _ZN63_$LT$regex_syntax..hir..HirKind$u20$as$u20$core..fmt..Debug$GT$3fmt17h771ef7bf9ae27a93E 00000001400bb000 f   libregex_syntax-1a078ef20d4d7dee:regex_syntax-1a078ef20d4d7dee.regex_syntax.936f5d3813beee8b-cgu.01.rcgu.o
 0001:000ba190       _ZN60_$LT$regex_syntax..hir..Look$u20$as$u20$core..fmt..Debug$GT$3fmt17h6c9a50605876f073E 00000001400bb190 f   libregex_syntax-1a078ef20d4d7dee:regex_syntax-1a078ef20d4d7dee.regex_syntax.936f5d3813beee8b-cgu.01.rcgu.o
 0001:000ba3a0       _ZN66_$LT$regex_syntax..hir..Properties$u20$as$u20$core..fmt..Debug$GT$3fmt17h22425e1895093f9aE 00000001400bb3a0 f   libregex_syntax-1a078ef20d4d7dee:regex_syntax-1a078ef20d4d7dee.regex_syntax.936f5d3813beee8b-cgu.01.rcgu.o
 0001:000ba3e0       _ZN4core3ptr105drop_in_place$LT$core..cell..Ref$LT$alloc..vec..Vec$LT$regex_syntax..hir..translate..HirFrame$GT$$GT$$GT$17h8c8f4105c7c6cc77E.llvm.1213798052808953091 00000001400bb3e0 f   libregex_syntax-1a078ef20d4d7dee:regex_syntax-1a078ef20d4d7dee.regex_syntax.936f5d3813beee8b-cgu.05.rcgu.o
 0001:000bbb60       _ZN12regex_syntax3ast5parse13ParserBuilder3new17h02683082a372947aE 00000001400bcb60 f   libregex_syntax-1a078ef20d4d7dee:regex_syntax-1a078ef20d4d7dee.regex_syntax.936f5d3813beee8b-cgu.00.rcgu.o
 0001:000bbb60       _ZN82_$LT$regex_syntax..ast..parse..ParserBuilder$u20$as$u20$core..default..Default$GT$7default17hdf7c83281aab3e6aE 00000001400bcb60 f   libregex_syntax-1a078ef20d4d7dee:regex_syntax-1a078ef20d4d7dee.regex_syntax.936f5d3813beee8b-cgu.00.rcgu.o
 0001:000bbb70       _ZN12regex_syntax3ast5parse13ParserBuilder5build17h6656ca90ceffb79dE 00000001400bcb70 f   libregex_syntax-1a078ef20d4d7dee:regex_syntax-1a078ef20d4d7dee.regex_syntax.936f5d3813beee8b-cgu.00.rcgu.o
 0001:000bbc40       _ZN12regex_syntax3ast5parse13ParserBuilder10nest_limit17h310ecb4454cea935E 00000001400bcc40 f   libregex_syntax-1a078ef20d4d7dee:regex_syntax-1a078ef20d4d7dee.regex_syntax.936f5d3813beee8b-cgu.00.rcgu.o
 0001:000bbc50       _ZN12regex_syntax3ast5parse13ParserBuilder5octal17hafc80c0530b4b190E 00000001400bcc50 f   libregex_syntax-1a078ef20d4d7dee:regex_syntax-1a078ef20d4d7dee.regex_syntax.936f5d3813beee8b-cgu.00.rcgu.o
 0001:000bbc60       _ZN12regex_syntax3ast5parse13ParserBuilder17ignore_whitespace17hee365b0978a6113fE 00000001400bcc60 f   libregex_syntax-1a078ef20d4d7dee:regex_syntax-1a078ef20d4d7dee.regex_syntax.936f5d3813beee8b-cgu.00.rcgu.o
 0001:000bbc70       _ZN12regex_syntax3ast5parse6Parser5parse17hc23f14668dc04becE 00000001400bcc70 f   libregex_syntax-1a078ef20d4d7dee:regex_syntax-1a078ef20d4d7dee.regex_syntax.936f5d3813beee8b-cgu.00.rcgu.o
 0001:000c0ef0       _ZN12regex_syntax3ast5parse16ParserI$LT$P$GT$19parse_with_comments17hea2a90b2d36c08f0E.llvm.13745693627493082162 00000001400c1ef0 f   libregex_syntax-1a078ef20d4d7dee:regex_syntax-1a078ef20d4d7dee.regex_syntax.936f5d3813beee8b-cgu.00.rcgu.o
 0001:000ce830       _ZN102_$LT$regex_syntax..ast..parse..NestLimiter$LT$P$GT$$u20$as$u20$regex_syntax..ast..visitor..Visitor$GT$9visit_pre17hcb26f0f66af5b420E 00000001400cf830 f   libregex_syntax-1a078ef20d4d7dee:regex_syntax-1a078ef20d4d7dee.regex_syntax.936f5d3813beee8b-cgu.00.rcgu.o
 0001:000ce9a0       _ZN102_$LT$regex_syntax..ast..parse..NestLimiter$LT$P$GT$$u20$as$u20$regex_syntax..ast..visitor..Visitor$GT$24visit_class_set_item_pre17hf91f2f5c4dfabe78E 00000001400cf9a0 f   libregex_syntax-1a078ef20d4d7dee:regex_syntax-1a078ef20d4d7dee.regex_syntax.936f5d3813beee8b-cgu.00.rcgu.o
 0001:000ceb00       _ZN102_$LT$regex_syntax..ast..parse..NestLimiter$LT$P$GT$$u20$as$u20$regex_syntax..ast..visitor..Visitor$GT$29visit_class_set_binary_op_pre17h8638c6c7116294b8E 00000001400cfb00 f   libregex_syntax-1a078ef20d4d7dee:regex_syntax-1a078ef20d4d7dee.regex_syntax.936f5d3813beee8b-cgu.00.rcgu.o
 0001:000cee20       _ZN4core3ptr47drop_in_place$LT$regex_syntax..hir..HirKind$GT$17hbc0bc3e6d9734be6E.llvm.1213798052808953091 00000001400cfe20 f   libregex_syntax-1a078ef20d4d7dee:regex_syntax-1a078ef20d4d7dee.regex_syntax.936f5d3813beee8b-cgu.05.rcgu.o
 0001:000cefc0       _ZN4core3ptr59drop_in_place$LT$regex_syntax..hir..translate..HirFrame$GT$17ha3e086e1d4c5b4e4E.llvm.1213798052808953091 00000001400cffc0 f   libregex_syntax-1a078ef20d4d7dee:regex_syntax-1a078ef20d4d7dee.regex_syntax.936f5d3813beee8b-cgu.05.rcgu.o
 0001:000cf190       _ZN12regex_syntax3hir9translate17TranslatorBuilder3new17hd2f5e6b830f409f6E 00000001400d0190 f   libregex_syntax-1a078ef20d4d7dee:regex_syntax-1a078ef20d4d7dee.regex_syntax.936f5d3813beee8b-cgu.05.rcgu.o
 0001:000cf190       _ZN90_$LT$regex_syntax..hir..translate..TranslatorBuilder$u20$as$u20$core..default..Default$GT$7default17h4bf1b3d31ccec2b3E 00000001400d0190 f   libregex_syntax-1a078ef20d4d7dee:regex_syntax-1a078ef20d4d7dee.regex_syntax.936f5d3813beee8b-cgu.05.rcgu.o
 0001:000cf1a0       _ZN12regex_syntax3hir9translate17TranslatorBuilder5build17ha6109644742501f1E 00000001400d01a0 f   libregex_syntax-1a078ef20d4d7dee:regex_syntax-1a078ef20d4d7dee.regex_syntax.936f5d3813beee8b-cgu.05.rcgu.o
 0001:000cf1e0       _ZN12regex_syntax3hir9translate17TranslatorBuilder15line_terminator17hddb6a4d0775ff392E 00000001400d01e0 f   libregex_syntax-1a078ef20d4d7dee:regex_syntax-1a078ef20d4d7dee.regex_syntax.936f5d3813beee8b-cgu.05.rcgu.o
 0001:000cf1f0       _ZN12regex_syntax3hir9translate17TranslatorBuilder16case_insensitive17hb7ae3311df6c6a59E 00000001400d01f0 f   libregex_syntax-1a078ef20d4d7dee:regex_syntax-1a078ef20d4d7dee.regex_syntax.936f5d3813beee8b-cgu.05.rcgu.o
 0001:000cf200       _ZN12regex_syntax3hir9translate17TranslatorBuilder10multi_line17hc06e74b4277b666fE 00000001400d0200 f   libregex_syntax-1a078ef20d4d7dee:regex_syntax-1a078ef20d4d7dee.regex_syntax.936f5d3813beee8b-cgu.05.rcgu.o
 0001:000cf210       _ZN12regex_syntax3hir9translate17TranslatorBuilder20dot_matches_new_line17h933ab91b5135bc6cE 00000001400d0210 f   libregex_syntax-1a078ef20d4d7dee:regex_syntax-1a078ef20d4d7dee.regex_syntax.936f5d3813beee8b-cgu.05.rcgu.o
 0001:000cf220       _ZN12regex_syntax3hir9translate17TranslatorBuilder4crlf17h648644234c68a664E 00000001400d0220 f   libregex_syntax-1a078ef20d4d7dee:regex_syntax-1a078ef20d4d7dee.regex_syntax.936f5d3813beee8b-cgu.05.rcgu.o
 0001:000cf230       _ZN12regex_syntax3hir9translate17TranslatorBuilder10swap_greed17h7a166285d9f18abaE 00000001400d0230 f   libregex_syntax-1a078ef20d4d7dee:regex_syntax-1a078ef20d4d7dee.regex_syntax.936f5d3813beee8b-cgu.05.rcgu.o
 0001:000cf240       _ZN12regex_syntax3hir9translate17TranslatorBuilder7unicode17h3e12e7e01503a5c1E 00000001400d0240 f   libregex_syntax-1a078ef20d4d7dee:regex_syntax-1a078ef20d4d7dee.regex_syntax.936f5d3813beee8b-cgu.05.rcgu.o
 0001:000cf250       _ZN12regex_syntax3hir9translate10Translator9translate17he8d0092d01142bddE 00000001400d0250 f   libregex_syntax-1a078ef20d4d7dee:regex_syntax-1a078ef20d4d7dee.regex_syntax.936f5d3813beee8b-cgu.05.rcgu.o
 0001:000cf290       _ZN12regex_syntax3hir9translate8HirFrame11unwrap_expr17h3bc329f3c3e4f8b8E.llvm.1213798052808953091 00000001400d0290 f   libregex_syntax-1a078ef20d4d7dee:regex_syntax-1a078ef20d4d7dee.regex_syntax.936f5d3813beee8b-cgu.05.rcgu.o
 0001:000cf620       _ZN97_$LT$regex_syntax..hir..translate..TranslatorI$u20$as$u20$regex_syntax..ast..visitor..Visitor$GT$6finish17hd6e1e1a2a9efc364E 00000001400d0620 f   libregex_syntax-1a078ef20d4d7dee:regex_syntax-1a078ef20d4d7dee.regex_syntax.936f5d3813beee8b-cgu.05.rcgu.o
 0001:000cf7a0       _ZN97_$LT$regex_syntax..hir..translate..TranslatorI$u20$as$u20$regex_syntax..ast..visitor..Visitor$GT$9visit_pre17h380999db965ec465E 00000001400d07a0 f   libregex_syntax-1a078ef20d4d7dee:regex_syntax-1a078ef20d4d7dee.regex_syntax.936f5d3813beee8b-cgu.05.rcgu.o
 0001:000cfbb0       _ZN97_$LT$regex_syntax..hir..translate..TranslatorI$u20$as$u20$regex_syntax..ast..visitor..Visitor$GT$10visit_post17h677c95a0b9d4c53aE 00000001400d0bb0 f   libregex_syntax-1a078ef20d4d7dee:regex_syntax-1a078ef20d4d7dee.regex_syntax.936f5d3813beee8b-cgu.05.rcgu.o
 0001:000d3a80       _ZN97_$LT$regex_syntax..hir..translate..TranslatorI$u20$as$u20$regex_syntax..ast..visitor..Visitor$GT$24visit_class_set_item_pre17hfdf61326934605fbE 00000001400d4a80 f   libregex_syntax-1a078ef20d4d7dee:regex_syntax-1a078ef20d4d7dee.regex_syntax.936f5d3813beee8b-cgu.05.rcgu.o
 0001:000d3c10       _ZN97_$LT$regex_syntax..hir..translate..TranslatorI$u20$as$u20$regex_syntax..ast..visitor..Visitor$GT$25visit_class_set_item_post17h70d8cdba125b0c0bE 00000001400d4c10 f   libregex_syntax-1a078ef20d4d7dee:regex_syntax-1a078ef20d4d7dee.regex_syntax.936f5d3813beee8b-cgu.05.rcgu.o
 0001:000d6500       _ZN97_$LT$regex_syntax..hir..translate..TranslatorI$u20$as$u20$regex_syntax..ast..visitor..Visitor$GT$28visit_class_set_binary_op_in17h205ac09e9e76ddcdE 00000001400d7500 f   libregex_syntax-1a078ef20d4d7dee:regex_syntax-1a078ef20d4d7dee.regex_syntax.936f5d3813beee8b-cgu.05.rcgu.o
 0001:000d6500       _ZN97_$LT$regex_syntax..hir..translate..TranslatorI$u20$as$u20$regex_syntax..ast..visitor..Visitor$GT$29visit_class_set_binary_op_pre17h61e0c65a4ed8bed0E 00000001400d7500 f   libregex_syntax-1a078ef20d4d7dee:regex_syntax-1a078ef20d4d7dee.regex_syntax.936f5d3813beee8b-cgu.05.rcgu.o
 0001:000d6680       _ZN97_$LT$regex_syntax..hir..translate..TranslatorI$u20$as$u20$regex_syntax..ast..visitor..Visitor$GT$30visit_class_set_binary_op_post17h2812a808d6cf8ddcE 00000001400d7680 f   libregex_syntax-1a078ef20d4d7dee:regex_syntax-1a078ef20d4d7dee.regex_syntax.936f5d3813beee8b-cgu.05.rcgu.o
 0001:000d7760       _ZN12regex_syntax3hir9translate11TranslatorI4push17h1459e39b6661bb21E.llvm.1213798052808953091 00000001400d8760 f   libregex_syntax-1a078ef20d4d7dee:regex_syntax-1a078ef20d4d7dee.regex_syntax.936f5d3813beee8b-cgu.05.rcgu.o
 0001:000d8b20       _ZN75_$LT$regex_syntax..hir..translate..HirFrame$u20$as$u20$core..fmt..Debug$GT$3fmt17h14c9914097994853E 00000001400d9b20 f   libregex_syntax-1a078ef20d4d7dee:regex_syntax-1a078ef20d4d7dee.regex_syntax.936f5d3813beee8b-cgu.05.rcgu.o
 0001:000d8cc0       _ZN4core3ptr88drop_in_place$LT$alloc..vec..drain..Drain$LT$regex_syntax..hir..literal..Literal$GT$$GT$17h51bde330f703ad2cE.llvm.2631318121689656173 00000001400d9cc0 f   libregex_syntax-1a078ef20d4d7dee:regex_syntax-1a078ef20d4d7dee.regex_syntax.936f5d3813beee8b-cgu.02.rcgu.o
 0001:000d8d70       _ZN4core3ptr79drop_in_place$LT$alloc..vec..Vec$LT$regex_syntax..hir..literal..Literal$GT$$GT$17h290f356afe3c4256E.llvm.2631318121689656173 00000001400d9d70 f   libregex_syntax-1a078ef20d4d7dee:regex_syntax-1a078ef20d4d7dee.regex_syntax.936f5d3813beee8b-cgu.02.rcgu.o
 0001:000d8e70       _ZN12regex_syntax3hir7literal9Extractor3new17h3c825a9304c9e6b1E 00000001400d9e70 f   libregex_syntax-1a078ef20d4d7dee:regex_syntax-1a078ef20d4d7dee.regex_syntax.936f5d3813beee8b-cgu.04.rcgu.o
 0001:000d8e70       _ZN80_$LT$regex_syntax..hir..literal..Extractor$u20$as$u20$core..default..Default$GT$7default17ha31d7f3e945670edE 00000001400d9e70 f   libregex_syntax-1a078ef20d4d7dee:regex_syntax-1a078ef20d4d7dee.regex_syntax.936f5d3813beee8b-cgu.04.rcgu.o
 0001:000d8ea0       _ZN12regex_syntax3hir7literal9Extractor7extract17he5f6e8c12a004a61E 00000001400d9ea0 f   libregex_syntax-1a078ef20d4d7dee:regex_syntax-1a078ef20d4d7dee.regex_syntax.936f5d3813beee8b-cgu.04.rcgu.o
 0001:000da8f0       _ZN12regex_syntax3hir7literal9Extractor4kind17heffbb4fd2d9d6d52E 00000001400db8f0 f   libregex_syntax-1a078ef20d4d7dee:regex_syntax-1a078ef20d4d7dee.regex_syntax.936f5d3813beee8b-cgu.04.rcgu.o
 0001:000dbf20       _ZN12regex_syntax3hir7literal3Seq14cross_preamble17ha352b8b7b819d354E 00000001400dcf20 f   libregex_syntax-1a078ef20d4d7dee:regex_syntax-1a078ef20d4d7dee.regex_syntax.936f5d3813beee8b-cgu.04.rcgu.o
 0001:000dc120       _ZN12regex_syntax3hir7literal3Seq22optimize_by_preference17h4012e562da5eced7E 00000001400dd120 f   libregex_syntax-1a078ef20d4d7dee:regex_syntax-1a078ef20d4d7dee.regex_syntax.936f5d3813beee8b-cgu.04.rcgu.o
 0001:000dcd70       _ZN12regex_syntax3hir7literal14PreferenceTrie8minimize17hf2bd398aa03309e7E 00000001400ddd70 f   libregex_syntax-1a078ef20d4d7dee:regex_syntax-1a078ef20d4d7dee.regex_syntax.936f5d3813beee8b-cgu.04.rcgu.o
 0001:000dcf60       _ZN12regex_syntax3hir7literal14PreferenceTrie6insert17h04defd0edff74a9dE 00000001400ddf60 f   libregex_syntax-1a078ef20d4d7dee:regex_syntax-1a078ef20d4d7dee.regex_syntax.936f5d3813beee8b-cgu.04.rcgu.o
 0001:000dd330       _ZN4core3ptr43drop_in_place$LT$regex_syntax..hir..Hir$GT$17ha67d287773577abdE.llvm.1190860102792631389 00000001400de330 f   libregex_syntax-1a078ef20d4d7dee:regex_syntax-1a078ef20d4d7dee.regex_syntax.936f5d3813beee8b-cgu.14.rcgu.o
 0001:000dd3d0       _ZN4core3ptr47drop_in_place$LT$regex_syntax..hir..HirKind$GT$17hbc0bc3e6d9734be6E.llvm.1190860102792631389 00000001400de3d0 f   libregex_syntax-1a078ef20d4d7dee:regex_syntax-1a078ef20d4d7dee.regex_syntax.936f5d3813beee8b-cgu.14.rcgu.o
 0001:000dd560       _ZN4core3ptr68drop_in_place$LT$alloc..boxed..Box$LT$regex_syntax..hir..Hir$GT$$GT$17h4a78e6e90353d38eE.llvm.1190860102792631389 00000001400de560 f   libregex_syntax-1a078ef20d4d7dee:regex_syntax-1a078ef20d4d7dee.regex_syntax.936f5d3813beee8b-cgu.14.rcgu.o
 0001:000dd610       _ZN86_$LT$alloc..vec..into_iter..IntoIter$LT$T$C$A$GT$$u20$as$u20$core..ops..drop..Drop$GT$4drop17h548b0bbef8c8687dE 00000001400de610 f   libregex_syntax-1a078ef20d4d7dee:regex_syntax-1a078ef20d4d7dee.regex_syntax.936f5d3813beee8b-cgu.14.rcgu.o
 0001:000dd7b0       _ZN12regex_syntax6parser13ParserBuilder3new17h48cdd1fe03ee21c6E 00000001400de7b0 f   libregex_syntax-1a078ef20d4d7dee:regex_syntax-1a078ef20d4d7dee.regex_syntax.936f5d3813beee8b-cgu.14.rcgu.o
 0001:000dd7d0       _ZN5alloc3str17join_generic_copy17h82347c6e47239018E 00000001400de7d0 f   libregex_syntax-1a078ef20d4d7dee:regex_syntax-1a078ef20d4d7dee.regex_syntax.936f5d3813beee8b-cgu.12.rcgu.o
 0001:000ddd40       _ZN12regex_syntax7unicode16SimpleCaseFolder7mapping17h9156b92d77e63593E 00000001400ded40 f   libregex_syntax-1a078ef20d4d7dee:regex_syntax-1a078ef20d4d7dee.regex_syntax.936f5d3813beee8b-cgu.12.rcgu.o
 0001:000ddeb0       _ZN12regex_syntax7unicode16SimpleCaseFolder8overlaps17hf22c0ce6e00320d0E 00000001400deeb0 f   libregex_syntax-1a078ef20d4d7dee:regex_syntax-1a078ef20d4d7dee.regex_syntax.936f5d3813beee8b-cgu.12.rcgu.o
 0001:000de180       _ZN12regex_syntax7unicode5class17hf81fa7d615e40938E 00000001400df180 f   libregex_syntax-1a078ef20d4d7dee:regex_syntax-1a078ef20d4d7dee.regex_syntax.936f5d3813beee8b-cgu.12.rcgu.o
 0001:000df730       _ZN12regex_syntax7unicode9perl_word17he139b43518871173E 00000001400e0730 f   libregex_syntax-1a078ef20d4d7dee:regex_syntax-1a078ef20d4d7dee.regex_syntax.936f5d3813beee8b-cgu.12.rcgu.o
 0001:000df880       _ZN12regex_syntax7unicode10perl_space17h33e9be7e42cb50ddE 00000001400e0880 f   libregex_syntax-1a078ef20d4d7dee:regex_syntax-1a078ef20d4d7dee.regex_syntax.936f5d3813beee8b-cgu.12.rcgu.o
 0001:000df980       _ZN12regex_syntax7unicode10perl_digit17hebacff76a4d36942E 00000001400e0980 f   libregex_syntax-1a078ef20d4d7dee:regex_syntax-1a078ef20d4d7dee.regex_syntax.936f5d3813beee8b-cgu.12.rcgu.o
 0001:000e1410       _ZN73_$LT$regex_syntax..unicode..CaseFoldError$u20$as$u20$core..fmt..Debug$GT$3fmt17h876f4fd6487d1d2dE 00000001400e2410 f   libregex_syntax-1a078ef20d4d7dee:regex_syntax-1a078ef20d4d7dee.regex_syntax.936f5d3813beee8b-cgu.12.rcgu.o
 0001:000e1450       _ZN76_$LT$regex_syntax..unicode..UnicodeWordError$u20$as$u20$core..fmt..Debug$GT$3fmt17h86ef8d4c88298751E 00000001400e2450 f   libregex_syntax-1a078ef20d4d7dee:regex_syntax-1a078ef20d4d7dee.regex_syntax.936f5d3813beee8b-cgu.12.rcgu.o
 0001:000e1490       _ZN5alloc7raw_vec19RawVec$LT$T$C$A$GT$11allocate_in17h2e9e64fb6f6673eaE 00000001400e2490 f   libgoblin-8ee2c552e4c10df6:goblin-8ee2c552e4c10df6.goblin.f087800e97e1b550-cgu.01.rcgu.o
 0001:000e1490       _ZN5alloc7raw_vec19RawVec$LT$T$C$A$GT$11allocate_in17hedb754c096a29e31E 00000001400e2490 f   libregex_syntax-1a078ef20d4d7dee:regex_syntax-1a078ef20d4d7dee.regex_syntax.936f5d3813beee8b-cgu.03.rcgu.o
 0001:000e1500       _ZN5alloc7raw_vec19RawVec$LT$T$C$A$GT$16reserve_for_push17h0716f2cf2246f482E 00000001400e2500 f   libregex_syntax-1a078ef20d4d7dee:regex_syntax-1a078ef20d4d7dee.regex_syntax.936f5d3813beee8b-cgu.03.rcgu.o
 0001:000e1500       _ZN5alloc7raw_vec19RawVec$LT$T$C$A$GT$16reserve_for_push17he50d17ea178c98a5E 00000001400e2500 f   libregex_syntax-1a078ef20d4d7dee:regex_syntax-1a078ef20d4d7dee.regex_syntax.936f5d3813beee8b-cgu.03.rcgu.o
 0001:000e15d0       _ZN5alloc7raw_vec19RawVec$LT$T$C$A$GT$16reserve_for_push17h38eeac42e8386885E 00000001400e25d0 f   libregex_syntax-1a078ef20d4d7dee:regex_syntax-1a078ef20d4d7dee.regex_syntax.936f5d3813beee8b-cgu.03.rcgu.o
 0001:000e15d0       _ZN5alloc7raw_vec19RawVec$LT$T$C$A$GT$16reserve_for_push17h904f0a54b9c88057E 00000001400e25d0 f   libregex_syntax-1a078ef20d4d7dee:regex_syntax-1a078ef20d4d7dee.regex_syntax.936f5d3813beee8b-cgu.03.rcgu.o
 0001:000e16a0       _ZN5alloc7raw_vec19RawVec$LT$T$C$A$GT$16reserve_for_push17h43487d99628f7ba9E 00000001400e26a0 f   libregex_syntax-1a078ef20d4d7dee:regex_syntax-1a078ef20d4d7dee.regex_syntax.936f5d3813beee8b-cgu.03.rcgu.o
 0001:000e1770       _ZN5alloc7raw_vec19RawVec$LT$T$C$A$GT$16reserve_for_push17h3eeaea4ac243cc08E 00000001400e2770 f   libgoblin-8ee2c552e4c10df6:goblin-8ee2c552e4c10df6.goblin.f087800e97e1b550-cgu.01.rcgu.o
 0001:000e1770       _ZN5alloc7raw_vec19RawVec$LT$T$C$A$GT$16reserve_for_push17h54f9271bf84211f1E 00000001400e2770 f   libregex_syntax-1a078ef20d4d7dee:regex_syntax-1a078ef20d4d7dee.regex_syntax.936f5d3813beee8b-cgu.03.rcgu.o
 0001:000e1770       _ZN5alloc7raw_vec19RawVec$LT$T$C$A$GT$16reserve_for_push17hf8dcd22160d717ebE 00000001400e2770 f   libgoblin-8ee2c552e4c10df6:goblin-8ee2c552e4c10df6.goblin.f087800e97e1b550-cgu.01.rcgu.o
 0001:000e1840       _ZN5alloc7raw_vec19RawVec$LT$T$C$A$GT$16reserve_for_push17h843d63ec16e6b2c4E 00000001400e2840 f   libgoblin-8ee2c552e4c10df6:goblin-8ee2c552e4c10df6.goblin.f087800e97e1b550-cgu.01.rcgu.o
 0001:000e1840       _ZN5alloc7raw_vec19RawVec$LT$T$C$A$GT$16reserve_for_push17hac5c26c5e1b064f8E 00000001400e2840 f   libgoblin-8ee2c552e4c10df6:goblin-8ee2c552e4c10df6.goblin.f087800e97e1b550-cgu.01.rcgu.o
 0001:000e1840       _ZN5alloc7raw_vec19RawVec$LT$T$C$A$GT$16reserve_for_push17hbc08f17914db68b8E 00000001400e2840 f   libregex_syntax-1a078ef20d4d7dee:regex_syntax-1a078ef20d4d7dee.regex_syntax.936f5d3813beee8b-cgu.03.rcgu.o
 0001:000e1840       _ZN5alloc7raw_vec19RawVec$LT$T$C$A$GT$16reserve_for_push17hc6e47aef9b5d0e4eE 00000001400e2840 f   libgoblin-8ee2c552e4c10df6:goblin-8ee2c552e4c10df6.goblin.f087800e97e1b550-cgu.01.rcgu.o
 0001:000e1910       _ZN5alloc7raw_vec19RawVec$LT$T$C$A$GT$16reserve_for_push17hcff753fb03f4e626E 00000001400e2910 f   libregex_syntax-1a078ef20d4d7dee:regex_syntax-1a078ef20d4d7dee.regex_syntax.936f5d3813beee8b-cgu.03.rcgu.o
 0001:000e19e0       _ZN137_$LT$alloc..vec..Vec$LT$T$GT$$u20$as$u20$alloc..vec..spec_from_iter..SpecFromIter$LT$T$C$alloc..vec..into_iter..IntoIter$LT$T$GT$$GT$$GT$9from_iter17h3fe9bc7d68091e31E 00000001400e29e0 f   libregex_syntax-1a078ef20d4d7dee:regex_syntax-1a078ef20d4d7dee.regex_syntax.936f5d3813beee8b-cgu.02.rcgu.o
 0001:000e1b40       _ZN137_$LT$alloc..vec..Vec$LT$T$GT$$u20$as$u20$alloc..vec..spec_from_iter..SpecFromIter$LT$T$C$alloc..vec..into_iter..IntoIter$LT$T$GT$$GT$$GT$9from_iter17h4c035444125d44eaE 00000001400e2b40 f   libregex_syntax-1a078ef20d4d7dee:regex_syntax-1a078ef20d4d7dee.regex_syntax.936f5d3813beee8b-cgu.02.rcgu.o
 0001:000e1ca0       _ZN42_$LT$$RF$T$u20$as$u20$core..fmt..Debug$GT$3fmt17h06c6a579503d44a1E 00000001400e2ca0 f   libregex_syntax-1a078ef20d4d7dee:regex_syntax-1a078ef20d4d7dee.regex_syntax.936f5d3813beee8b-cgu.02.rcgu.o
 0001:000e1d20       _ZN42_$LT$$RF$T$u20$as$u20$core..fmt..Debug$GT$3fmt17h9d7a04992a44a57dE 00000001400e2d20 f   libregex_syntax-1a078ef20d4d7dee:regex_syntax-1a078ef20d4d7dee.regex_syntax.936f5d3813beee8b-cgu.02.rcgu.o
 0001:000e1e00       _ZN4core3ptr158drop_in_place$LT$core..iter..adapters..map..Map$LT$alloc..vec..drain..Drain$LT$regex_syntax..ast..ClassSetItem$GT$$C$regex_syntax..ast..ClassSet..Item$GT$$GT$17hb11a2c6647975519E.llvm.2631318121689656173 00000001400e2e00 f   libregex_syntax-1a078ef20d4d7dee:regex_syntax-1a078ef20d4d7dee.regex_syntax.936f5d3813beee8b-cgu.02.rcgu.o
 0001:000e1e10       _ZN4core3ptr43drop_in_place$LT$regex_syntax..ast..Ast$GT$17he647054e5ec40e10E.llvm.2631318121689656173 00000001400e2e10 f   libregex_syntax-1a078ef20d4d7dee:regex_syntax-1a078ef20d4d7dee.regex_syntax.936f5d3813beee8b-cgu.02.rcgu.o
 0001:000e22c0       _ZN4core3ptr43drop_in_place$LT$regex_syntax..hir..Hir$GT$17ha67d287773577abdE.llvm.2631318121689656173 00000001400e32c0 f   libregex_syntax-1a078ef20d4d7dee:regex_syntax-1a078ef20d4d7dee.regex_syntax.936f5d3813beee8b-cgu.02.rcgu.o
 0001:000e2360       _ZN4core3ptr47drop_in_place$LT$regex_syntax..hir..HirKind$GT$17hbc0bc3e6d9734be6E.llvm.2631318121689656173 00000001400e3360 f   libregex_syntax-1a078ef20d4d7dee:regex_syntax-1a078ef20d4d7dee.regex_syntax.936f5d3813beee8b-cgu.02.rcgu.o
 0001:000e24f0       _ZN4core3ptr48drop_in_place$LT$regex_syntax..ast..ClassSet$GT$17ha59ae3a2695da1c7E.llvm.2631318121689656173 00000001400e34f0 f   libregex_syntax-1a078ef20d4d7dee:regex_syntax-1a078ef20d4d7dee.regex_syntax.936f5d3813beee8b-cgu.02.rcgu.o
 0001:000e2600       _ZN4core3ptr52drop_in_place$LT$regex_syntax..ast..ClassSetItem$GT$17hdd3684f3983c3195E.llvm.2631318121689656173 00000001400e3600 f   libregex_syntax-1a078ef20d4d7dee:regex_syntax-1a078ef20d4d7dee.regex_syntax.936f5d3813beee8b-cgu.02.rcgu.o
 0001:000e27c0       _ZN4core3ptr53drop_in_place$LT$$u5b$regex_syntax..hir..Hir$u5d$$GT$17h6270e23698389d85E.llvm.2631318121689656173 00000001400e37c0 f   libregex_syntax-1a078ef20d4d7dee:regex_syntax-1a078ef20d4d7dee.regex_syntax.936f5d3813beee8b-cgu.02.rcgu.o
 0001:000e28e0       _ZN4core3ptr56drop_in_place$LT$regex_syntax..ast..ClassSetBinaryOp$GT$17h3d7cbdb3265931e5E.llvm.2631318121689656173 00000001400e38e0 f   libregex_syntax-1a078ef20d4d7dee:regex_syntax-1a078ef20d4d7dee.regex_syntax.936f5d3813beee8b-cgu.02.rcgu.o
 0001:000e2990       _ZN4core3ptr62drop_in_place$LT$$u5b$regex_syntax..ast..ClassSetItem$u5d$$GT$17h5ff021fccb9ca82aE.llvm.2631318121689656173 00000001400e3990 f   libregex_syntax-1a078ef20d4d7dee:regex_syntax-1a078ef20d4d7dee.regex_syntax.936f5d3813beee8b-cgu.02.rcgu.o
 0001:000e2e90       _ZN4core3ptr73drop_in_place$LT$alloc..boxed..Box$LT$regex_syntax..ast..ClassSet$GT$$GT$17he474a0dfbad7d9b4E.llvm.2631318121689656173 00000001400e3e90 f   libregex_syntax-1a078ef20d4d7dee:regex_syntax-1a078ef20d4d7dee.regex_syntax.936f5d3813beee8b-cgu.02.rcgu.o
 0001:000e2f80       _ZN4core3ptr75drop_in_place$LT$alloc..vec..drain..Drain$LT$regex_syntax..ast..Ast$GT$$GT$17h8ded11728c6b0c76E.llvm.2631318121689656173 00000001400e3f80 f   libregex_syntax-1a078ef20d4d7dee:regex_syntax-1a078ef20d4d7dee.regex_syntax.936f5d3813beee8b-cgu.02.rcgu.o
 0001:000e2f90       _ZN4core3ptr75drop_in_place$LT$alloc..vec..drain..Drain$LT$regex_syntax..hir..Hir$GT$$GT$17hb7214252087e29bfE.llvm.2631318121689656173 00000001400e3f90 f   libregex_syntax-1a078ef20d4d7dee:regex_syntax-1a078ef20d4d7dee.regex_syntax.936f5d3813beee8b-cgu.02.rcgu.o
 0001:000e2fa0       _ZN4core3ptr103drop_in_place$LT$regex_syntax..hir..interval..IntervalSet$LT$regex_syntax..hir..ClassBytesRange$GT$$GT$17h02c6124c7e3a3e8dE.llvm.18063728134863587459 00000001400e3fa0 f   libregex_syntax-1a078ef20d4d7dee:regex_syntax-1a078ef20d4d7dee.regex_syntax.936f5d3813beee8b-cgu.15.rcgu.o
 0001:000e2fa0       _ZN4core3ptr78drop_in_place$LT$alloc..vec..Vec$LT$regex_syntax..hir..ClassBytesRange$GT$$GT$17hf13bbb347f13a83aE.llvm.2631318121689656173 00000001400e3fa0 f   libregex_syntax-1a078ef20d4d7dee:regex_syntax-1a078ef20d4d7dee.regex_syntax.936f5d3813beee8b-cgu.02.rcgu.o
 0001:000e2fa0       _ZN4core3ptr94drop_in_place$LT$alloc..vec..into_iter..IntoIter$LT$regex_syntax..hir..ClassBytesRange$GT$$GT$17hda0ba1407ed19b73E.llvm.2631318121689656173 00000001400e3fa0 f   libregex_syntax-1a078ef20d4d7dee:regex_syntax-1a078ef20d4d7dee.regex_syntax.936f5d3813beee8b-cgu.02.rcgu.o
 0001:000e2fc0       _ZN4core3ptr79drop_in_place$LT$alloc..boxed..Box$LT$regex_syntax..ast..ClassBracketed$GT$$GT$17h2d0c832ee3213dceE.llvm.2631318121689656173 00000001400e3fc0 f   libregex_syntax-1a078ef20d4d7dee:regex_syntax-1a078ef20d4d7dee.regex_syntax.936f5d3813beee8b-cgu.02.rcgu.o
 0001:000e3020       _ZN4core3ptr90drop_in_place$LT$alloc..vec..Vec$LT$alloc..vec..Vec$LT$regex_syntax..ast..Span$GT$$GT$$GT$17h397fa3487972426eE.llvm.2631318121689656173 00000001400e4020 f   libregex_syntax-1a078ef20d4d7dee:regex_syntax-1a078ef20d4d7dee.regex_syntax.936f5d3813beee8b-cgu.02.rcgu.o
 0001:000e30a0       _ZN5alloc3vec16Vec$LT$T$C$A$GT$10retain_mut17hc688273bec860085E 00000001400e40a0 f   libregex_syntax-1a078ef20d4d7dee:regex_syntax-1a078ef20d4d7dee.regex_syntax.936f5d3813beee8b-cgu.02.rcgu.o
 0001:000e3320       _ZN5alloc3vec16Vec$LT$T$C$A$GT$8dedup_by17ha81c1a82daf25545E 00000001400e4320 f   libregex_syntax-1a078ef20d4d7dee:regex_syntax-1a078ef20d4d7dee.regex_syntax.936f5d3813beee8b-cgu.02.rcgu.o
 0001:000e3410       _ZN5alloc3vec16in_place_collect108_$LT$impl$u20$alloc..vec..spec_from_iter..SpecFromIter$LT$T$C$I$GT$$u20$for$u20$alloc..vec..Vec$LT$T$GT$$GT$9from_iter17hd6edbe66b04f779fE 00000001400e4410 f   libregex_syntax-1a078ef20d4d7dee:regex_syntax-1a078ef20d4d7dee.regex_syntax.936f5d3813beee8b-cgu.02.rcgu.o
 0001:000e3660       _ZN5alloc3vec16in_place_collect108_$LT$impl$u20$alloc..vec..spec_from_iter..SpecFromIter$LT$T$C$I$GT$$u20$for$u20$alloc..vec..Vec$LT$T$GT$$GT$9from_iter17hfbfb38f5e90ba407E 00000001400e4660 f   libregex_syntax-1a078ef20d4d7dee:regex_syntax-1a078ef20d4d7dee.regex_syntax.936f5d3813beee8b-cgu.02.rcgu.o
 0001:000e3830       _ZN62_$LT$T$u20$as$u20$alloc..vec..spec_from_elem..SpecFromElem$GT$9from_elem17h7c7fa3845118e165E 00000001400e4830 f   libregex_syntax-1a078ef20d4d7dee:regex_syntax-1a078ef20d4d7dee.regex_syntax.936f5d3813beee8b-cgu.02.rcgu.o
 0001:000e3c50       _ZN65_$LT$alloc..vec..Vec$LT$T$C$A$GT$$u20$as$u20$core..fmt..Debug$GT$3fmt17h28b94ce31f751381E 00000001400e4c50 f   libregex_syntax-1a078ef20d4d7dee:regex_syntax-1a078ef20d4d7dee.regex_syntax.936f5d3813beee8b-cgu.02.rcgu.o
 0001:000e3cd0       _ZN65_$LT$alloc..vec..Vec$LT$T$C$A$GT$$u20$as$u20$core..fmt..Debug$GT$3fmt17hd3bc4ce91c30964bE 00000001400e4cd0 f   libregex_syntax-1a078ef20d4d7dee:regex_syntax-1a078ef20d4d7dee.regex_syntax.936f5d3813beee8b-cgu.02.rcgu.o
 0001:000e3d50       _ZN67_$LT$alloc..vec..Vec$LT$T$C$A$GT$$u20$as$u20$core..clone..Clone$GT$5clone17h104ae40073f8c7c9E 00000001400e4d50 f   libregex_syntax-1a078ef20d4d7dee:regex_syntax-1a078ef20d4d7dee.regex_syntax.936f5d3813beee8b-cgu.02.rcgu.o
 0001:000e3f20       _ZN70_$LT$alloc..vec..Vec$LT$T$C$A$GT$$u20$as$u20$core..ops..drop..Drop$GT$4drop17hc17e417134a809dbE 00000001400e4f20 f   libregex_syntax-1a078ef20d4d7dee:regex_syntax-1a078ef20d4d7dee.regex_syntax.936f5d3813beee8b-cgu.02.rcgu.o
 0001:000e41a0       _ZN97_$LT$alloc..vec..Vec$LT$T$C$A$GT$$u20$as$u20$alloc..vec..spec_extend..SpecExtend$LT$T$C$I$GT$$GT$11spec_extend17h661c00ed7ab91178E 00000001400e51a0 f   libregex_syntax-1a078ef20d4d7dee:regex_syntax-1a078ef20d4d7dee.regex_syntax.936f5d3813beee8b-cgu.02.rcgu.o
 0001:000e4360       _ZN98_$LT$alloc..vec..Vec$LT$T$GT$$u20$as$u20$alloc..vec..spec_from_iter..SpecFromIter$LT$T$C$I$GT$$GT$9from_iter17h23ac2f73ba4c3497E 00000001400e5360 f   libregex_syntax-1a078ef20d4d7dee:regex_syntax-1a078ef20d4d7dee.regex_syntax.936f5d3813beee8b-cgu.02.rcgu.o
 0001:000e4520       _ZN98_$LT$alloc..vec..Vec$LT$T$GT$$u20$as$u20$alloc..vec..spec_from_iter..SpecFromIter$LT$T$C$I$GT$$GT$9from_iter17h28d4bb081f7b32caE 00000001400e5520 f   libregex_syntax-1a078ef20d4d7dee:regex_syntax-1a078ef20d4d7dee.regex_syntax.936f5d3813beee8b-cgu.02.rcgu.o
 0001:000e46a0       _ZN98_$LT$alloc..vec..Vec$LT$T$GT$$u20$as$u20$alloc..vec..spec_from_iter..SpecFromIter$LT$T$C$I$GT$$GT$9from_iter17h938f5eb75832de02E 00000001400e56a0 f   libregex_syntax-1a078ef20d4d7dee:regex_syntax-1a078ef20d4d7dee.regex_syntax.936f5d3813beee8b-cgu.02.rcgu.o
 0001:000e46a0       _ZN98_$LT$alloc..vec..Vec$LT$T$GT$$u20$as$u20$alloc..vec..spec_from_iter..SpecFromIter$LT$T$C$I$GT$$GT$9from_iter17hd12afb90d6c7b63cE 00000001400e56a0 f   libregex_syntax-1a078ef20d4d7dee:regex_syntax-1a078ef20d4d7dee.regex_syntax.936f5d3813beee8b-cgu.02.rcgu.o
 0001:000e48e0       _ZN98_$LT$alloc..vec..Vec$LT$T$GT$$u20$as$u20$alloc..vec..spec_from_iter..SpecFromIter$LT$T$C$I$GT$$GT$9from_iter17heb2cd153e999b69aE 00000001400e58e0 f   libregex_syntax-1a078ef20d4d7dee:regex_syntax-1a078ef20d4d7dee.regex_syntax.936f5d3813beee8b-cgu.02.rcgu.o
 0001:000e4a20       _ZN98_$LT$alloc..vec..Vec$LT$T$GT$$u20$as$u20$alloc..vec..spec_from_iter..SpecFromIter$LT$T$C$I$GT$$GT$9from_iter17hf9ee8ab713cb3d1fE 00000001400e5a20 f   libregex_syntax-1a078ef20d4d7dee:regex_syntax-1a078ef20d4d7dee.regex_syntax.936f5d3813beee8b-cgu.02.rcgu.o
 0001:000e4bb0       _ZN98_$LT$alloc..vec..Vec$LT$T$GT$$u20$as$u20$alloc..vec..spec_from_iter..SpecFromIter$LT$T$C$I$GT$$GT$9from_iter17hfef36204fe5b6256E 00000001400e5bb0 f   libregex_syntax-1a078ef20d4d7dee:regex_syntax-1a078ef20d4d7dee.regex_syntax.936f5d3813beee8b-cgu.02.rcgu.o
 0001:000e4dd0       _ZN4core5slice4sort10merge_sort17h64933ac39c11d57cE 00000001400e5dd0 f   libregex_syntax-1a078ef20d4d7dee:regex_syntax-1a078ef20d4d7dee.regex_syntax.936f5d3813beee8b-cgu.07.rcgu.o
 0001:000e5730       _ZN4core5slice4sort10merge_sort17hb470d3d217ccf243E 00000001400e6730 f   libregex_syntax-1a078ef20d4d7dee:regex_syntax-1a078ef20d4d7dee.regex_syntax.936f5d3813beee8b-cgu.07.rcgu.o
 0001:000e6020       _ZN4core5slice4sort10merge_sort17hd64c35e8ed20e5a2E 00000001400e7020 f   libregex_syntax-1a078ef20d4d7dee:regex_syntax-1a078ef20d4d7dee.regex_syntax.936f5d3813beee8b-cgu.07.rcgu.o
 0001:000e6df0       _ZN42_$LT$$RF$T$u20$as$u20$core..fmt..Debug$GT$3fmt17h1383a969eda96787E 00000001400e7df0 f   libregex_syntax-1a078ef20d4d7dee:regex_syntax-1a078ef20d4d7dee.regex_syntax.936f5d3813beee8b-cgu.15.rcgu.o
 0001:000e6e70       _ZN42_$LT$$RF$T$u20$as$u20$core..fmt..Debug$GT$3fmt17h1b4cb77c98799318E 00000001400e7e70 f   libregex_syntax-1a078ef20d4d7dee:regex_syntax-1a078ef20d4d7dee.regex_syntax.936f5d3813beee8b-cgu.15.rcgu.o
 0001:000e6fe0       _ZN42_$LT$$RF$T$u20$as$u20$core..fmt..Debug$GT$3fmt17h1f2c718c9e305310E 00000001400e7fe0 f   libregex_syntax-1a078ef20d4d7dee:regex_syntax-1a078ef20d4d7dee.regex_syntax.936f5d3813beee8b-cgu.15.rcgu.o
 0001:000e6ff0       _ZN42_$LT$$RF$T$u20$as$u20$core..fmt..Debug$GT$3fmt17h3c98998dcaf8eb13E 00000001400e7ff0 f   libregex_syntax-1a078ef20d4d7dee:regex_syntax-1a078ef20d4d7dee.regex_syntax.936f5d3813beee8b-cgu.15.rcgu.o
 0001:000e7050       _ZN42_$LT$$RF$T$u20$as$u20$core..fmt..Debug$GT$3fmt17h5483d9b49e3b3e37E 00000001400e8050 f   libregex_syntax-1a078ef20d4d7dee:regex_syntax-1a078ef20d4d7dee.regex_syntax.936f5d3813beee8b-cgu.15.rcgu.o
 0001:000e7060       _ZN42_$LT$$RF$T$u20$as$u20$core..fmt..Debug$GT$3fmt17h6131ac70cdb256abE 00000001400e8060 f   libregex_syntax-1a078ef20d4d7dee:regex_syntax-1a078ef20d4d7dee.regex_syntax.936f5d3813beee8b-cgu.15.rcgu.o
 0001:000e70e0       _ZN42_$LT$$RF$T$u20$as$u20$core..fmt..Debug$GT$3fmt17hc687d07fd166d2d3E 00000001400e80e0 f   libgoblin-8ee2c552e4c10df6:goblin-8ee2c552e4c10df6.goblin.f087800e97e1b550-cgu.14.rcgu.o
 0001:000e7100       _ZN42_$LT$$RF$T$u20$as$u20$core..fmt..Debug$GT$3fmt17had48c65ee0ef0e26E 00000001400e8100 f   libregex_syntax-1a078ef20d4d7dee:regex_syntax-1a078ef20d4d7dee.regex_syntax.936f5d3813beee8b-cgu.15.rcgu.o
 0001:000e7120       _ZN42_$LT$$RF$T$u20$as$u20$core..fmt..Debug$GT$3fmt17hb639788074375757E 00000001400e8120 f   libregex_syntax-1a078ef20d4d7dee:regex_syntax-1a078ef20d4d7dee.regex_syntax.936f5d3813beee8b-cgu.15.rcgu.o
 0001:000e7180       _ZN66_$LT$core..option..Option$LT$T$GT$$u20$as$u20$core..fmt..Debug$GT$3fmt17h41ef8bf9462b19deE 00000001400e8180 f   libregex_syntax-1a078ef20d4d7dee:regex_syntax-1a078ef20d4d7dee.regex_syntax.936f5d3813beee8b-cgu.15.rcgu.o
 0001:000e71e0       _ZN66_$LT$core..option..Option$LT$T$GT$$u20$as$u20$core..fmt..Debug$GT$3fmt17hb21fa1616c9af364E 00000001400e81e0 f   libregex_syntax-1a078ef20d4d7dee:regex_syntax-1a078ef20d4d7dee.regex_syntax.936f5d3813beee8b-cgu.15.rcgu.o
 0001:000e7240       _ZN66_$LT$core..option..Option$LT$T$GT$$u20$as$u20$core..fmt..Debug$GT$3fmt17hed5362326bf34589E 00000001400e8240 f   libregex_syntax-1a078ef20d4d7dee:regex_syntax-1a078ef20d4d7dee.regex_syntax.936f5d3813beee8b-cgu.15.rcgu.o
 0001:000e72a0       _ZN66_$LT$core..option..Option$LT$T$GT$$u20$as$u20$core..fmt..Debug$GT$3fmt17hfb4ab92456ca4d4fE 00000001400e82a0 f   libregex_syntax-1a078ef20d4d7dee:regex_syntax-1a078ef20d4d7dee.regex_syntax.936f5d3813beee8b-cgu.15.rcgu.o
 0001:000e7300       _ZN90_$LT$regex_syntax..hir..interval..IntervalSet$LT$I$GT$$u20$as$u20$core..cmp..PartialEq$GT$2eq17h5598e8f083ebf2d8E 00000001400e8300 f   libregex_syntax-1a078ef20d4d7dee:regex_syntax-1a078ef20d4d7dee.regex_syntax.936f5d3813beee8b-cgu.15.rcgu.o
 0001:000e7390       _ZN90_$LT$regex_syntax..hir..interval..IntervalSet$LT$I$GT$$u20$as$u20$core..cmp..PartialEq$GT$2eq17he3041da6e4f0c8ccE 00000001400e8390 f   libregex_syntax-1a078ef20d4d7dee:regex_syntax-1a078ef20d4d7dee.regex_syntax.936f5d3813beee8b-cgu.15.rcgu.o
 0001:000e7410       _ZN12regex_syntax3hir8interval20IntervalSet$LT$I$GT$3new17h01f0e7dcc5e5e827E 00000001400e8410 f   libregex_syntax-1a078ef20d4d7dee:regex_syntax-1a078ef20d4d7dee.regex_syntax.936f5d3813beee8b-cgu.15.rcgu.o
 0001:000e74b0       _ZN12regex_syntax3hir8interval20IntervalSet$LT$I$GT$3new17h2160cef25f54d12eE 00000001400e84b0 f   libregex_syntax-1a078ef20d4d7dee:regex_syntax-1a078ef20d4d7dee.regex_syntax.936f5d3813beee8b-cgu.15.rcgu.o
 0001:000e7620       _ZN12regex_syntax3hir8interval20IntervalSet$LT$I$GT$3new17h26985677f55bffacE 00000001400e8620 f   libregex_syntax-1a078ef20d4d7dee:regex_syntax-1a078ef20d4d7dee.regex_syntax.936f5d3813beee8b-cgu.15.rcgu.o
 0001:000e76a0       _ZN12regex_syntax3hir8interval20IntervalSet$LT$I$GT$3new17h2ea0b9265b623cfeE 00000001400e86a0 f   libregex_syntax-1a078ef20d4d7dee:regex_syntax-1a078ef20d4d7dee.regex_syntax.936f5d3813beee8b-cgu.15.rcgu.o
 0001:000e7740       _ZN12regex_syntax3hir8interval20IntervalSet$LT$I$GT$3new17hdebe92d37abceaafE 00000001400e8740 f   libregex_syntax-1a078ef20d4d7dee:regex_syntax-1a078ef20d4d7dee.regex_syntax.936f5d3813beee8b-cgu.15.rcgu.o
 0001:000e77d0       _ZN12regex_syntax3hir8interval20IntervalSet$LT$I$GT$3new17he4b3679fef4e1b1aE 00000001400e87d0 f   libregex_syntax-1a078ef20d4d7dee:regex_syntax-1a078ef20d4d7dee.regex_syntax.936f5d3813beee8b-cgu.15.rcgu.o
 0001:000e7860       _ZN12regex_syntax3hir8interval20IntervalSet$LT$I$GT$16case_fold_simple17ha995d42b924f7e17E 00000001400e8860 f   libregex_syntax-1a078ef20d4d7dee:regex_syntax-1a078ef20d4d7dee.regex_syntax.936f5d3813beee8b-cgu.15.rcgu.o
 0001:000e79e0       _ZN12regex_syntax3hir8interval20IntervalSet$LT$I$GT$5union17h9fbbab1896716d2aE 00000001400e89e0 f   libregex_syntax-1a078ef20d4d7dee:regex_syntax-1a078ef20d4d7dee.regex_syntax.936f5d3813beee8b-cgu.15.rcgu.o
 0001:000e7ad0       _ZN12regex_syntax3hir8interval20IntervalSet$LT$I$GT$5union17hb3962d971ddf3250E 00000001400e8ad0 f   libregex_syntax-1a078ef20d4d7dee:regex_syntax-1a078ef20d4d7dee.regex_syntax.936f5d3813beee8b-cgu.15.rcgu.o
 0001:000e7bb0       _ZN12regex_syntax3hir8interval20IntervalSet$LT$I$GT$9intersect17h7d77bfb6e658c206E 00000001400e8bb0 f   libregex_syntax-1a078ef20d4d7dee:regex_syntax-1a078ef20d4d7dee.regex_syntax.936f5d3813beee8b-cgu.15.rcgu.o
 0001:000e7d80       _ZN12regex_syntax3hir8interval20IntervalSet$LT$I$GT$9intersect17hfef4a33757b40809E 00000001400e8d80 f   libregex_syntax-1a078ef20d4d7dee:regex_syntax-1a078ef20d4d7dee.regex_syntax.936f5d3813beee8b-cgu.15.rcgu.o
 0001:000e7f50       _ZN12regex_syntax3hir8interval20IntervalSet$LT$I$GT$10difference17ha6a2aec6e0163b73E 00000001400e8f50 f   libregex_syntax-1a078ef20d4d7dee:regex_syntax-1a078ef20d4d7dee.regex_syntax.936f5d3813beee8b-cgu.15.rcgu.o
 0001:000e82d0       _ZN12regex_syntax3hir8interval20IntervalSet$LT$I$GT$10difference17hb34b96963d32edbbE 00000001400e92d0 f   libregex_syntax-1a078ef20d4d7dee:regex_syntax-1a078ef20d4d7dee.regex_syntax.936f5d3813beee8b-cgu.15.rcgu.o
 0001:000e8680       _ZN12regex_syntax3hir8interval20IntervalSet$LT$I$GT$20symmetric_difference17h9797ef2524db2551E 00000001400e9680 f   libregex_syntax-1a078ef20d4d7dee:regex_syntax-1a078ef20d4d7dee.regex_syntax.936f5d3813beee8b-cgu.15.rcgu.o
 0001:000e8860       _ZN12regex_syntax3hir8interval20IntervalSet$LT$I$GT$20symmetric_difference17ha536bc40dc47c85fE 00000001400e9860 f   libregex_syntax-1a078ef20d4d7dee:regex_syntax-1a078ef20d4d7dee.regex_syntax.936f5d3813beee8b-cgu.15.rcgu.o
 0001:000e8a30       _ZN12regex_syntax3hir8interval20IntervalSet$LT$I$GT$6negate17hb74b52f49d7d147cE 00000001400e9a30 f   libregex_syntax-1a078ef20d4d7dee:regex_syntax-1a078ef20d4d7dee.regex_syntax.936f5d3813beee8b-cgu.15.rcgu.o
 0001:000e8d30       _ZN12regex_syntax3hir8interval20IntervalSet$LT$I$GT$6negate17hd0673f22480e4feeE 00000001400e9d30 f   libregex_syntax-1a078ef20d4d7dee:regex_syntax-1a078ef20d4d7dee.regex_syntax.936f5d3813beee8b-cgu.15.rcgu.o
 0001:000e8f40       _ZN12regex_syntax3hir8interval20IntervalSet$LT$I$GT$12canonicalize17h5e48ed53672d6110E.llvm.18063728134863587459 00000001400e9f40 f   libregex_syntax-1a078ef20d4d7dee:regex_syntax-1a078ef20d4d7dee.regex_syntax.936f5d3813beee8b-cgu.15.rcgu.o
 0001:000e9130       _ZN12regex_syntax3hir8interval20IntervalSet$LT$I$GT$12canonicalize17h8f717d0e7e834942E.llvm.18063728134863587459 00000001400ea130 f   libregex_syntax-1a078ef20d4d7dee:regex_syntax-1a078ef20d4d7dee.regex_syntax.936f5d3813beee8b-cgu.15.rcgu.o
 0001:000e9350       _ZN80_$LT$core..ops..range..RangeInclusive$LT$Idx$GT$$u20$as$u20$core..fmt..Debug$GT$3fmt17h03891c2331f9e161E 00000001400ea350 f   libregex_syntax-1a078ef20d4d7dee:regex_syntax-1a078ef20d4d7dee.regex_syntax.936f5d3813beee8b-cgu.13.rcgu.o
 0001:000e9400       _ZN80_$LT$core..ops..range..RangeInclusive$LT$Idx$GT$$u20$as$u20$core..fmt..Debug$GT$3fmt17hdde907b38184a139E 00000001400ea400 f   libregex_syntax-1a078ef20d4d7dee:regex_syntax-1a078ef20d4d7dee.regex_syntax.936f5d3813beee8b-cgu.13.rcgu.o
 0001:000e94c0       _ZN12regex_syntax3ast7visitor5visit17h4f35615bd32fc2a5E 00000001400ea4c0 f   libregex_syntax-1a078ef20d4d7dee:regex_syntax-1a078ef20d4d7dee.regex_syntax.936f5d3813beee8b-cgu.13.rcgu.o
 0001:000e9cc0       _ZN12regex_syntax3ast7visitor5visit17h988382b65e0fbf02E 00000001400eacc0 f   libregex_syntax-1a078ef20d4d7dee:regex_syntax-1a078ef20d4d7dee.regex_syntax.936f5d3813beee8b-cgu.13.rcgu.o
 0001:000ea470       _ZN4core3ptr169drop_in_place$LT$$LT$alloc..vec..drain..Drain$LT$T$C$A$GT$$u20$as$u20$core..ops..drop..Drop$GT$..drop..DropGuard$LT$regex_syntax..ast..Ast$C$alloc..alloc..Global$GT$$GT$17h74696d34b7703ca9E.llvm.8070924949184118840 00000001400eb470 f   libregex_syntax-1a078ef20d4d7dee:regex_syntax-1a078ef20d4d7dee.regex_syntax.936f5d3813beee8b-cgu.11.rcgu.o
 0001:000ea4d0       _ZN4core3ptr169drop_in_place$LT$$LT$alloc..vec..drain..Drain$LT$T$C$A$GT$$u20$as$u20$core..ops..drop..Drop$GT$..drop..DropGuard$LT$regex_syntax..hir..Hir$C$alloc..alloc..Global$GT$$GT$17h85ccc803282fee0eE.llvm.8070924949184118840 00000001400eb4d0 f   libregex_syntax-1a078ef20d4d7dee:regex_syntax-1a078ef20d4d7dee.regex_syntax.936f5d3813beee8b-cgu.11.rcgu.o
 0001:000ea530       _ZN4core3ptr178drop_in_place$LT$$LT$alloc..vec..drain..Drain$LT$T$C$A$GT$$u20$as$u20$core..ops..drop..Drop$GT$..drop..DropGuard$LT$regex_syntax..ast..ClassSetItem$C$alloc..alloc..Global$GT$$GT$17hafa02be0ec090591E.llvm.8070924949184118840 00000001400eb530 f   libregex_syntax-1a078ef20d4d7dee:regex_syntax-1a078ef20d4d7dee.regex_syntax.936f5d3813beee8b-cgu.11.rcgu.o
 0001:000ea590       _ZN4core3ptr43drop_in_place$LT$regex_syntax..ast..Ast$GT$17he647054e5ec40e10E.llvm.8070924949184118840 00000001400eb590 f   libregex_syntax-1a078ef20d4d7dee:regex_syntax-1a078ef20d4d7dee.regex_syntax.936f5d3813beee8b-cgu.11.rcgu.o
 0001:000eaa00       _ZN4core3ptr43drop_in_place$LT$regex_syntax..hir..Hir$GT$17ha67d287773577abdE.llvm.8070924949184118840 00000001400eba00 f   libregex_syntax-1a078ef20d4d7dee:regex_syntax-1a078ef20d4d7dee.regex_syntax.936f5d3813beee8b-cgu.11.rcgu.o
 0001:000eaaa0       _ZN4core3ptr47drop_in_place$LT$regex_syntax..hir..HirKind$GT$17hbc0bc3e6d9734be6E.llvm.8070924949184118840 00000001400ebaa0 f   libregex_syntax-1a078ef20d4d7dee:regex_syntax-1a078ef20d4d7dee.regex_syntax.936f5d3813beee8b-cgu.11.rcgu.o
 0001:000eac30       _ZN4core3ptr48drop_in_place$LT$regex_syntax..ast..ClassSet$GT$17ha59ae3a2695da1c7E.llvm.8070924949184118840 00000001400ebc30 f   libregex_syntax-1a078ef20d4d7dee:regex_syntax-1a078ef20d4d7dee.regex_syntax.936f5d3813beee8b-cgu.11.rcgu.o
 0001:000ead40       _ZN4core3ptr52drop_in_place$LT$regex_syntax..ast..ClassSetItem$GT$17hdd3684f3983c3195E.llvm.8070924949184118840 00000001400ebd40 f   libregex_syntax-1a078ef20d4d7dee:regex_syntax-1a078ef20d4d7dee.regex_syntax.936f5d3813beee8b-cgu.11.rcgu.o
 0001:000eaed0       _ZN4core3ptr56drop_in_place$LT$regex_syntax..ast..ClassSetBinaryOp$GT$17h3d7cbdb3265931e5E.llvm.8070924949184118840 00000001400ebed0 f   libregex_syntax-1a078ef20d4d7dee:regex_syntax-1a078ef20d4d7dee.regex_syntax.936f5d3813beee8b-cgu.11.rcgu.o
 0001:000eaf80       _ZN4core3ptr68drop_in_place$LT$alloc..boxed..Box$LT$regex_syntax..hir..Hir$GT$$GT$17h4a78e6e90353d38eE.llvm.8070924949184118840 00000001400ebf80 f   libregex_syntax-1a078ef20d4d7dee:regex_syntax-1a078ef20d4d7dee.regex_syntax.936f5d3813beee8b-cgu.11.rcgu.o
 0001:000eb100       _ZN4core3ptr73drop_in_place$LT$alloc..boxed..Box$LT$regex_syntax..ast..ClassSet$GT$$GT$17he474a0dfbad7d9b4E.llvm.8070924949184118840 00000001400ec100 f   libregex_syntax-1a078ef20d4d7dee:regex_syntax-1a078ef20d4d7dee.regex_syntax.936f5d3813beee8b-cgu.11.rcgu.o
 0001:000eb2b0       _ZN79_$LT$alloc..vec..drain..Drain$LT$T$C$A$GT$$u20$as$u20$core..ops..drop..Drop$GT$4drop17h4aa7676d267730d7E 00000001400ec2b0 f   libregex_syntax-1a078ef20d4d7dee:regex_syntax-1a078ef20d4d7dee.regex_syntax.936f5d3813beee8b-cgu.11.rcgu.o
 0001:000eb360       _ZN79_$LT$alloc..vec..drain..Drain$LT$T$C$A$GT$$u20$as$u20$core..ops..drop..Drop$GT$4drop17ha2d48d222086b4f9E 00000001400ec360 f   libregex_syntax-1a078ef20d4d7dee:regex_syntax-1a078ef20d4d7dee.regex_syntax.936f5d3813beee8b-cgu.11.rcgu.o
 0001:000eb4e0       _ZN79_$LT$alloc..vec..drain..Drain$LT$T$C$A$GT$$u20$as$u20$core..ops..drop..Drop$GT$4drop17hbbbc0f766464e130E 00000001400ec4e0 f   libregex_syntax-1a078ef20d4d7dee:regex_syntax-1a078ef20d4d7dee.regex_syntax.936f5d3813beee8b-cgu.11.rcgu.o
 0001:000eb620       _ZN79_$LT$alloc..vec..drain..Drain$LT$T$C$A$GT$$u20$as$u20$core..ops..drop..Drop$GT$4drop17hcb7114800cb7fb6bE 00000001400ec620 f   libregex_syntax-1a078ef20d4d7dee:regex_syntax-1a078ef20d4d7dee.regex_syntax.936f5d3813beee8b-cgu.11.rcgu.o
 0001:000eb840       _ZN65_$LT$smallvec..CollectionAllocErr$u20$as$u20$core..fmt..Debug$GT$3fmt17h653a23a3b51c5b77E 00000001400ec840 f   libsmallvec-0d696c4d2d259272:smallvec-0d696c4d2d259272.smallvec.c0c07f02ee5353bc-cgu.0.rcgu.o
 0001:000ebf70       _ZN6goblin6Object5parse17he9802acb8f2239a3E 00000001400ecf70 f   libgoblin-8ee2c552e4c10df6:goblin-8ee2c552e4c10df6.goblin.f087800e97e1b550-cgu.11.rcgu.o
 0001:000ec2e0       _ZN6goblin3elf14section_header13SectionHeader5parse17h7466282920334109E 00000001400ed2e0 f   libgoblin-8ee2c552e4c10df6:goblin-8ee2c552e4c10df6.goblin.f087800e97e1b550-cgu.11.rcgu.o
 0001:000ec740       _ZN6goblin3elf14section_header13SectionHeader10check_size17h3c6c3ce1f201e12eE 00000001400ed740 f   libgoblin-8ee2c552e4c10df6:goblin-8ee2c552e4c10df6.goblin.f087800e97e1b550-cgu.11.rcgu.o
 0001:000ec8a0       _ZN116_$LT$goblin..elf..section_header..SectionHeader$u20$as$u20$scroll..ctx..TryFromCtx$LT$goblin..container..Ctx$GT$$GT$12try_from_ctx17hb443fe234d6fc169E 00000001400ed8a0 f   libgoblin-8ee2c552e4c10df6:goblin-8ee2c552e4c10df6.goblin.f087800e97e1b550-cgu.11.rcgu.o
 0001:000ec9c0       _ZN6goblin3elf3sym6Symtab5parse17h96e6f790157818feE 00000001400ed9c0 f   libgoblin-8ee2c552e4c10df6:goblin-8ee2c552e4c10df6.goblin.f087800e97e1b550-cgu.11.rcgu.o
 0001:000ecb80       _ZN6goblin3elf3Elf5parse17h56f46a3dce24c9b6E 00000001400edb80 f   libgoblin-8ee2c552e4c10df6:goblin-8ee2c552e4c10df6.goblin.f087800e97e1b550-cgu.11.rcgu.o
 0001:000eee70       _ZN6goblin6strtab6Strtab5parse17h5264ae68c03970e4E 00000001400efe70 f   libgoblin-8ee2c552e4c10df6:goblin-8ee2c552e4c10df6.goblin.f087800e97e1b550-cgu.13.rcgu.o
 0001:000ef1e0       _ZN6goblin6strtab6Strtab6to_vec17ha46dbf7dc8da29a0E 00000001400f01e0 f   libgoblin-8ee2c552e4c10df6:goblin-8ee2c552e4c10df6.goblin.f087800e97e1b550-cgu.13.rcgu.o
 0001:000ef4d0       _ZN6goblin6strtab6Strtab6get_at17hacd2d0312b587215E 00000001400f04d0 f   libgoblin-8ee2c552e4c10df6:goblin-8ee2c552e4c10df6.goblin.f087800e97e1b550-cgu.13.rcgu.o
 0001:000ef5a0       _ZN6goblin2pe17certificate_table20AttributeCertificate5parse17hc3bdedbed622c05dE 00000001400f05a0 f   libgoblin-8ee2c552e4c10df6:goblin-8ee2c552e4c10df6.goblin.f087800e97e1b550-cgu.13.rcgu.o
 0001:000ef830       _ZN6goblin2pe17certificate_table22enumerate_certificates17hdbbd814885aa007fE 00000001400f0830 f   libgoblin-8ee2c552e4c10df6:goblin-8ee2c552e4c10df6.goblin.f087800e97e1b550-cgu.13.rcgu.o
 0001:000efa30       _ZN57_$LT$goblin..error..Error$u20$as$u20$core..fmt..Debug$GT$3fmt17hc246cd85ae2bbc81E 00000001400f0a30 f   libgoblin-8ee2c552e4c10df6:goblin-8ee2c552e4c10df6.goblin.f087800e97e1b550-cgu.13.rcgu.o
 0001:000efb70       _ZN101_$LT$goblin..elf..header..Header$u20$as$u20$scroll..ctx..TryFromCtx$LT$scroll..endian..Endian$GT$$GT$12try_from_ctx17h96c05a85b790e7c5E 00000001400f0b70 f   libgoblin-8ee2c552e4c10df6:goblin-8ee2c552e4c10df6.goblin.f087800e97e1b550-cgu.13.rcgu.o
 0001:000efdd0       _ZN42_$LT$$RF$T$u20$as$u20$core..fmt..Debug$GT$3fmt17h2ea80bff3b556b8fE 00000001400f0dd0 f   libgoblin-8ee2c552e4c10df6:goblin-8ee2c552e4c10df6.goblin.f087800e97e1b550-cgu.09.rcgu.o
 0001:000efe50       _ZN42_$LT$$RF$T$u20$as$u20$core..fmt..Debug$GT$3fmt17hb14653d912298ac0E 00000001400f0e50 f   libgoblin-8ee2c552e4c10df6:goblin-8ee2c552e4c10df6.goblin.f087800e97e1b550-cgu.09.rcgu.o
 0001:000f0000       _ZN6goblin2pe13section_table12SectionTable5parse17hf879b42bee48d8a4E 00000001400f1000 f   libgoblin-8ee2c552e4c10df6:goblin-8ee2c552e4c10df6.goblin.f087800e97e1b550-cgu.09.rcgu.o
 0001:000f03d0       _ZN6goblin2pe13section_table12SectionTable11name_offset17h89458fb665b0e775E 00000001400f13d0 f   libgoblin-8ee2c552e4c10df6:goblin-8ee2c552e4c10df6.goblin.f087800e97e1b550-cgu.09.rcgu.o
 0001:000f0960       _ZN111_$LT$goblin..elf..header..header32..Header$u20$as$u20$scroll..ctx..TryFromCtx$LT$scroll..endian..Endian$GT$$GT$12try_from_ctx17h066fd39da95a7c01E 00000001400f1960 f   libgoblin-8ee2c552e4c10df6:goblin-8ee2c552e4c10df6.goblin.f087800e97e1b550-cgu.09.rcgu.o
 0001:000f10c0       _ZN114_$LT$goblin..elf..reloc..Reloc$u20$as$u20$scroll..ctx..TryFromCtx$LT$$LP$bool$C$goblin..container..Ctx$RP$$GT$$GT$12try_from_ctx17h7a95461efd4996d0E 00000001400f20c0 f   libgoblin-8ee2c552e4c10df6:goblin-8ee2c552e4c10df6.goblin.f087800e97e1b550-cgu.09.rcgu.o
 0001:000f13d0       _ZN76_$LT$goblin..pe..section_table..SectionTable$u20$as$u20$core..fmt..Debug$GT$3fmt17h85a200bd3a937b34E 00000001400f23d0 f   libgoblin-8ee2c552e4c10df6:goblin-8ee2c552e4c10df6.goblin.f087800e97e1b550-cgu.09.rcgu.o
 0001:000f1520       _ZN4core3str21_$LT$impl$u20$str$GT$16trim_end_matches17h9d9273ffb5a27f56E 00000001400f2520 f   libgoblin-8ee2c552e4c10df6:goblin-8ee2c552e4c10df6.goblin.f087800e97e1b550-cgu.08.rcgu.o
 0001:000f15c0       _ZN4core3str21_$LT$impl$u20$str$GT$16trim_end_matches17hd268d3e395ad85a2E 00000001400f25c0 f   libgoblin-8ee2c552e4c10df6:goblin-8ee2c552e4c10df6.goblin.f087800e97e1b550-cgu.08.rcgu.o
 0001:000f1700       _ZN4core3str21_$LT$impl$u20$str$GT$18trim_start_matches17h12b0e82a0d1dd6deE 00000001400f2700 f   libgoblin-8ee2c552e4c10df6:goblin-8ee2c552e4c10df6.goblin.f087800e97e1b550-cgu.08.rcgu.o
 0001:000f17c0       _ZN5alloc7raw_vec19RawVec$LT$T$C$A$GT$16reserve_for_push17h15c54b2e4084e229E 00000001400f27c0 f   libgoblin-8ee2c552e4c10df6:goblin-8ee2c552e4c10df6.goblin.f087800e97e1b550-cgu.01.rcgu.o
 0001:000f1890       _ZN5alloc7raw_vec19RawVec$LT$T$C$A$GT$16reserve_for_push17h1b91e2cbc37787aeE 00000001400f2890 f   libgoblin-8ee2c552e4c10df6:goblin-8ee2c552e4c10df6.goblin.f087800e97e1b550-cgu.01.rcgu.o
 0001:000f1960       _ZN5alloc7raw_vec19RawVec$LT$T$C$A$GT$16reserve_for_push17h31e19699c7b81fafE 00000001400f2960 f   libgoblin-8ee2c552e4c10df6:goblin-8ee2c552e4c10df6.goblin.f087800e97e1b550-cgu.01.rcgu.o
 0001:000f1a20       _ZN5alloc7raw_vec19RawVec$LT$T$C$A$GT$16reserve_for_push17h5a9f020ea36e5d1eE 00000001400f2a20 f   libgoblin-8ee2c552e4c10df6:goblin-8ee2c552e4c10df6.goblin.f087800e97e1b550-cgu.01.rcgu.o
 0001:000f1a20       _ZN5alloc7raw_vec19RawVec$LT$T$C$A$GT$16reserve_for_push17h6cec3d50a5ff75eaE 00000001400f2a20 f   libgoblin-8ee2c552e4c10df6:goblin-8ee2c552e4c10df6.goblin.f087800e97e1b550-cgu.01.rcgu.o
 0001:000f1a20       _ZN5alloc7raw_vec19RawVec$LT$T$C$A$GT$16reserve_for_push17h9252170254ee8a92E 00000001400f2a20 f   libgoblin-8ee2c552e4c10df6:goblin-8ee2c552e4c10df6.goblin.f087800e97e1b550-cgu.01.rcgu.o
 0001:000f1a20       _ZN5alloc7raw_vec19RawVec$LT$T$C$A$GT$16reserve_for_push17he1f171d849590659E 00000001400f2a20 f   libgoblin-8ee2c552e4c10df6:goblin-8ee2c552e4c10df6.goblin.f087800e97e1b550-cgu.01.rcgu.o
 0001:000f1af0       _ZN5alloc7raw_vec19RawVec$LT$T$C$A$GT$16reserve_for_push17h97e2f4ccf0e8aed4E 00000001400f2af0 f   libgoblin-8ee2c552e4c10df6:goblin-8ee2c552e4c10df6.goblin.f087800e97e1b550-cgu.01.rcgu.o
 0001:000f1bb0       _ZN68_$LT$$u5b$u8$u5d$$u20$as$u20$scroll..pread..Pread$LT$Ctx$C$E$GT$$GT$10gread_with17h014b14ed6d28f1fbE 00000001400f2bb0 f   libgoblin-8ee2c552e4c10df6:goblin-8ee2c552e4c10df6.goblin.f087800e97e1b550-cgu.00.rcgu.o
 0001:000f1bb0       _ZN68_$LT$$u5b$u8$u5d$$u20$as$u20$scroll..pread..Pread$LT$Ctx$C$E$GT$$GT$10gread_with17h803cb5b3cd4c6e28E 00000001400f2bb0 f   libgoblin-8ee2c552e4c10df6:goblin-8ee2c552e4c10df6.goblin.f087800e97e1b550-cgu.00.rcgu.o
 0001:000f1bb0       _ZN68_$LT$$u5b$u8$u5d$$u20$as$u20$scroll..pread..Pread$LT$Ctx$C$E$GT$$GT$10gread_with17hf039eb19bdbe4fadE 00000001400f2bb0 f   libgoblin-8ee2c552e4c10df6:goblin-8ee2c552e4c10df6.goblin.f087800e97e1b550-cgu.00.rcgu.o
 0001:000f1d40       _ZN68_$LT$$u5b$u8$u5d$$u20$as$u20$scroll..pread..Pread$LT$Ctx$C$E$GT$$GT$10gread_with17h01dc954bf063140bE 00000001400f2d40 f   libgoblin-8ee2c552e4c10df6:goblin-8ee2c552e4c10df6.goblin.f087800e97e1b550-cgu.00.rcgu.o
 0001:000f22e0       _ZN68_$LT$$u5b$u8$u5d$$u20$as$u20$scroll..pread..Pread$LT$Ctx$C$E$GT$$GT$10gread_with17h082829796c4dca51E 00000001400f32e0 f   libgoblin-8ee2c552e4c10df6:goblin-8ee2c552e4c10df6.goblin.f087800e97e1b550-cgu.00.rcgu.o
 0001:000f24f0       _ZN68_$LT$$u5b$u8$u5d$$u20$as$u20$scroll..pread..Pread$LT$Ctx$C$E$GT$$GT$10gread_with17h09af789a622b4476E 00000001400f34f0 f   libgoblin-8ee2c552e4c10df6:goblin-8ee2c552e4c10df6.goblin.f087800e97e1b550-cgu.00.rcgu.o
 0001:000f24f0       _ZN68_$LT$$u5b$u8$u5d$$u20$as$u20$scroll..pread..Pread$LT$Ctx$C$E$GT$$GT$10gread_with17h1c160ce7f620e73bE 00000001400f34f0 f   libgoblin-8ee2c552e4c10df6:goblin-8ee2c552e4c10df6.goblin.f087800e97e1b550-cgu.00.rcgu.o
 0001:000f24f0       _ZN68_$LT$$u5b$u8$u5d$$u20$as$u20$scroll..pread..Pread$LT$Ctx$C$E$GT$$GT$10gread_with17h22f735620db8c085E 00000001400f34f0 f   libgoblin-8ee2c552e4c10df6:goblin-8ee2c552e4c10df6.goblin.f087800e97e1b550-cgu.00.rcgu.o
 0001:000f24f0       _ZN68_$LT$$u5b$u8$u5d$$u20$as$u20$scroll..pread..Pread$LT$Ctx$C$E$GT$$GT$10gread_with17h531e54f59e6c0afdE 00000001400f34f0 f   libgoblin-8ee2c552e4c10df6:goblin-8ee2c552e4c10df6.goblin.f087800e97e1b550-cgu.00.rcgu.o
 0001:000f24f0       _ZN68_$LT$$u5b$u8$u5d$$u20$as$u20$scroll..pread..Pread$LT$Ctx$C$E$GT$$GT$10gread_with17h64e3df1f479c9b26E 00000001400f34f0 f   libgoblin-8ee2c552e4c10df6:goblin-8ee2c552e4c10df6.goblin.f087800e97e1b550-cgu.00.rcgu.o
 0001:000f24f0       _ZN68_$LT$$u5b$u8$u5d$$u20$as$u20$scroll..pread..Pread$LT$Ctx$C$E$GT$$GT$10gread_with17h7e01d14d6a05d31eE 00000001400f34f0 f   libgoblin-8ee2c552e4c10df6:goblin-8ee2c552e4c10df6.goblin.f087800e97e1b550-cgu.00.rcgu.o
 0001:000f24f0       _ZN68_$LT$$u5b$u8$u5d$$u20$as$u20$scroll..pread..Pread$LT$Ctx$C$E$GT$$GT$10gread_with17h8dfc455564797ea1E 00000001400f34f0 f   libgoblin-8ee2c552e4c10df6:goblin-8ee2c552e4c10df6.goblin.f087800e97e1b550-cgu.00.rcgu.o
 0001:000f24f0       _ZN68_$LT$$u5b$u8$u5d$$u20$as$u20$scroll..pread..Pread$LT$Ctx$C$E$GT$$GT$10gread_with17h99f76a154dcba980E 00000001400f34f0 f   libgoblin-8ee2c552e4c10df6:goblin-8ee2c552e4c10df6.goblin.f087800e97e1b550-cgu.00.rcgu.o
 0001:000f24f0       _ZN68_$LT$$u5b$u8$u5d$$u20$as$u20$scroll..pread..Pread$LT$Ctx$C$E$GT$$GT$10gread_with17hb7cfda13fc1520cdE 00000001400f34f0 f   libgoblin-8ee2c552e4c10df6:goblin-8ee2c552e4c10df6.goblin.f087800e97e1b550-cgu.00.rcgu.o
 0001:000f24f0       _ZN68_$LT$$u5b$u8$u5d$$u20$as$u20$scroll..pread..Pread$LT$Ctx$C$E$GT$$GT$10gread_with17hc03c4babcb3084dfE 00000001400f34f0 f   libgoblin-8ee2c552e4c10df6:goblin-8ee2c552e4c10df6.goblin.f087800e97e1b550-cgu.00.rcgu.o
 0001:000f24f0       _ZN68_$LT$$u5b$u8$u5d$$u20$as$u20$scroll..pread..Pread$LT$Ctx$C$E$GT$$GT$10gread_with17hccf0f18d7ea655fdE 00000001400f34f0 f   libgoblin-8ee2c552e4c10df6:goblin-8ee2c552e4c10df6.goblin.f087800e97e1b550-cgu.00.rcgu.o
 0001:000f25d0       _ZN68_$LT$$u5b$u8$u5d$$u20$as$u20$scroll..pread..Pread$LT$Ctx$C$E$GT$$GT$10gread_with17h11ad942c5f0821f0E 00000001400f35d0 f   libgoblin-8ee2c552e4c10df6:goblin-8ee2c552e4c10df6.goblin.f087800e97e1b550-cgu.00.rcgu.o
 0001:000f25d0       _ZN68_$LT$$u5b$u8$u5d$$u20$as$u20$scroll..pread..Pread$LT$Ctx$C$E$GT$$GT$10gread_with17h363a31030f4f0819E 00000001400f35d0 f   libgoblin-8ee2c552e4c10df6:goblin-8ee2c552e4c10df6.goblin.f087800e97e1b550-cgu.00.rcgu.o
 0001:000f25d0       _ZN68_$LT$$u5b$u8$u5d$$u20$as$u20$scroll..pread..Pread$LT$Ctx$C$E$GT$$GT$10gread_with17ha35c98897e6af6aeE 00000001400f35d0 f   libgoblin-8ee2c552e4c10df6:goblin-8ee2c552e4c10df6.goblin.f087800e97e1b550-cgu.00.rcgu.o
 0001:000f25d0       _ZN68_$LT$$u5b$u8$u5d$$u20$as$u20$scroll..pread..Pread$LT$Ctx$C$E$GT$$GT$10gread_with17hf7bbeb2b0c63f183E 00000001400f35d0 f   libgoblin-8ee2c552e4c10df6:goblin-8ee2c552e4c10df6.goblin.f087800e97e1b550-cgu.00.rcgu.o
 0001:000f2720       _ZN68_$LT$$u5b$u8$u5d$$u20$as$u20$scroll..pread..Pread$LT$Ctx$C$E$GT$$GT$10gread_with17h16638a98b5acf14cE 00000001400f3720 f   libgoblin-8ee2c552e4c10df6:goblin-8ee2c552e4c10df6.goblin.f087800e97e1b550-cgu.00.rcgu.o
 0001:000f2c50       _ZN68_$LT$$u5b$u8$u5d$$u20$as$u20$scroll..pread..Pread$LT$Ctx$C$E$GT$$GT$10gread_with17h1a9c5914cab4f2aaE 00000001400f3c50 f   libgoblin-8ee2c552e4c10df6:goblin-8ee2c552e4c10df6.goblin.f087800e97e1b550-cgu.00.rcgu.o
 0001:000f2c50       _ZN68_$LT$$u5b$u8$u5d$$u20$as$u20$scroll..pread..Pread$LT$Ctx$C$E$GT$$GT$10gread_with17h39f45644e6661a3fE 00000001400f3c50 f   libgoblin-8ee2c552e4c10df6:goblin-8ee2c552e4c10df6.goblin.f087800e97e1b550-cgu.00.rcgu.o
 0001:000f2c50       _ZN68_$LT$$u5b$u8$u5d$$u20$as$u20$scroll..pread..Pread$LT$Ctx$C$E$GT$$GT$10gread_with17h41d7ec700c50ee72E 00000001400f3c50 f   libgoblin-8ee2c552e4c10df6:goblin-8ee2c552e4c10df6.goblin.f087800e97e1b550-cgu.00.rcgu.o
 0001:000f2c50       _ZN68_$LT$$u5b$u8$u5d$$u20$as$u20$scroll..pread..Pread$LT$Ctx$C$E$GT$$GT$10gread_with17h769a9386fcc2d129E 00000001400f3c50 f   libgoblin-8ee2c552e4c10df6:goblin-8ee2c552e4c10df6.goblin.f087800e97e1b550-cgu.00.rcgu.o
 0001:000f2c50       _ZN68_$LT$$u5b$u8$u5d$$u20$as$u20$scroll..pread..Pread$LT$Ctx$C$E$GT$$GT$10gread_with17hef297edd5a8a6508E 00000001400f3c50 f   libgoblin-8ee2c552e4c10df6:goblin-8ee2c552e4c10df6.goblin.f087800e97e1b550-cgu.00.rcgu.o
 0001:000f2d70       _ZN68_$LT$$u5b$u8$u5d$$u20$as$u20$scroll..pread..Pread$LT$Ctx$C$E$GT$$GT$10gread_with17h20873d26b58575f8E 00000001400f3d70 f   libgoblin-8ee2c552e4c10df6:goblin-8ee2c552e4c10df6.goblin.f087800e97e1b550-cgu.00.rcgu.o
 0001:000f3010       _ZN68_$LT$$u5b$u8$u5d$$u20$as$u20$scroll..pread..Pread$LT$Ctx$C$E$GT$$GT$10gread_with17h20cee94e54750380E 00000001400f4010 f   libgoblin-8ee2c552e4c10df6:goblin-8ee2c552e4c10df6.goblin.f087800e97e1b550-cgu.00.rcgu.o
 0001:000f3220       _ZN68_$LT$$u5b$u8$u5d$$u20$as$u20$scroll..pread..Pread$LT$Ctx$C$E$GT$$GT$10gread_with17h25a18b8547f86071E 00000001400f4220 f   libgoblin-8ee2c552e4c10df6:goblin-8ee2c552e4c10df6.goblin.f087800e97e1b550-cgu.00.rcgu.o
 0001:000f37c0       _ZN68_$LT$$u5b$u8$u5d$$u20$as$u20$scroll..pread..Pread$LT$Ctx$C$E$GT$$GT$10gread_with17h289b82b4e565bc9cE 00000001400f47c0 f   libgoblin-8ee2c552e4c10df6:goblin-8ee2c552e4c10df6.goblin.f087800e97e1b550-cgu.00.rcgu.o
 0001:000f38a0       _ZN68_$LT$$u5b$u8$u5d$$u20$as$u20$scroll..pread..Pread$LT$Ctx$C$E$GT$$GT$10gread_with17h2c611ed33b9a1c0bE 00000001400f48a0 f   libgoblin-8ee2c552e4c10df6:goblin-8ee2c552e4c10df6.goblin.f087800e97e1b550-cgu.00.rcgu.o
 0001:000f3940       _ZN68_$LT$$u5b$u8$u5d$$u20$as$u20$scroll..pread..Pread$LT$Ctx$C$E$GT$$GT$10gread_with17h2e0e7e6ba6426e8bE 00000001400f4940 f   libgoblin-8ee2c552e4c10df6:goblin-8ee2c552e4c10df6.goblin.f087800e97e1b550-cgu.00.rcgu.o
 0001:000f3a70       _ZN68_$LT$$u5b$u8$u5d$$u20$as$u20$scroll..pread..Pread$LT$Ctx$C$E$GT$$GT$10gread_with17h2feea6c6a6d592aaE 00000001400f4a70 f   libgoblin-8ee2c552e4c10df6:goblin-8ee2c552e4c10df6.goblin.f087800e97e1b550-cgu.00.rcgu.o
 0001:000f3b50       _ZN68_$LT$$u5b$u8$u5d$$u20$as$u20$scroll..pread..Pread$LT$Ctx$C$E$GT$$GT$10gread_with17h392a60aa5394c8f5E 00000001400f4b50 f   libgoblin-8ee2c552e4c10df6:goblin-8ee2c552e4c10df6.goblin.f087800e97e1b550-cgu.00.rcgu.o
 0001:000f3ce0       _ZN68_$LT$$u5b$u8$u5d$$u20$as$u20$scroll..pread..Pread$LT$Ctx$C$E$GT$$GT$10gread_with17h39c71f3235ea1f16E 00000001400f4ce0 f   libgoblin-8ee2c552e4c10df6:goblin-8ee2c552e4c10df6.goblin.f087800e97e1b550-cgu.00.rcgu.o
 0001:000f3ce0       _ZN68_$LT$$u5b$u8$u5d$$u20$as$u20$scroll..pread..Pread$LT$Ctx$C$E$GT$$GT$10gread_with17hea62ee1f41dc18acE 00000001400f4ce0 f   libgoblin-8ee2c552e4c10df6:goblin-8ee2c552e4c10df6.goblin.f087800e97e1b550-cgu.00.rcgu.o
 0001:000f3ef0       _ZN68_$LT$$u5b$u8$u5d$$u20$as$u20$scroll..pread..Pread$LT$Ctx$C$E$GT$$GT$10gread_with17h39d7621c278b5709E 00000001400f4ef0 f   libgoblin-8ee2c552e4c10df6:goblin-8ee2c552e4c10df6.goblin.f087800e97e1b550-cgu.00.rcgu.o
 0001:000f4030       _ZN68_$LT$$u5b$u8$u5d$$u20$as$u20$scroll..pread..Pread$LT$Ctx$C$E$GT$$GT$10gread_with17h3dfa04cfc2466a27E 00000001400f5030 f   libgoblin-8ee2c552e4c10df6:goblin-8ee2c552e4c10df6.goblin.f087800e97e1b550-cgu.00.rcgu.o
 0001:000f4370       _ZN68_$LT$$u5b$u8$u5d$$u20$as$u20$scroll..pread..Pread$LT$Ctx$C$E$GT$$GT$10gread_with17h4b7013a6c8cb73d0E 00000001400f5370 f   libgoblin-8ee2c552e4c10df6:goblin-8ee2c552e4c10df6.goblin.f087800e97e1b550-cgu.00.rcgu.o
 0001:000f44f0       _ZN68_$LT$$u5b$u8$u5d$$u20$as$u20$scroll..pread..Pread$LT$Ctx$C$E$GT$$GT$10gread_with17h50a5b93f20112c6cE 00000001400f54f0 f   libgoblin-8ee2c552e4c10df6:goblin-8ee2c552e4c10df6.goblin.f087800e97e1b550-cgu.00.rcgu.o
 0001:000f4680       _ZN68_$LT$$u5b$u8$u5d$$u20$as$u20$scroll..pread..Pread$LT$Ctx$C$E$GT$$GT$10gread_with17h52b8ef73e2f5a1f2E 00000001400f5680 f   libgoblin-8ee2c552e4c10df6:goblin-8ee2c552e4c10df6.goblin.f087800e97e1b550-cgu.00.rcgu.o
 0001:000f4a00       _ZN68_$LT$$u5b$u8$u5d$$u20$as$u20$scroll..pread..Pread$LT$Ctx$C$E$GT$$GT$10gread_with17h56d7165a7016c8e3E 00000001400f5a00 f   libgoblin-8ee2c552e4c10df6:goblin-8ee2c552e4c10df6.goblin.f087800e97e1b550-cgu.00.rcgu.o
 0001:000f4a00       _ZN68_$LT$$u5b$u8$u5d$$u20$as$u20$scroll..pread..Pread$LT$Ctx$C$E$GT$$GT$10gread_with17h766da5dbbc43fdcbE 00000001400f5a00 f   libgoblin-8ee2c552e4c10df6:goblin-8ee2c552e4c10df6.goblin.f087800e97e1b550-cgu.00.rcgu.o
 0001:000f4b10       _ZN68_$LT$$u5b$u8$u5d$$u20$as$u20$scroll..pread..Pread$LT$Ctx$C$E$GT$$GT$10gread_with17h5dc21250d0ffe056E 00000001400f5b10 f   libgoblin-8ee2c552e4c10df6:goblin-8ee2c552e4c10df6.goblin.f087800e97e1b550-cgu.00.rcgu.o
 0001:000f5370       _ZN68_$LT$$u5b$u8$u5d$$u20$as$u20$scroll..pread..Pread$LT$Ctx$C$E$GT$$GT$10gread_with17h8cb0fc8570ac20a6E 00000001400f6370 f   libgoblin-8ee2c552e4c10df6:goblin-8ee2c552e4c10df6.goblin.f087800e97e1b550-cgu.00.rcgu.o
 0001:000f5540       _ZN68_$LT$$u5b$u8$u5d$$u20$as$u20$scroll..pread..Pread$LT$Ctx$C$E$GT$$GT$10gread_with17ha00ffba37ed48db7E 00000001400f6540 f   libgoblin-8ee2c552e4c10df6:goblin-8ee2c552e4c10df6.goblin.f087800e97e1b550-cgu.00.rcgu.o
 0001:000f5540       _ZN68_$LT$$u5b$u8$u5d$$u20$as$u20$scroll..pread..Pread$LT$Ctx$C$E$GT$$GT$10gread_with17ha65e8b00af93f6f0E 00000001400f6540 f   libgoblin-8ee2c552e4c10df6:goblin-8ee2c552e4c10df6.goblin.f087800e97e1b550-cgu.00.rcgu.o
 0001:000f57d0       _ZN68_$LT$$u5b$u8$u5d$$u20$as$u20$scroll..pread..Pread$LT$Ctx$C$E$GT$$GT$10gread_with17hbdd0927e09c1438fE 00000001400f67d0 f   libgoblin-8ee2c552e4c10df6:goblin-8ee2c552e4c10df6.goblin.f087800e97e1b550-cgu.00.rcgu.o
 0001:000f5cb0       _ZN68_$LT$$u5b$u8$u5d$$u20$as$u20$scroll..pread..Pread$LT$Ctx$C$E$GT$$GT$10gread_with17hc1be28c9e87ded62E 00000001400f6cb0 f   libgoblin-8ee2c552e4c10df6:goblin-8ee2c552e4c10df6.goblin.f087800e97e1b550-cgu.00.rcgu.o
 0001:000f5fc0       _ZN68_$LT$$u5b$u8$u5d$$u20$as$u20$scroll..pread..Pread$LT$Ctx$C$E$GT$$GT$10gread_with17hc69cf6dcf776d6d7E 00000001400f6fc0 f   libgoblin-8ee2c552e4c10df6:goblin-8ee2c552e4c10df6.goblin.f087800e97e1b550-cgu.00.rcgu.o
 0001:000f61f0       _ZN68_$LT$$u5b$u8$u5d$$u20$as$u20$scroll..pread..Pread$LT$Ctx$C$E$GT$$GT$10gread_with17hca891de2cc17f1b7E 00000001400f71f0 f   libgoblin-8ee2c552e4c10df6:goblin-8ee2c552e4c10df6.goblin.f087800e97e1b550-cgu.00.rcgu.o
 0001:000f6410       _ZN68_$LT$$u5b$u8$u5d$$u20$as$u20$scroll..pread..Pread$LT$Ctx$C$E$GT$$GT$10gread_with17hd038b460c4a4802cE 00000001400f7410 f   libgoblin-8ee2c552e4c10df6:goblin-8ee2c552e4c10df6.goblin.f087800e97e1b550-cgu.00.rcgu.o
 0001:000f66a0       _ZN68_$LT$$u5b$u8$u5d$$u20$as$u20$scroll..pread..Pread$LT$Ctx$C$E$GT$$GT$10gread_with17hdffc4d7a1e66c362E 00000001400f76a0 f   libgoblin-8ee2c552e4c10df6:goblin-8ee2c552e4c10df6.goblin.f087800e97e1b550-cgu.00.rcgu.o
 0001:000f6870       _ZN68_$LT$$u5b$u8$u5d$$u20$as$u20$scroll..pread..Pread$LT$Ctx$C$E$GT$$GT$10gread_with17he6987e5a4fcffb30E 00000001400f7870 f   libgoblin-8ee2c552e4c10df6:goblin-8ee2c552e4c10df6.goblin.f087800e97e1b550-cgu.00.rcgu.o
 0001:000f6b60       _ZN68_$LT$$u5b$u8$u5d$$u20$as$u20$scroll..pread..Pread$LT$Ctx$C$E$GT$$GT$10gread_with17hf3e5d8800290577cE 00000001400f7b60 f   libgoblin-8ee2c552e4c10df6:goblin-8ee2c552e4c10df6.goblin.f087800e97e1b550-cgu.00.rcgu.o
 0001:000f6eb0       _ZN42_$LT$$RF$T$u20$as$u20$core..fmt..Debug$GT$3fmt17h035eda1001651182E 00000001400f7eb0 f   libgoblin-8ee2c552e4c10df6:goblin-8ee2c552e4c10df6.goblin.f087800e97e1b550-cgu.14.rcgu.o
 0001:000f6ec0       _ZN42_$LT$$RF$T$u20$as$u20$core..fmt..Debug$GT$3fmt17h508c904e27f69037E 00000001400f7ec0 f   libgoblin-8ee2c552e4c10df6:goblin-8ee2c552e4c10df6.goblin.f087800e97e1b550-cgu.14.rcgu.o
 0001:000f6f20       _ZN42_$LT$$RF$T$u20$as$u20$core..fmt..Debug$GT$3fmt17h571ce307e379aa2dE 00000001400f7f20 f   libgoblin-8ee2c552e4c10df6:goblin-8ee2c552e4c10df6.goblin.f087800e97e1b550-cgu.14.rcgu.o
 0001:000f6fb0       _ZN42_$LT$$RF$T$u20$as$u20$core..fmt..Debug$GT$3fmt17ha4d8577b2c6a79e8E 00000001400f7fb0 f   libgoblin-8ee2c552e4c10df6:goblin-8ee2c552e4c10df6.goblin.f087800e97e1b550-cgu.14.rcgu.o
 0001:000f7020       _ZN42_$LT$$RF$T$u20$as$u20$core..fmt..Debug$GT$3fmt17ha831456f7142588fE 00000001400f8020 f   libgoblin-8ee2c552e4c10df6:goblin-8ee2c552e4c10df6.goblin.f087800e97e1b550-cgu.14.rcgu.o
 0001:000f7110       _ZN42_$LT$$RF$T$u20$as$u20$core..fmt..Debug$GT$3fmt17had407e7ff2e7f32aE 00000001400f8110 f   libgoblin-8ee2c552e4c10df6:goblin-8ee2c552e4c10df6.goblin.f087800e97e1b550-cgu.14.rcgu.o
 0001:000f7190       _ZN42_$LT$$RF$T$u20$as$u20$core..fmt..Debug$GT$3fmt17hb275c9a2be99bf82E 00000001400f8190 f   libgoblin-8ee2c552e4c10df6:goblin-8ee2c552e4c10df6.goblin.f087800e97e1b550-cgu.14.rcgu.o
 0001:000f7270       _ZN42_$LT$$RF$T$u20$as$u20$core..fmt..Debug$GT$3fmt17hc50b097621c1866cE 00000001400f8270 f   libgoblin-8ee2c552e4c10df6:goblin-8ee2c552e4c10df6.goblin.f087800e97e1b550-cgu.14.rcgu.o
 0001:000f7330       _ZN42_$LT$$RF$T$u20$as$u20$core..fmt..Debug$GT$3fmt17hc99bdf68f19313dfE 00000001400f8330 f   libgoblin-8ee2c552e4c10df6:goblin-8ee2c552e4c10df6.goblin.f087800e97e1b550-cgu.14.rcgu.o
 0001:000f7340       _ZN42_$LT$$RF$T$u20$as$u20$core..fmt..Debug$GT$3fmt17hcc72852ff4cc17d8E 00000001400f8340 f   libgoblin-8ee2c552e4c10df6:goblin-8ee2c552e4c10df6.goblin.f087800e97e1b550-cgu.14.rcgu.o
 0001:000f7420       _ZN42_$LT$$RF$T$u20$as$u20$core..fmt..Debug$GT$3fmt17hde7fd2940aa0feacE 00000001400f8420 f   libgoblin-8ee2c552e4c10df6:goblin-8ee2c552e4c10df6.goblin.f087800e97e1b550-cgu.14.rcgu.o
 0001:000f74f0       _ZN42_$LT$$RF$T$u20$as$u20$core..fmt..Debug$GT$3fmt17hfdf9e10743aaaae5E 00000001400f84f0 f   libgoblin-8ee2c552e4c10df6:goblin-8ee2c552e4c10df6.goblin.f087800e97e1b550-cgu.14.rcgu.o
 0001:000f7570       _ZN44_$LT$$RF$T$u20$as$u20$core..fmt..Display$GT$3fmt17h81329842a4f935d9E 00000001400f8570 f   libgoblin-8ee2c552e4c10df6:goblin-8ee2c552e4c10df6.goblin.f087800e97e1b550-cgu.14.rcgu.o
 0001:000f7580       _ZN44_$LT$$RF$T$u20$as$u20$core..fmt..Display$GT$3fmt17h8c347b5a3b8ecdc7E 00000001400f8580 f   libgoblin-8ee2c552e4c10df6:goblin-8ee2c552e4c10df6.goblin.f087800e97e1b550-cgu.14.rcgu.o
 0001:000f7590       _ZN44_$LT$$RF$T$u20$as$u20$core..fmt..Display$GT$3fmt17hf751f58da3c5271dE 00000001400f8590 f   libgoblin-8ee2c552e4c10df6:goblin-8ee2c552e4c10df6.goblin.f087800e97e1b550-cgu.14.rcgu.o
 0001:000f75b0       _ZN45_$LT$$RF$T$u20$as$u20$core..fmt..LowerHex$GT$3fmt17h6864babc432cb0f5E 00000001400f85b0 f   libgoblin-8ee2c552e4c10df6:goblin-8ee2c552e4c10df6.goblin.f087800e97e1b550-cgu.14.rcgu.o
 0001:000f7770       _ZN6goblin2pe16data_directories15DataDirectories5parse17h53214a5f5c0897c7E 00000001400f8770 f   libgoblin-8ee2c552e4c10df6:goblin-8ee2c552e4c10df6.goblin.f087800e97e1b550-cgu.14.rcgu.o
 0001:000f8870       _ZN6goblin2pe6import10ImportData15parse_with_opts17h5ac62cc1b7000181E 00000001400f9870 f   libgoblin-8ee2c552e4c10df6:goblin-8ee2c552e4c10df6.goblin.f087800e97e1b550-cgu.14.rcgu.o
 0001:000f9bc0       _ZN6goblin2pe6import10ImportData15parse_with_opts17h9149173922ac4434E 00000001400fabc0 f   libgoblin-8ee2c552e4c10df6:goblin-8ee2c552e4c10df6.goblin.f087800e97e1b550-cgu.14.rcgu.o
 0001:000faf10       _ZN6goblin2pe6import6Import5parse17h5750d08524246f53E 00000001400fbf10 f   libgoblin-8ee2c552e4c10df6:goblin-8ee2c552e4c10df6.goblin.f087800e97e1b550-cgu.14.rcgu.o
 0001:000fb200       _ZN6goblin2pe6import6Import5parse17hf915263077be567dE 00000001400fc200 f   libgoblin-8ee2c552e4c10df6:goblin-8ee2c552e4c10df6.goblin.f087800e97e1b550-cgu.14.rcgu.o
 0001:000fb4f0       _ZN117_$LT$goblin..pe..optional_header..OptionalHeader$u20$as$u20$scroll..ctx..TryFromCtx$LT$scroll..endian..Endian$GT$$GT$12try_from_ctx17h953170ba9eb00751E 00000001400fc4f0 f   libgoblin-8ee2c552e4c10df6:goblin-8ee2c552e4c10df6.goblin.f087800e97e1b550-cgu.14.rcgu.o
 0001:000fb990       _ZN77_$LT$goblin..pe..import..ImportDirectoryEntry$u20$as$u20$core..fmt..Debug$GT$3fmt17h1585a0bfe73242b8E 00000001400fc990 f   libgoblin-8ee2c552e4c10df6:goblin-8ee2c552e4c10df6.goblin.f087800e97e1b550-cgu.14.rcgu.o
 0001:000fbaa0       _ZN86_$LT$goblin..pe..import..SyntheticImportDirectoryEntry$u20$as$u20$core..fmt..Debug$GT$3fmt17hde0da9bb63848145E 00000001400fcaa0 f   libgoblin-8ee2c552e4c10df6:goblin-8ee2c552e4c10df6.goblin.f087800e97e1b550-cgu.14.rcgu.o
 0001:000fbb80       _ZN67_$LT$goblin..pe..import..ImportData$u20$as$u20$core..fmt..Debug$GT$3fmt17hee141c3e08359c62E 00000001400fcb80 f   libgoblin-8ee2c552e4c10df6:goblin-8ee2c552e4c10df6.goblin.f087800e97e1b550-cgu.14.rcgu.o
 0001:000fbbd0       _ZN80_$LT$goblin..pe..optional_header..StandardFields$u20$as$u20$core..fmt..Debug$GT$3fmt17h4e3e850699fc531aE 00000001400fcbd0 f   libgoblin-8ee2c552e4c10df6:goblin-8ee2c552e4c10df6.goblin.f087800e97e1b550-cgu.14.rcgu.o
 0001:000fbce0       _ZN81_$LT$goblin..pe..optional_header..WindowsFields64$u20$as$u20$core..fmt..Debug$GT$3fmt17hd25e9c5cbf48f375E 00000001400fcce0 f   libgoblin-8ee2c552e4c10df6:goblin-8ee2c552e4c10df6.goblin.f087800e97e1b550-cgu.14.rcgu.o
 0001:000fbf20       _ZN6goblin4mach5MachO5parse17h835ceef5b0a1199eE 00000001400fcf20 f   libgoblin-8ee2c552e4c10df6:goblin-8ee2c552e4c10df6.goblin.f087800e97e1b550-cgu.06.rcgu.o
 0001:000fd650       _ZN6goblin4mach10peek_bytes17hcfc4c3407a9efcb3E 00000001400fe650 f   libgoblin-8ee2c552e4c10df6:goblin-8ee2c552e4c10df6.goblin.f087800e97e1b550-cgu.06.rcgu.o
 0001:000fd800       _ZN6goblin4mach4Mach5parse17h94b1f613fbf70fc7E 00000001400fe800 f   libgoblin-8ee2c552e4c10df6:goblin-8ee2c552e4c10df6.goblin.f087800e97e1b550-cgu.06.rcgu.o
 0001:000fd980       _ZN42_$LT$$RF$T$u20$as$u20$core..fmt..Debug$GT$3fmt17h1077de51c340ffb8E 00000001400fe980 f   libgoblin-8ee2c552e4c10df6:goblin-8ee2c552e4c10df6.goblin.f087800e97e1b550-cgu.07.rcgu.o
 0001:000fdb40       _ZN42_$LT$$RF$T$u20$as$u20$core..fmt..Debug$GT$3fmt17h1ab454abe5c073f0E 00000001400feb40 f   libgoblin-8ee2c552e4c10df6:goblin-8ee2c552e4c10df6.goblin.f087800e97e1b550-cgu.07.rcgu.o
 0001:000fdba0       _ZN42_$LT$$RF$T$u20$as$u20$core..fmt..Debug$GT$3fmt17h76945c773a22b4beE 00000001400feba0 f   libgoblin-8ee2c552e4c10df6:goblin-8ee2c552e4c10df6.goblin.f087800e97e1b550-cgu.07.rcgu.o
 0001:000fdd00       _ZN42_$LT$$RF$T$u20$as$u20$core..fmt..Debug$GT$3fmt17hec2b9169edda1ceaE 00000001400fed00 f   libgoblin-8ee2c552e4c10df6:goblin-8ee2c552e4c10df6.goblin.f087800e97e1b550-cgu.07.rcgu.o
 0001:000fded0       _ZN66_$LT$core..option..Option$LT$T$GT$$u20$as$u20$core..fmt..Debug$GT$3fmt17h3e6f5adc2d924be7E 00000001400feed0 f   libgoblin-8ee2c552e4c10df6:goblin-8ee2c552e4c10df6.goblin.f087800e97e1b550-cgu.07.rcgu.o
 0001:000fdf30       _ZN66_$LT$core..option..Option$LT$T$GT$$u20$as$u20$core..fmt..Debug$GT$3fmt17h8c64c1113783342fE 00000001400fef30 f   libgoblin-8ee2c552e4c10df6:goblin-8ee2c552e4c10df6.goblin.f087800e97e1b550-cgu.07.rcgu.o
 0001:000fdf90       _ZN66_$LT$core..option..Option$LT$T$GT$$u20$as$u20$core..fmt..Debug$GT$3fmt17h8db15cc12ac3c0c5E 00000001400fef90 f   libgoblin-8ee2c552e4c10df6:goblin-8ee2c552e4c10df6.goblin.f087800e97e1b550-cgu.07.rcgu.o
 0001:000fdff0       _ZN66_$LT$core..option..Option$LT$T$GT$$u20$as$u20$core..fmt..Debug$GT$3fmt17hae105f6216a6489fE 00000001400feff0 f   libgoblin-8ee2c552e4c10df6:goblin-8ee2c552e4c10df6.goblin.f087800e97e1b550-cgu.07.rcgu.o
 0001:000fe050       _ZN66_$LT$core..option..Option$LT$T$GT$$u20$as$u20$core..fmt..Debug$GT$3fmt17hb0dd622bd852b875E 00000001400ff050 f   libgoblin-8ee2c552e4c10df6:goblin-8ee2c552e4c10df6.goblin.f087800e97e1b550-cgu.07.rcgu.o
 0001:000fe0b0       _ZN65_$LT$goblin..mach..header..Header$u20$as$u20$core..fmt..Debug$GT$3fmt17h2584e106ccf3d795E 00000001400ff0b0 f   libgoblin-8ee2c552e4c10df6:goblin-8ee2c552e4c10df6.goblin.f087800e97e1b550-cgu.07.rcgu.o
 0001:000fe390       _ZN102_$LT$goblin..mach..header..Header$u20$as$u20$scroll..ctx..TryFromCtx$LT$goblin..container..Ctx$GT$$GT$12try_from_ctx17h39cb44f1f1e6bf88E 00000001400ff390 f   libgoblin-8ee2c552e4c10df6:goblin-8ee2c552e4c10df6.goblin.f087800e97e1b550-cgu.07.rcgu.o
 0001:000fe4f0       _ZN6goblin7archive12MemberHeader4size17h6b64d037ca82a8daE 00000001400ff4f0 f   libgoblin-8ee2c552e4c10df6:goblin-8ee2c552e4c10df6.goblin.f087800e97e1b550-cgu.07.rcgu.o
 0001:000fe650       _ZN6goblin7archive6Member5parse17hf57e219eb35d242eE 00000001400ff650 f   libgoblin-8ee2c552e4c10df6:goblin-8ee2c552e4c10df6.goblin.f087800e97e1b550-cgu.07.rcgu.o
 0001:000fe9e0       _ZN6goblin7archive5Index16parse_sysv_index17h071e23c86b35505eE 00000001400ff9e0 f   libgoblin-8ee2c552e4c10df6:goblin-8ee2c552e4c10df6.goblin.f087800e97e1b550-cgu.07.rcgu.o
 0001:000fedc0       _ZN6goblin7archive5Index16parse_bsd_symdef17hc92d79ed0a603ffeE 00000001400ffdc0 f   libgoblin-8ee2c552e4c10df6:goblin-8ee2c552e4c10df6.goblin.f087800e97e1b550-cgu.07.rcgu.o
 0001:000ff390       _ZN6goblin7archive5Index27parse_windows_linker_member17h33609264e600be71E 0000000140100390 f   libgoblin-8ee2c552e4c10df6:goblin-8ee2c552e4c10df6.goblin.f087800e97e1b550-cgu.07.rcgu.o
 0001:000ff950       _ZN6goblin7archive7Archive5parse17hcfef26c675b10689E 0000000140100950 f   libgoblin-8ee2c552e4c10df6:goblin-8ee2c552e4c10df6.goblin.f087800e97e1b550-cgu.07.rcgu.o
 0001:00100a40       _ZN111_$LT$goblin..elf..header..header64..Header$u20$as$u20$scroll..ctx..TryFromCtx$LT$scroll..endian..Endian$GT$$GT$12try_from_ctx17h69ec51524baed70aE 0000000140101a40 f   libgoblin-8ee2c552e4c10df6:goblin-8ee2c552e4c10df6.goblin.f087800e97e1b550-cgu.07.rcgu.o
 0001:001011b0       _ZN42_$LT$$RF$T$u20$as$u20$core..fmt..Debug$GT$3fmt17h4e49ff086e653029E 00000001401021b0 f   libgoblin-8ee2c552e4c10df6:goblin-8ee2c552e4c10df6.goblin.f087800e97e1b550-cgu.12.rcgu.o
 0001:001012a0       _ZN42_$LT$$RF$T$u20$as$u20$core..fmt..Debug$GT$3fmt17h948caebfa019c39eE 00000001401022a0 f   libgoblin-8ee2c552e4c10df6:goblin-8ee2c552e4c10df6.goblin.f087800e97e1b550-cgu.12.rcgu.o
 0001:00101310       _ZN42_$LT$$RF$T$u20$as$u20$core..fmt..Debug$GT$3fmt17hbd2d586962b5d7c9E 0000000140102310 f   libgoblin-8ee2c552e4c10df6:goblin-8ee2c552e4c10df6.goblin.f087800e97e1b550-cgu.12.rcgu.o
 0001:00101710       _ZN6goblin2pe6export10ExportData15parse_with_opts17h1815a0a3207e771dE 0000000140102710 f   libgoblin-8ee2c552e4c10df6:goblin-8ee2c552e4c10df6.goblin.f087800e97e1b550-cgu.12.rcgu.o
 0001:00102720       _ZN6goblin2pe6export6Export15parse_with_opts17h974a7ab3adb055d1E 0000000140103720 f   libgoblin-8ee2c552e4c10df6:goblin-8ee2c552e4c10df6.goblin.f087800e97e1b550-cgu.12.rcgu.o
 0001:00102950       _ZN6goblin2pe2PE15parse_with_opts17h73503453d291dfa3E 0000000140103950 f   libgoblin-8ee2c552e4c10df6:goblin-8ee2c552e4c10df6.goblin.f087800e97e1b550-cgu.12.rcgu.o
 0001:00104240       _ZN77_$LT$goblin..pe..export..ExportDirectoryTable$u20$as$u20$core..fmt..Debug$GT$3fmt17h4c41a1b99b8e2036E 0000000140105240 f   libgoblin-8ee2c552e4c10df6:goblin-8ee2c552e4c10df6.goblin.f087800e97e1b550-cgu.12.rcgu.o
 0001:00104380       _ZN67_$LT$goblin..pe..export..ExportData$u20$as$u20$core..fmt..Debug$GT$3fmt17hf279e1c2c477bd7fE 0000000140105380 f   libgoblin-8ee2c552e4c10df6:goblin-8ee2c552e4c10df6.goblin.f087800e97e1b550-cgu.12.rcgu.o
 0001:001045a0       _ZN5alloc11collections5btree3map25BTreeMap$LT$K$C$V$C$A$GT$3get17h2fb8777e96bfcd56E 00000001401055a0 f   libgoblin-8ee2c552e4c10df6:goblin-8ee2c552e4c10df6.goblin.f087800e97e1b550-cgu.03.rcgu.o
 0001:00104650       _ZN5alloc11collections5btree3map25BTreeMap$LT$K$C$V$C$A$GT$6insert17h2c37741222a48765E 0000000140105650 f   libgoblin-8ee2c552e4c10df6:goblin-8ee2c552e4c10df6.goblin.f087800e97e1b550-cgu.03.rcgu.o
 0001:001047b0       _ZN5alloc11collections5btree3map25BTreeMap$LT$K$C$V$C$A$GT$6insert17ha4f6718b96daa92eE 00000001401057b0 f   libgoblin-8ee2c552e4c10df6:goblin-8ee2c552e4c10df6.goblin.f087800e97e1b550-cgu.03.rcgu.o
 0001:001049b0       _ZN5alloc11collections5btree3map25IntoIter$LT$K$C$V$C$A$GT$10dying_next17hba08acc2e3d8de81E.llvm.15661059199776731258 00000001401059b0 f   libgoblin-8ee2c552e4c10df6:goblin-8ee2c552e4c10df6.goblin.f087800e97e1b550-cgu.03.rcgu.o
 0001:00104d90       _ZN5alloc11collections5btree3map25IntoIter$LT$K$C$V$C$A$GT$10dying_next17hf104ac17f8c36a6bE.llvm.15661059199776731258 0000000140105d90 f   libgoblin-8ee2c552e4c10df6:goblin-8ee2c552e4c10df6.goblin.f087800e97e1b550-cgu.03.rcgu.o
 0001:00105230       _ZN99_$LT$alloc..collections..btree..map..BTreeMap$LT$K$C$V$C$A$GT$$u20$as$u20$core..ops..drop..Drop$GT$4drop17hb22b78b5b04bd198E 0000000140106230 f   libgoblin-8ee2c552e4c10df6:goblin-8ee2c552e4c10df6.goblin.f087800e97e1b550-cgu.03.rcgu.o
 0001:001052c0       _ZN99_$LT$alloc..collections..btree..map..BTreeMap$LT$K$C$V$C$A$GT$$u20$as$u20$core..ops..drop..Drop$GT$4drop17hdfec91824768acbeE 00000001401062c0 f   libgoblin-8ee2c552e4c10df6:goblin-8ee2c552e4c10df6.goblin.f087800e97e1b550-cgu.03.rcgu.o
 0001:00105350       _ZN6goblin4mach7segment7Segment7from_3217hf84b470a5b0188aaE 0000000140106350 f   libgoblin-8ee2c552e4c10df6:goblin-8ee2c552e4c10df6.goblin.f087800e97e1b550-cgu.03.rcgu.o
 0001:00105410       _ZN6goblin4mach7segment7Segment7from_6417h45e3ca1f57dd3cabE 0000000140106410 f   libgoblin-8ee2c552e4c10df6:goblin-8ee2c552e4c10df6.goblin.f087800e97e1b550-cgu.03.rcgu.o
 0001:001054c0       _ZN6goblin2pe5debug9DebugData15parse_with_opts17h607abd3d35cadc38E 00000001401064c0 f   libgoblin-8ee2c552e4c10df6:goblin-8ee2c552e4c10df6.goblin.f087800e97e1b550-cgu.03.rcgu.o
 0001:00105740       _ZN6goblin2pe5debug22CodeviewPDB70DebugInfo15parse_with_opts17h67ea3b3585a81d75E 0000000140106740 f   libgoblin-8ee2c552e4c10df6:goblin-8ee2c552e4c10df6.goblin.f087800e97e1b550-cgu.03.rcgu.o
 0001:00105980       _ZN6goblin3elf14program_header13ProgramHeader5parse17h121573d1571bc976E 0000000140106980 f   libgoblin-8ee2c552e4c10df6:goblin-8ee2c552e4c10df6.goblin.f087800e97e1b550-cgu.03.rcgu.o
 0001:00105c50       _ZN116_$LT$goblin..elf..program_header..ProgramHeader$u20$as$u20$scroll..ctx..TryFromCtx$LT$goblin..container..Ctx$GT$$GT$12try_from_ctx17hfe8334cbf69873c9E 0000000140106c50 f   libgoblin-8ee2c552e4c10df6:goblin-8ee2c552e4c10df6.goblin.f087800e97e1b550-cgu.03.rcgu.o
 0001:00105d60       _ZN4core5slice4sort10merge_sort17hf22081faad2d1cc3E 0000000140106d60 f   libgoblin-8ee2c552e4c10df6:goblin-8ee2c552e4c10df6.goblin.f087800e97e1b550-cgu.02.rcgu.o
 0001:00106870       _ZN42_$LT$$RF$T$u20$as$u20$core..fmt..Debug$GT$3fmt17h1a527f0af911ed52E 0000000140107870 f   libgoblin-8ee2c552e4c10df6:goblin-8ee2c552e4c10df6.goblin.f087800e97e1b550-cgu.15.rcgu.o
 0001:001068f0       _ZN42_$LT$$RF$T$u20$as$u20$core..fmt..Debug$GT$3fmt17h1c9732762315d460E 00000001401078f0 f   libgoblin-8ee2c552e4c10df6:goblin-8ee2c552e4c10df6.goblin.f087800e97e1b550-cgu.15.rcgu.o
 0001:00106970       _ZN42_$LT$$RF$T$u20$as$u20$core..fmt..Debug$GT$3fmt17hf51893980760178cE 0000000140107970 f   libgoblin-8ee2c552e4c10df6:goblin-8ee2c552e4c10df6.goblin.f087800e97e1b550-cgu.15.rcgu.o
 0001:001069f0       _ZN42_$LT$$RF$T$u20$as$u20$core..fmt..Debug$GT$3fmt17hffb38e29315c7b4aE 00000001401079f0 f   libgoblin-8ee2c552e4c10df6:goblin-8ee2c552e4c10df6.goblin.f087800e97e1b550-cgu.15.rcgu.o
 0001:00106a70       _ZN5alloc3vec16Vec$LT$T$C$A$GT$8dedup_by17hdf616b06838e7c6cE 0000000140107a70 f   libgoblin-8ee2c552e4c10df6:goblin-8ee2c552e4c10df6.goblin.f087800e97e1b550-cgu.15.rcgu.o
 0001:00106b00       _ZN64_$LT$alloc..borrow..Cow$LT$B$GT$$u20$as$u20$core..fmt..Debug$GT$3fmt17h58b84bfe4099deb5E 0000000140107b00 f   libgoblin-8ee2c552e4c10df6:goblin-8ee2c552e4c10df6.goblin.f087800e97e1b550-cgu.15.rcgu.o
 0001:00106b20       _ZN65_$LT$alloc..vec..Vec$LT$T$C$A$GT$$u20$as$u20$core..fmt..Debug$GT$3fmt17h41facd4474455d28E 0000000140107b20 f   libgoblin-8ee2c552e4c10df6:goblin-8ee2c552e4c10df6.goblin.f087800e97e1b550-cgu.15.rcgu.o
 0001:00106ba0       _ZN65_$LT$alloc..vec..Vec$LT$T$C$A$GT$$u20$as$u20$core..fmt..Debug$GT$3fmt17h81fc41515c9bbc07E 0000000140107ba0 f   libgoblin-8ee2c552e4c10df6:goblin-8ee2c552e4c10df6.goblin.f087800e97e1b550-cgu.15.rcgu.o
 0001:00106c20       _ZN65_$LT$alloc..vec..Vec$LT$T$C$A$GT$$u20$as$u20$core..fmt..Debug$GT$3fmt17hb9767ca4643e6709E 0000000140107c20 f   libgoblin-8ee2c552e4c10df6:goblin-8ee2c552e4c10df6.goblin.f087800e97e1b550-cgu.15.rcgu.o
 0001:00106ca0       _ZN65_$LT$alloc..vec..Vec$LT$T$C$A$GT$$u20$as$u20$core..fmt..Debug$GT$3fmt17hdc72bd899b139e4dE 0000000140107ca0 f   libgoblin-8ee2c552e4c10df6:goblin-8ee2c552e4c10df6.goblin.f087800e97e1b550-cgu.15.rcgu.o
 0001:00106d20       _ZN65_$LT$alloc..vec..Vec$LT$T$C$A$GT$$u20$as$u20$core..fmt..Debug$GT$3fmt17he31ca75803a2dd9fE 0000000140107d20 f   libgoblin-8ee2c552e4c10df6:goblin-8ee2c552e4c10df6.goblin.f087800e97e1b550-cgu.15.rcgu.o
 0001:00106da0       _ZN98_$LT$alloc..vec..Vec$LT$T$GT$$u20$as$u20$alloc..vec..spec_from_iter..SpecFromIter$LT$T$C$I$GT$$GT$9from_iter17hadd910c29fcd88f4E 0000000140107da0 f   libgoblin-8ee2c552e4c10df6:goblin-8ee2c552e4c10df6.goblin.f087800e97e1b550-cgu.15.rcgu.o
 0001:00106e90       _ZN42_$LT$$RF$T$u20$as$u20$core..fmt..Debug$GT$3fmt17hdb9849fef31b08a1E 0000000140107e90 f   libgoblin-8ee2c552e4c10df6:goblin-8ee2c552e4c10df6.goblin.f087800e97e1b550-cgu.05.rcgu.o
 0001:00106fb0       _ZN6goblin2pe9exception13ExceptionData15parse_with_opts17h54d93fae42f437f6E 0000000140107fb0 f   libgoblin-8ee2c552e4c10df6:goblin-8ee2c552e4c10df6.goblin.f087800e97e1b550-cgu.05.rcgu.o
 0001:00107140       _ZN73_$LT$goblin..pe..exception..ExceptionData$u20$as$u20$core..fmt..Debug$GT$3fmt17h740e8d0f9fb9dfb5E 0000000140108140 f   libgoblin-8ee2c552e4c10df6:goblin-8ee2c552e4c10df6.goblin.f087800e97e1b550-cgu.05.rcgu.o
 0001:00107350       _ZN6goblin2pe6header9DosHeader5parse17he7b1d98433366933E 0000000140108350 f   libgoblin-8ee2c552e4c10df6:goblin-8ee2c552e4c10df6.goblin.f087800e97e1b550-cgu.05.rcgu.o
 0001:00107850       _ZN6goblin2pe6header10CoffHeader8sections17h2c2a621b80b053fdE 0000000140108850 f   libgoblin-8ee2c552e4c10df6:goblin-8ee2c552e4c10df6.goblin.f087800e97e1b550-cgu.05.rcgu.o
 0001:00107d10       _ZN6goblin2pe6header6Header5parse17h275f58b61e73940fE 0000000140108d10 f   libgoblin-8ee2c552e4c10df6:goblin-8ee2c552e4c10df6.goblin.f087800e97e1b550-cgu.05.rcgu.o
 0001:00108100       _ZN6goblin2pe5utils11find_offset17h2b53e7c2d19ba59eE 0000000140109100 f   libgoblin-8ee2c552e4c10df6:goblin-8ee2c552e4c10df6.goblin.f087800e97e1b550-cgu.05.rcgu.o
 0001:00108840       _ZN6goblin2pe5utils8try_name17hdfbf89ea53e892f2E 0000000140109840 f   libgoblin-8ee2c552e4c10df6:goblin-8ee2c552e4c10df6.goblin.f087800e97e1b550-cgu.05.rcgu.o
 0001:00108a80       _ZN65_$LT$goblin..container..Container$u20$as$u20$core..fmt..Debug$GT$3fmt17h29687f048896bd05E 0000000140109a80 f   libgoblin-8ee2c552e4c10df6:goblin-8ee2c552e4c10df6.goblin.f087800e97e1b550-cgu.05.rcgu.o
 0001:00108ab0       _ZN59_$LT$goblin..container..Ctx$u20$as$u20$core..fmt..Debug$GT$3fmt17h55cf0333fc016214E 0000000140109ab0 f   libgoblin-8ee2c552e4c10df6:goblin-8ee2c552e4c10df6.goblin.f087800e97e1b550-cgu.05.rcgu.o
 0001:00108b30       _ZN6goblin3elf7dynamic7Dynamic5parse17h9e0bfb736ce37e8fE 0000000140109b30 f   libgoblin-8ee2c552e4c10df6:goblin-8ee2c552e4c10df6.goblin.f087800e97e1b550-cgu.05.rcgu.o
 0001:00109140       _ZN6goblin3elf7dynamic7Dynamic13get_libraries17ha7cdf83c14e87bc2E 000000014010a140 f   libgoblin-8ee2c552e4c10df6:goblin-8ee2c552e4c10df6.goblin.f087800e97e1b550-cgu.05.rcgu.o
 0001:001099e0       _ZN66_$LT$goblin..pe..header..DosHeader$u20$as$u20$core..fmt..Debug$GT$3fmt17h6837ee8112e977c1E 000000014010a9e0 f   libgoblin-8ee2c552e4c10df6:goblin-8ee2c552e4c10df6.goblin.f087800e97e1b550-cgu.05.rcgu.o
 0001:00109a60       _ZN67_$LT$goblin..pe..header..CoffHeader$u20$as$u20$core..fmt..Debug$GT$3fmt17h509d684e310f951dE 000000014010aa60 f   libgoblin-8ee2c552e4c10df6:goblin-8ee2c552e4c10df6.goblin.f087800e97e1b550-cgu.05.rcgu.o
 0001:00109b40       _ZN63_$LT$goblin..pe..header..Header$u20$as$u20$core..fmt..Debug$GT$3fmt17h9cbf981c4d03bf45E 000000014010ab40 f   libgoblin-8ee2c552e4c10df6:goblin-8ee2c552e4c10df6.goblin.f087800e97e1b550-cgu.05.rcgu.o
 0001:0010bbc0       _ZN115_$LT$goblin..mach..load_command..ThreadCommand$u20$as$u20$scroll..ctx..TryFromCtx$LT$scroll..endian..Endian$GT$$GT$12try_from_ctx17hd126eb57cf6f6adaE 000000014010cbc0 f   libgoblin-8ee2c552e4c10df6:goblin-8ee2c552e4c10df6.goblin.f087800e97e1b550-cgu.04.rcgu.o
 0001:0010c010       _ZN6goblin4mach12load_command10cmd_to_str17h3e326d9f47f63f02E 000000014010d010 f   libgoblin-8ee2c552e4c10df6:goblin-8ee2c552e4c10df6.goblin.f087800e97e1b550-cgu.04.rcgu.o
 0001:0010c300       _ZN116_$LT$goblin..mach..load_command..CommandVariant$u20$as$u20$scroll..ctx..TryFromCtx$LT$scroll..endian..Endian$GT$$GT$12try_from_ctx17hbd8842f053bf1369E 000000014010d300 f   libgoblin-8ee2c552e4c10df6:goblin-8ee2c552e4c10df6.goblin.f087800e97e1b550-cgu.04.rcgu.o
 0001:0010da00       _ZN6goblin4mach12load_command14CommandVariant7cmdsize17h7e80af77425acdc6E 000000014010ea00 f   libgoblin-8ee2c552e4c10df6:goblin-8ee2c552e4c10df6.goblin.f087800e97e1b550-cgu.04.rcgu.o
 0001:0010da20       _ZN79_$LT$goblin..mach..load_command..CommandVariant$u20$as$u20$core..fmt..Debug$GT$3fmt17h5c9a4c7d61a9688cE 000000014010ea20 f   libgoblin-8ee2c552e4c10df6:goblin-8ee2c552e4c10df6.goblin.f087800e97e1b550-cgu.04.rcgu.o
 0001:0010e1f0       _ZN76_$LT$goblin..mach..load_command..LoadCommand$u20$as$u20$core..fmt..Debug$GT$3fmt17h764a8ca163b24a69E 000000014010f1f0 f   libgoblin-8ee2c552e4c10df6:goblin-8ee2c552e4c10df6.goblin.f087800e97e1b550-cgu.04.rcgu.o
 0001:0010e270       _ZN42_$LT$$RF$T$u20$as$u20$core..fmt..Debug$GT$3fmt17h624af7fb053af8c7E 000000014010f270 f   libgoblin-8ee2c552e4c10df6:goblin-8ee2c552e4c10df6.goblin.f087800e97e1b550-cgu.10.rcgu.o
 0001:0010e290       _ZN4core5array69_$LT$impl$u20$core..fmt..Debug$u20$for$u20$$u5b$T$u3b$$u20$N$u5d$$GT$3fmt17h57a7dd8be3c7e6d5E 000000014010f290 f   libgoblin-8ee2c552e4c10df6:goblin-8ee2c552e4c10df6.goblin.f087800e97e1b550-cgu.10.rcgu.o
 0001:0010e3b0       _ZN4core5array69_$LT$impl$u20$core..fmt..Debug$u20$for$u20$$u5b$T$u3b$$u20$N$u5d$$GT$3fmt17h5a293b390656ef90E 000000014010f3b0 f   libgoblin-8ee2c552e4c10df6:goblin-8ee2c552e4c10df6.goblin.f087800e97e1b550-cgu.10.rcgu.o
 0001:0010e470       _ZN4core5array69_$LT$impl$u20$core..fmt..Debug$u20$for$u20$$u5b$T$u3b$$u20$N$u5d$$GT$3fmt17h5bb4fd7e6a8779fdE 000000014010f470 f   libgoblin-8ee2c552e4c10df6:goblin-8ee2c552e4c10df6.goblin.f087800e97e1b550-cgu.10.rcgu.o
 0001:0010e560       _ZN4core5array69_$LT$impl$u20$core..fmt..Debug$u20$for$u20$$u5b$T$u3b$$u20$N$u5d$$GT$3fmt17heb3eb49d061ce240E 000000014010f560 f   libgoblin-8ee2c552e4c10df6:goblin-8ee2c552e4c10df6.goblin.f087800e97e1b550-cgu.10.rcgu.o
 0001:0010e6b0       _ZN4core5array69_$LT$impl$u20$core..fmt..Debug$u20$for$u20$$u5b$T$u3b$$u20$N$u5d$$GT$3fmt17hed7305f7ab590800E 000000014010f6b0 f   libgoblin-8ee2c552e4c10df6:goblin-8ee2c552e4c10df6.goblin.f087800e97e1b550-cgu.10.rcgu.o
 0001:0010e860       _ZN5alloc11collections5btree4node210Handle$LT$alloc..collections..btree..node..NodeRef$LT$alloc..collections..btree..node..marker..Mut$C$K$C$V$C$alloc..collections..btree..node..marker..Leaf$GT$$C$alloc..collections..btree..node..marker..Edge$GT$16insert_recursing17h25faa40e89711c6fE 000000014010f860 f   libgoblin-8ee2c552e4c10df6:goblin-8ee2c552e4c10df6.goblin.f087800e97e1b550-cgu.10.rcgu.o
 0001:0010f3b0       _ZN5alloc11collections5btree4node210Handle$LT$alloc..collections..btree..node..NodeRef$LT$alloc..collections..btree..node..marker..Mut$C$K$C$V$C$alloc..collections..btree..node..marker..Leaf$GT$$C$alloc..collections..btree..node..marker..Edge$GT$16insert_recursing17h4bb903dd31fa3dd5E 00000001401103b0 f   libgoblin-8ee2c552e4c10df6:goblin-8ee2c552e4c10df6.goblin.f087800e97e1b550-cgu.10.rcgu.o
 0001:0010fdd0       _ZN3log13__private_api3log17he7e38fbdc35e153aE 0000000140110dd0 f   liblog-93adfd4aa7258f97:log-93adfd4aa7258f97.log.f6d58276e227d0ee-cgu.0.rcgu.o
 0001:0010fea0       _ZN6scroll3ctx6StrCtx3len17h2937d79b169f5364E 0000000140110ea0 f   libscroll-59b70175b172b0ef:scroll-59b70175b172b0ef.scroll.62ba7994696c1f3f-cgu.0.rcgu.o
 0001:0010feb0       _ZN59_$LT$scroll..endian..Endian$u20$as$u20$core..fmt..Debug$GT$3fmt17h7f2621a70cc49babE 0000000140110eb0 f   libscroll-59b70175b172b0ef:scroll-59b70175b172b0ef.scroll.62ba7994696c1f3f-cgu.0.rcgu.o
 0001:0010fee0       _ZN57_$LT$scroll..error..Error$u20$as$u20$core..fmt..Debug$GT$3fmt17h51e8f769487ce38aE 0000000140110ee0 f   libscroll-59b70175b172b0ef:scroll-59b70175b172b0ef.scroll.62ba7994696c1f3f-cgu.0.rcgu.o
 0001:00110110       _ZN3std11collections4hash3map11RandomState3new4KEYS7__getit33__KEY$u7b$$u7b$tls.shim$u7d$$u7d$17h4d8e939524694b4bE 0000000140111110 f   libstd-4ee9ee8805e6ac55:std-4ee9ee8805e6ac55.std.ddad90bab7781587-cgu.0.rcgu.o
 0001:00112350       _ZN3std2rt19lang_start_internal17h125867de5e07cdbcE 0000000140113350 f   libstd-4ee9ee8805e6ac55:std-4ee9ee8805e6ac55.std.ddad90bab7781587-cgu.0.rcgu.o
 0001:00112890       _ZN68_$LT$std..thread..local..AccessError$u20$as$u20$core..fmt..Debug$GT$3fmt17h18d8ebc27c7be65cE 0000000140113890 f   libstd-4ee9ee8805e6ac55:std-4ee9ee8805e6ac55.std.ddad90bab7781587-cgu.0.rcgu.o
 0001:001128c0       _ZN3std6thread6Thread3new17h1a832085176730d4E 00000001401138c0 f   libstd-4ee9ee8805e6ac55:std-4ee9ee8805e6ac55.std.ddad90bab7781587-cgu.0.rcgu.o
 0001:001129f0       _ZN3std3env11current_dir17h62ddc7009de34e61E 00000001401139f0 f   libstd-4ee9ee8805e6ac55:std-4ee9ee8805e6ac55.std.ddad90bab7781587-cgu.0.rcgu.o
 0001:00112c50       _ZN3std3env7_var_os17hd296e2c601c7ae66E 0000000140113c50 f   libstd-4ee9ee8805e6ac55:std-4ee9ee8805e6ac55.std.ddad90bab7781587-cgu.0.rcgu.o
 0001:00113090       _ZN3std2fs4read5inner17h426f5c94495edc49E 0000000140114090 f   libstd-4ee9ee8805e6ac55:std-4ee9ee8805e6ac55.std.ddad90bab7781587-cgu.0.rcgu.o
 0001:00113300       _ZN3std2fs14read_to_string5inner17he8152da70a3fbf54E 0000000140114300 f   libstd-4ee9ee8805e6ac55:std-4ee9ee8805e6ac55.std.ddad90bab7781587-cgu.0.rcgu.o
 0001:00113890       _ZN58_$LT$std..io..error..Error$u20$as$u20$core..fmt..Debug$GT$3fmt17h11a91b02de697268E 0000000140114890 f   libstd-4ee9ee8805e6ac55:std-4ee9ee8805e6ac55.std.ddad90bab7781587-cgu.0.rcgu.o
 0001:001138a0       _ZN3std2io5error83_$LT$impl$u20$core..fmt..Debug$u20$for$u20$std..io..error..repr_bitpacked..Repr$GT$3fmt17h59fcdd64170010feE 00000001401148a0 f   libstd-4ee9ee8805e6ac55:std-4ee9ee8805e6ac55.std.ddad90bab7781587-cgu.0.rcgu.o
 0001:00113be0       _ZN60_$LT$std..io..error..Error$u20$as$u20$core..fmt..Display$GT$3fmt17h081f1d5e0dc40cf1E 0000000140114be0 f   libstd-4ee9ee8805e6ac55:std-4ee9ee8805e6ac55.std.ddad90bab7781587-cgu.0.rcgu.o
 0001:001141f0       __acrt_initialize          00000001401151f0 f   msvcrt:ucrt_stubs.obj
 0001:001141f0       __acrt_uninitialize        00000001401151f0 f   msvcrt:ucrt_stubs.obj
 0001:001141f0       __scrt_stub_for_acrt_initialize 00000001401151f0 f   msvcrt:ucrt_stubs.obj
 0001:001141f0       __scrt_stub_for_acrt_uninitialize 00000001401151f0 f   msvcrt:ucrt_stubs.obj
 0001:001141f0       __vcrt_initialize          00000001401151f0 f   msvcrt:ucrt_stubs.obj
 0001:001141f0       __vcrt_uninitialize        00000001401151f0 f   msvcrt:ucrt_stubs.obj
 0001:001141f0       _should_initialize_environment 00000001401151f0 f   msvcrt:env_mode.obj
 0001:00114200       _ZN67_$LT$std..sys..windows..stdio..Stderr$u20$as$u20$std..io..Write$GT$5flush17he9a51919ae49e55dE 0000000140115200 f   libstd-4ee9ee8805e6ac55:std-4ee9ee8805e6ac55.std.ddad90bab7781587-cgu.0.rcgu.o
 0001:00114210       _ZN61_$LT$$RF$std..io..stdio..Stdout$u20$as$u20$std..io..Write$GT$9write_fmt17hc3503a4498ad9c22E 0000000140115210 f   libstd-4ee9ee8805e6ac55:std-4ee9ee8805e6ac55.std.ddad90bab7781587-cgu.0.rcgu.o
 0001:00114400       _ZN61_$LT$std..io..stdio..StdoutLock$u20$as$u20$std..io..Write$GT$9write_all17hafdfc54528f87cf2E 0000000140115400 f   libstd-4ee9ee8805e6ac55:std-4ee9ee8805e6ac55.std.ddad90bab7781587-cgu.0.rcgu.o
 0001:00114810       _ZN3std2io5stdio6_print17h52999c199d5d532aE 0000000140115810 f   libstd-4ee9ee8805e6ac55:std-4ee9ee8805e6ac55.std.ddad90bab7781587-cgu.0.rcgu.o
 0001:00115bc0       _ZN81_$LT$std..ffi..os_str..OsString$u20$as$u20$std..os..windows..ffi..OsStringExt$GT$9from_wide17h547222cd6b79af1bE 0000000140116bc0 f   libstd-4ee9ee8805e6ac55:std-4ee9ee8805e6ac55.std.ddad90bab7781587-cgu.0.rcgu.o
 0001:00115d90       _ZN3std5panic19get_backtrace_style17hffcb5519a37bc186E 0000000140116d90 f   libstd-4ee9ee8805e6ac55:std-4ee9ee8805e6ac55.std.ddad90bab7781587-cgu.0.rcgu.o
 0001:00115fd0       _ZN3std4path10Components7as_path17he8bbbc0648f41042E 0000000140116fd0 f   libstd-4ee9ee8805e6ac55:std-4ee9ee8805e6ac55.std.ddad90bab7781587-cgu.0.rcgu.o
 0001:001166e0       _ZN80_$LT$std..path..Components$u20$as$u20$core..iter..traits..iterator..Iterator$GT$4next17h55406f0fdea6461aE 00000001401176e0 f   libstd-4ee9ee8805e6ac55:std-4ee9ee8805e6ac55.std.ddad90bab7781587-cgu.0.rcgu.o
 0001:00116aa0       _ZN3std4path4Path11is_absolute17h524a78135d787aebE 0000000140117aa0 f   libstd-4ee9ee8805e6ac55:std-4ee9ee8805e6ac55.std.ddad90bab7781587-cgu.0.rcgu.o
 0001:00116bf0       _ZN3std4path4Path13_strip_prefix17hb6540c6bc827d2efE 0000000140117bf0 f   libstd-4ee9ee8805e6ac55:std-4ee9ee8805e6ac55.std.ddad90bab7781587-cgu.0.rcgu.o
 0001:00117360       _ZN91_$LT$std..sys_common..backtrace.._print..DisplayBacktrace$u20$as$u20$core..fmt..Display$GT$3fmt17h4606669ce7f04479E 0000000140118360 f   libstd-4ee9ee8805e6ac55:std-4ee9ee8805e6ac55.std.ddad90bab7781587-cgu.0.rcgu.o
 0001:00118270       _ZN3std10sys_common11thread_info3set17h4d81214a1622ac64E 0000000140119270 f   libstd-4ee9ee8805e6ac55:std-4ee9ee8805e6ac55.std.ddad90bab7781587-cgu.0.rcgu.o
 0001:00118430       _ZN3std10sys_common4wtf87Wtf8Buf25push_code_point_unchecked17h8fafffc96b6430bcE 0000000140119430 f   libstd-4ee9ee8805e6ac55:std-4ee9ee8805e6ac55.std.ddad90bab7781587-cgu.0.rcgu.o
 0001:00118530       _ZN66_$LT$std..sys_common..wtf8..Wtf8$u20$as$u20$core..fmt..Display$GT$3fmt17hd8d8e63c448a533eE 0000000140119530 f   libstd-4ee9ee8805e6ac55:std-4ee9ee8805e6ac55.std.ddad90bab7781587-cgu.0.rcgu.o
 0001:00118860       __rdl_alloc                0000000140119860 f   libstd-4ee9ee8805e6ac55:std-4ee9ee8805e6ac55.std.ddad90bab7781587-cgu.0.rcgu.o
 0001:001188f0       __rdl_dealloc              00000001401198f0 f   libstd-4ee9ee8805e6ac55:std-4ee9ee8805e6ac55.std.ddad90bab7781587-cgu.0.rcgu.o
 0001:00118910       __rdl_realloc              0000000140119910 f   libstd-4ee9ee8805e6ac55:std-4ee9ee8805e6ac55.std.ddad90bab7781587-cgu.0.rcgu.o
 0001:001189e0       __rdl_alloc_zeroed         00000001401199e0 f   libstd-4ee9ee8805e6ac55:std-4ee9ee8805e6ac55.std.ddad90bab7781587-cgu.0.rcgu.o
 0001:00118a70       __rust_drop_panic          0000000140119a70 f   libstd-4ee9ee8805e6ac55:std-4ee9ee8805e6ac55.std.ddad90bab7781587-cgu.0.rcgu.o
 0001:00118b90       __rust_foreign_exception   0000000140119b90 f   libstd-4ee9ee8805e6ac55:std-4ee9ee8805e6ac55.std.ddad90bab7781587-cgu.0.rcgu.o
 0001:00118cb0       _ZN3std9panicking12default_hook17hafac47d9b2329f49E 0000000140119cb0 f   libstd-4ee9ee8805e6ac55:std-4ee9ee8805e6ac55.std.ddad90bab7781587-cgu.0.rcgu.o
 0001:00119500       rust_begin_unwind          000000014011a500 f   libstd-4ee9ee8805e6ac55:std-4ee9ee8805e6ac55.std.ddad90bab7781587-cgu.0.rcgu.o
 0001:00119580       _ZN102_$LT$std..panicking..begin_panic_handler..FormatStringPayload$u20$as$u20$core..panic..PanicPayload$GT$8take_box17hff2da5f6bc7ef4e1E 000000014011a580 f   libstd-4ee9ee8805e6ac55:std-4ee9ee8805e6ac55.std.ddad90bab7781587-cgu.0.rcgu.o
 0001:001196a0       _ZN102_$LT$std..panicking..begin_panic_handler..FormatStringPayload$u20$as$u20$core..panic..PanicPayload$GT$3get17hba06c8808218a698E 000000014011a6a0 f   libstd-4ee9ee8805e6ac55:std-4ee9ee8805e6ac55.std.ddad90bab7781587-cgu.0.rcgu.o
 0001:00119720       _ZN99_$LT$std..panicking..begin_panic_handler..StaticStrPayload$u20$as$u20$core..panic..PanicPayload$GT$8take_box17h3d69557103242a76E 000000014011a720 f   libstd-4ee9ee8805e6ac55:std-4ee9ee8805e6ac55.std.ddad90bab7781587-cgu.0.rcgu.o
 0001:00119770       _ZN99_$LT$std..panicking..begin_panic_handler..StaticStrPayload$u20$as$u20$core..panic..PanicPayload$GT$3get17h61ab19529c60f949E 000000014011a770 f   libstd-4ee9ee8805e6ac55:std-4ee9ee8805e6ac55.std.ddad90bab7781587-cgu.0.rcgu.o
 0001:00119890       _ZN3std9panicking20rust_panic_with_hook17hecd89d2df4d3b205E 000000014011a890 f   libstd-4ee9ee8805e6ac55:std-4ee9ee8805e6ac55.std.ddad90bab7781587-cgu.0.rcgu.o
 0001:00119c70       rust_panic                 000000014011ac70 f   libstd-4ee9ee8805e6ac55:std-4ee9ee8805e6ac55.std.ddad90bab7781587-cgu.0.rcgu.o
 0001:0011a740       _ZN62_$LT$std..io..error..ErrorKind$u20$as$u20$core..fmt..Debug$GT$3fmt17hae6b157bfaea3dcfE 000000014011b740 f   libstd-4ee9ee8805e6ac55:std-4ee9ee8805e6ac55.std.ddad90bab7781587-cgu.0.rcgu.o
 0001:0011a980       _ZN3std3sys7windows6compat4init17h1628064fad7ef033E 000000014011b980 f   libstd-4ee9ee8805e6ac55:std-4ee9ee8805e6ac55.std.ddad90bab7781587-cgu.0.rcgu.o
 0001:0011ad60       _ZN3std3sys7windows6handle6Handle4read17h72e4b8ee971d67e4E 000000014011bd60 f   libstd-4ee9ee8805e6ac55:std-4ee9ee8805e6ac55.std.ddad90bab7781587-cgu.0.rcgu.o
 0001:0011afd0       _ZN3std3sys7windows6handle6Handle8read_buf17hb60d711c9e17213fE 000000014011bfd0 f   libstd-4ee9ee8805e6ac55:std-4ee9ee8805e6ac55.std.ddad90bab7781587-cgu.0.rcgu.o
 0001:0011b900       _ZN3std3sys7windows4path12parse_prefix17h4b1a25c7539b0c0cE 000000014011c900 f   libstd-4ee9ee8805e6ac55:std-4ee9ee8805e6ac55.std.ddad90bab7781587-cgu.0.rcgu.o
 0001:0011c560       _ZN3std3sys7windows4rand19hashmap_random_keys17h45bdcaa90d0d4fadE 000000014011d560 f   libstd-4ee9ee8805e6ac55:std-4ee9ee8805e6ac55.std.ddad90bab7781587-cgu.0.rcgu.o
 0001:0011cc10       _ZN67_$LT$std..sys..windows..stdio..Stderr$u20$as$u20$std..io..Write$GT$5write17hda5ca66e7af50202E 000000014011dc10 f   libstd-4ee9ee8805e6ac55:std-4ee9ee8805e6ac55.std.ddad90bab7781587-cgu.0.rcgu.o
 0001:0011cc30       _ZN3std3sys7windows6thread6Thread8set_name17hef8ad61189c57154E 000000014011dc30 f   libstd-4ee9ee8805e6ac55:std-4ee9ee8805e6ac55.std.ddad90bab7781587-cgu.0.rcgu.o
 0001:0011ccc0       _ZN3std3sys7windows16thread_local_key21register_keyless_dtor17hac19a46ca0d61bdcE 000000014011dcc0 f   libstd-4ee9ee8805e6ac55:std-4ee9ee8805e6ac55.std.ddad90bab7781587-cgu.0.rcgu.o
 0001:0011ce40       _ZN3std3sys7windows16thread_local_key15on_tls_callback17h8c0a4ce4bcf29226E 000000014011de40 f   libstd-4ee9ee8805e6ac55:std-4ee9ee8805e6ac55.std.ddad90bab7781587-cgu.0.rcgu.o
 0001:0011cea0       _ZN3std3sys7windows17decode_error_kind17h397c7e04576546aaE 000000014011dea0 f   libstd-4ee9ee8805e6ac55:std-4ee9ee8805e6ac55.std.ddad90bab7781587-cgu.0.rcgu.o
 0001:0011d6d0       _ZN83_$LT$std..sys_common..once..queue..WaiterQueue$u20$as$u20$core..ops..drop..Drop$GT$4drop17h452241559c68ff05E 000000014011e6d0 f   libstd-4ee9ee8805e6ac55:std-4ee9ee8805e6ac55.std.ddad90bab7781587-cgu.0.rcgu.o
 0001:0011d8f0       _ZN3std5alloc8rust_oom17h0b2b56b1d85b8248E 000000014011e8f0 f   libstd-4ee9ee8805e6ac55:std-4ee9ee8805e6ac55.std.ddad90bab7781587-cgu.0.rcgu.o
 0001:0011d920       __rg_oom                   000000014011e920 f   libstd-4ee9ee8805e6ac55:std-4ee9ee8805e6ac55.std.ddad90bab7781587-cgu.0.rcgu.o
 0001:0011d9a0       _ZN79_$LT$std..backtrace_rs..symbolize..SymbolName$u20$as$u20$core..fmt..Display$GT$3fmt17h9014dfe1443bd493E 000000014011e9a0 f   libstd-4ee9ee8805e6ac55:std-4ee9ee8805e6ac55.std.ddad90bab7781587-cgu.0.rcgu.o
 0001:0011da90       _ZN3std12backtrace_rs9symbolize7dbghelp7resolve17hafd33d20b8db6bfeE 000000014011ea90 f   libstd-4ee9ee8805e6ac55:std-4ee9ee8805e6ac55.std.ddad90bab7781587-cgu.0.rcgu.o
 0001:0011e490       __rust_panic_cleanup       000000014011f490 f   libpanic_unwind-b7f160f59ff3afe6:panic_unwind-b7f160f59ff3afe6.panic_unwind.fbc0b20a99f55808-cgu.0.rcgu.o
 0001:0011e520       __rust_start_panic         000000014011f520 f   libpanic_unwind-b7f160f59ff3afe6:panic_unwind-b7f160f59ff3afe6.panic_unwind.fbc0b20a99f55808-cgu.0.rcgu.o
 0001:0011f820       _ZN71_$LT$rustc_demangle..legacy..Demangle$u20$as$u20$core..fmt..Display$GT$3fmt17hd35ce6a972d10fd7E 0000000140120820 f   librustc_demangle-e8c24fed9d2415b5:rustc_demangle-e8c24fed9d2415b5.rustc_demangle.33a0fa7ed6bc3543-cgu.0.rcgu.o
 0001:00120440       _ZN64_$LT$rustc_demangle..v0..Ident$u20$as$u20$core..fmt..Display$GT$3fmt17h5a5b1220c6d0352bE 0000000140121440 f   librustc_demangle-e8c24fed9d2415b5:rustc_demangle-e8c24fed9d2415b5.rustc_demangle.33a0fa7ed6bc3543-cgu.0.rcgu.o
 0001:00124510       _ZN14rustc_demangle8demangle17h72f710dd98f77b8aE 0000000140125510 f   librustc_demangle-e8c24fed9d2415b5:rustc_demangle-e8c24fed9d2415b5.rustc_demangle.33a0fa7ed6bc3543-cgu.0.rcgu.o
 0001:00124f80       _ZN14rustc_demangle12try_demangle17h92fb85e75b8bedb7E 0000000140125f80 f   librustc_demangle-e8c24fed9d2415b5:rustc_demangle-e8c24fed9d2415b5.rustc_demangle.33a0fa7ed6bc3543-cgu.0.rcgu.o
 0001:00124fd0       _ZN14rustc_demangle8Demangle6as_str17h3deee31ec3ed4009E 0000000140125fd0 f   librustc_demangle-e8c24fed9d2415b5:rustc_demangle-e8c24fed9d2415b5.rustc_demangle.33a0fa7ed6bc3543-cgu.0.rcgu.o
 0001:00125010       _ZN63_$LT$rustc_demangle..Demangle$u20$as$u20$core..fmt..Display$GT$3fmt17he0fb6f6b74fd4553E 0000000140126010 f   librustc_demangle-e8c24fed9d2415b5:rustc_demangle-e8c24fed9d2415b5.rustc_demangle.33a0fa7ed6bc3543-cgu.0.rcgu.o
 0001:00125230       _ZN71_$LT$rustc_demangle..SizeLimitExhausted$u20$as$u20$core..fmt..Debug$GT$3fmt17h57baae38188662f5E 0000000140126230 f   librustc_demangle-e8c24fed9d2415b5:rustc_demangle-e8c24fed9d2415b5.rustc_demangle.33a0fa7ed6bc3543-cgu.0.rcgu.o
 0001:00125260       _ZN9hashbrown3raw11Fallibility17capacity_overflow17h16406b27aadacd28E 0000000140126260 f   libhashbrown-6857d0a8b739d5f0:hashbrown-6857d0a8b739d5f0.hashbrown.4a1b2d857af5e5bf-cgu.0.rcgu.o
 0001:001252b0       _ZN9hashbrown3raw11Fallibility9alloc_err17h0b3b59d0a68d1986E 00000001401262b0 f   libhashbrown-6857d0a8b739d5f0:hashbrown-6857d0a8b739d5f0.hashbrown.4a1b2d857af5e5bf-cgu.0.rcgu.o
 0001:00125520       _ZN5alloc7raw_vec17capacity_overflow17h9136456a1b2128beE 0000000140126520 f   liballoc-a743693af38ef10c:alloc-a743693af38ef10c.alloc.42c67cf0bd15423-cgu.0.rcgu.o
 0001:00125560       _ZN5alloc5alloc18handle_alloc_error8rt_error17hdfb08cb3a44e51b0E 0000000140126560 f   liballoc-a743693af38ef10c:alloc-a743693af38ef10c.alloc.42c67cf0bd15423-cgu.0.rcgu.o
 0001:00125580       _ZN93_$LT$alloc..collections..btree..mem..replace..PanicGuard$u20$as$u20$core..ops..drop..Drop$GT$4drop17hba70c89424de3117E 0000000140126580 f   liballoc-a743693af38ef10c:alloc-a743693af38ef10c.alloc.42c67cf0bd15423-cgu.0.rcgu.o
 0001:00125590       _ZN5alloc11collections5btree4node10splitpoint17h060ce5cf9d9ff2aaE 0000000140126590 f   liballoc-a743693af38ef10c:alloc-a743693af38ef10c.alloc.42c67cf0bd15423-cgu.0.rcgu.o
 0001:00125600       _ZN72_$LT$$RF$str$u20$as$u20$alloc..ffi..c_str..CString..new..SpecNewImpl$GT$13spec_new_impl17hb1c8f89ba2402b6fE 0000000140126600 f   liballoc-a743693af38ef10c:alloc-a743693af38ef10c.alloc.42c67cf0bd15423-cgu.0.rcgu.o
 0001:00125600       _ZN81_$LT$$RF$$u5b$u8$u5d$$u20$as$u20$alloc..ffi..c_str..CString..new..SpecNewImpl$GT$13spec_new_impl17hf39de45f9f7dc785E 0000000140126600 f   liballoc-a743693af38ef10c:alloc-a743693af38ef10c.alloc.42c67cf0bd15423-cgu.0.rcgu.o
 0001:00125770       _ZN5alloc3ffi5c_str7CString19_from_vec_unchecked17h30a657d4dbd5585cE 0000000140126770 f   liballoc-a743693af38ef10c:alloc-a743693af38ef10c.alloc.42c67cf0bd15423-cgu.0.rcgu.o
 0001:00125910       _ZN5alloc3fmt6format12format_inner17h464eee787a793141E 0000000140126910 f   liballoc-a743693af38ef10c:alloc-a743693af38ef10c.alloc.42c67cf0bd15423-cgu.0.rcgu.o
 0001:00125ab0       _ZN5alloc6string6String10from_utf1617h7d6bba04c0708361E 0000000140126ab0 f   liballoc-a743693af38ef10c:alloc-a743693af38ef10c.alloc.42c67cf0bd15423-cgu.0.rcgu.o
 0001:00125d40       _ZN60_$LT$alloc..string..String$u20$as$u20$core..clone..Clone$GT$5clone17h1f248e45723b3addE 0000000140126d40 f   liballoc-a743693af38ef10c:alloc-a743693af38ef10c.alloc.42c67cf0bd15423-cgu.0.rcgu.o
 0001:00125dc0       _ZN5alloc6string104_$LT$impl$u20$core..convert..From$LT$alloc..string..String$GT$$u20$for$u20$alloc..vec..Vec$LT$u8$GT$$GT$4from17hcb7fe4853e991957E 0000000140126dc0 f   liballoc-a743693af38ef10c:alloc-a743693af38ef10c.alloc.42c67cf0bd15423-cgu.0.rcgu.o
 0001:00125e50       _ZN5alloc4sync32arcinner_layout_for_value_layout17hfcc2467177bada12E 0000000140126e50 f   liballoc-a743693af38ef10c:alloc-a743693af38ef10c.alloc.42c67cf0bd15423-cgu.0.rcgu.o
 0001:00125f50       _ZN64_$LT$alloc..ffi..c_str..NulError$u20$as$u20$core..fmt..Debug$GT$3fmt17h5a726f7923eb3a3dE 0000000140126f50 f   liballoc-a743693af38ef10c:alloc-a743693af38ef10c.alloc.42c67cf0bd15423-cgu.0.rcgu.o
 0001:00125fa0       _ZN65_$LT$alloc..string..FromUtf8Error$u20$as$u20$core..fmt..Debug$GT$3fmt17ha45a449983bcd4deE 0000000140126fa0 f   liballoc-a743693af38ef10c:alloc-a743693af38ef10c.alloc.42c67cf0bd15423-cgu.0.rcgu.o
 0001:00126040       _ZN70_$LT$core..num..error..ParseIntError$u20$as$u20$core..fmt..Display$GT$3fmt17h31e8f8fdb592d38dE 0000000140127040 f   libcore-16be615c0f945bda:core-16be615c0f945bda.core.4301697966f7db04-cgu.0.rcgu.o
 0001:001264c0       _ZN4core5ascii14escape_default17h40e2b835d2a20d91E 00000001401274c0 f   libcore-16be615c0f945bda:core-16be615c0f945bda.core.4301697966f7db04-cgu.0.rcgu.o
 0001:00126590       _ZN60_$LT$core..cell..BorrowError$u20$as$u20$core..fmt..Debug$GT$3fmt17h721c9c8f31e48b74E 0000000140127590 f   libcore-16be615c0f945bda:core-16be615c0f945bda.core.4301697966f7db04-cgu.0.rcgu.o
 0001:001265b0       _ZN63_$LT$core..cell..BorrowMutError$u20$as$u20$core..fmt..Debug$GT$3fmt17h237a7857dd832df2E 00000001401275b0 f   libcore-16be615c0f945bda:core-16be615c0f945bda.core.4301697966f7db04-cgu.0.rcgu.o
 0001:001265d0       _ZN4core4char6decode16DecodeUtf16Error18unpaired_surrogate17h332cc9ad21685265E 00000001401275d0 f   libcore-16be615c0f945bda:core-16be615c0f945bda.core.4301697966f7db04-cgu.0.rcgu.o
 0001:001265d0       _ZN50_$LT$i16$u20$as$u20$core..fmt..num..DisplayInt$GT$6to_u1617h00dd8ff6301321e9E 00000001401275d0 f   libcore-16be615c0f945bda:core-16be615c0f945bda.core.4301697966f7db04-cgu.0.rcgu.o
 0001:001265d0       _ZN50_$LT$u16$u20$as$u20$core..fmt..num..DisplayInt$GT$6to_u1617hc372eb1d60a3d346E 00000001401275d0 f   libcore-16be615c0f945bda:core-16be615c0f945bda.core.4301697966f7db04-cgu.0.rcgu.o
 0001:00126760       _ZN4core4char13EscapeUnicode3new17h2b61f2c34c608153E 0000000140127760 f   libcore-16be615c0f945bda:core-16be615c0f945bda.core.4301697966f7db04-cgu.0.rcgu.o
 0001:00126850       _ZN4core4char11EscapeDebug9printable17h2cae9fd90377fad6E 0000000140127850 f   libcore-16be615c0f945bda:core-16be615c0f945bda.core.4301697966f7db04-cgu.0.rcgu.o
 0001:00126860       _ZN4core4char11EscapeDebug9backslash17hc0940218f61df873E 0000000140127860 f   libcore-16be615c0f945bda:core-16be615c0f945bda.core.4301697966f7db04-cgu.0.rcgu.o
 0001:00126880       _ZN4core4char11EscapeDebug12from_unicode17h8a43b349cacbc0ceE 0000000140127880 f   libcore-16be615c0f945bda:core-16be615c0f945bda.core.4301697966f7db04-cgu.0.rcgu.o
 0001:00126890       _ZN4core4char11EscapeDebug5clear17h72740ee34454b41aE 0000000140127890 f   libcore-16be615c0f945bda:core-16be615c0f945bda.core.4301697966f7db04-cgu.0.rcgu.o
 0001:001268a0       _ZN62_$LT$core..char..EscapeDebug$u20$as$u20$core..fmt..Display$GT$3fmt17h588f090381f8cc4dE 00000001401278a0 f   libcore-16be615c0f945bda:core-16be615c0f945bda.core.4301697966f7db04-cgu.0.rcgu.o
 0001:00126930       _ZN4core3ffi5c_str4CStr6to_str17h3f2718ee7e08107cE 0000000140127930 f   libcore-16be615c0f945bda:core-16be615c0f945bda.core.4301697966f7db04-cgu.0.rcgu.o
 0001:00126950       _ZN70_$LT$core..panic..location..Location$u20$as$u20$core..fmt..Display$GT$3fmt17h8c61c9bec680b256E 0000000140127950 f   libcore-16be615c0f945bda:core-16be615c0f945bda.core.4301697966f7db04-cgu.0.rcgu.o
 0001:001269e0       _ZN4core5panic10panic_info9PanicInfo7payload17hd176ad818c10da15E 00000001401279e0 f   libcore-16be615c0f945bda:core-16be615c0f945bda.core.4301697966f7db04-cgu.0.rcgu.o
 0001:001269f0       _ZN4core5panic10panic_info9PanicInfo7message17h2b1ba1253c66ab3cE 00000001401279f0 f   libcore-16be615c0f945bda:core-16be615c0f945bda.core.4301697966f7db04-cgu.0.rcgu.o
 0001:00126a00       _ZN4core5panic10panic_info9PanicInfo8location17h1fdcad716c5bd006E 0000000140127a00 f   libcore-16be615c0f945bda:core-16be615c0f945bda.core.4301697966f7db04-cgu.0.rcgu.o
 0001:00126a10       _ZN4core5panic10panic_info9PanicInfo10can_unwind17h4f3108d6dedab76dE 0000000140127a10 f   libcore-16be615c0f945bda:core-16be615c0f945bda.core.4301697966f7db04-cgu.0.rcgu.o
 0001:00126a20       _ZN73_$LT$core..panic..panic_info..PanicInfo$u20$as$u20$core..fmt..Display$GT$3fmt17h0fe5f75dac3ba263E 0000000140127a20 f   libcore-16be615c0f945bda:core-16be615c0f945bda.core.4301697966f7db04-cgu.0.rcgu.o
 0001:00126bb0       _ZN68_$LT$core..fmt..builders..PadAdapter$u20$as$u20$core..fmt..Write$GT$9write_str17h0d27c9c81b1193f7E 0000000140127bb0 f   libcore-16be615c0f945bda:core-16be615c0f945bda.core.4301697966f7db04-cgu.0.rcgu.o
 0001:00126e00       _ZN68_$LT$core..fmt..builders..PadAdapter$u20$as$u20$core..fmt..Write$GT$10write_char17h03b1e22fa6c7a0cbE 0000000140127e00 f   libcore-16be615c0f945bda:core-16be615c0f945bda.core.4301697966f7db04-cgu.0.rcgu.o
 0001:00126e60       _ZN4core3fmt8builders11DebugStruct5field17h0693518065376540E 0000000140127e60 f   libcore-16be615c0f945bda:core-16be615c0f945bda.core.4301697966f7db04-cgu.0.rcgu.o
 0001:00127020       _ZN4core3fmt8builders11DebugStruct6finish17h26549b75b791d385E 0000000140128020 f   libcore-16be615c0f945bda:core-16be615c0f945bda.core.4301697966f7db04-cgu.0.rcgu.o
 0001:00127080       _ZN4core3fmt8builders10DebugTuple5field17he8527873ffc4fc41E 0000000140128080 f   libcore-16be615c0f945bda:core-16be615c0f945bda.core.4301697966f7db04-cgu.0.rcgu.o
 0001:001271d0       _ZN4core3fmt8builders10DebugTuple6finish17h33eb597a9e942417E 00000001401281d0 f   libcore-16be615c0f945bda:core-16be615c0f945bda.core.4301697966f7db04-cgu.0.rcgu.o
 0001:00127380       _ZN4core3fmt8builders8DebugSet5entry17h9f30c22358216cd4E 0000000140128380 f   libcore-16be615c0f945bda:core-16be615c0f945bda.core.4301697966f7db04-cgu.0.rcgu.o
 0001:00127380       _ZN4core3fmt8builders9DebugList5entry17h72a354600cf35f82E 0000000140128380 f   libcore-16be615c0f945bda:core-16be615c0f945bda.core.4301697966f7db04-cgu.0.rcgu.o
 0001:001273a0       _ZN4core3fmt8builders8DebugSet6finish17h2ce351f73100fdc5E 00000001401283a0 f   libcore-16be615c0f945bda:core-16be615c0f945bda.core.4301697966f7db04-cgu.0.rcgu.o
 0001:001273d0       _ZN4core3fmt8builders9DebugList6finish17hcacf78298b674c70E 00000001401283d0 f   libcore-16be615c0f945bda:core-16be615c0f945bda.core.4301697966f7db04-cgu.0.rcgu.o
 0001:00127400       _ZN4core3fmt8builders8DebugMap5entry17h35dd94e0c724e8b0E 0000000140128400 f   libcore-16be615c0f945bda:core-16be615c0f945bda.core.4301697966f7db04-cgu.0.rcgu.o
 0001:00127430       _ZN4core3fmt8builders8DebugMap3key17h83f81c868dfd19adE 0000000140128430 f   libcore-16be615c0f945bda:core-16be615c0f945bda.core.4301697966f7db04-cgu.0.rcgu.o
 0001:001275b0       _ZN4core3fmt8builders8DebugMap5value17h2eff6b74093e9811E 00000001401285b0 f   libcore-16be615c0f945bda:core-16be615c0f945bda.core.4301697966f7db04-cgu.0.rcgu.o
 0001:001276d0       _ZN4core3fmt8builders8DebugMap6finish17h900a4f0c63fcacebE 00000001401286d0 f   libcore-16be615c0f945bda:core-16be615c0f945bda.core.4301697966f7db04-cgu.0.rcgu.o
 0001:00127760       _ZN4core3fmt9Formatter3new17ha4c783a067b4dc67E 0000000140128760 f   libcore-16be615c0f945bda:core-16be615c0f945bda.core.4301697966f7db04-cgu.0.rcgu.o
 0001:00127790       _ZN57_$LT$core..fmt..Arguments$u20$as$u20$core..fmt..Debug$GT$3fmt17hadd143c728f3cf80E 0000000140128790 f   libcore-16be615c0f945bda:core-16be615c0f945bda.core.4301697966f7db04-cgu.0.rcgu.o
 0001:00127790       _ZN59_$LT$core..fmt..Arguments$u20$as$u20$core..fmt..Display$GT$3fmt17haaed0e20342802b0E 0000000140128790 f   libcore-16be615c0f945bda:core-16be615c0f945bda.core.4301697966f7db04-cgu.0.rcgu.o
 0001:001277a0       _ZN4core3fmt5write17h296cf024ecba9c4fE 00000001401287a0 f   libcore-16be615c0f945bda:core-16be615c0f945bda.core.4301697966f7db04-cgu.0.rcgu.o
 0001:001279b0       _ZN4core3fmt9Formatter12pad_integral17h5fd11bfa12b278deE 00000001401289b0 f   libcore-16be615c0f945bda:core-16be615c0f945bda.core.4301697966f7db04-cgu.0.rcgu.o
 0001:00127d50       _ZN4core3fmt9Formatter3pad17hf1c733d86e083d2fE 0000000140128d50 f   libcore-16be615c0f945bda:core-16be615c0f945bda.core.4301697966f7db04-cgu.0.rcgu.o
 0001:00128070       _ZN4core3fmt9Formatter9write_str17hb00aa550cbc12da7E 0000000140129070 f   libcore-16be615c0f945bda:core-16be615c0f945bda.core.4301697966f7db04-cgu.0.rcgu.o
 0001:00128070       _ZN57_$LT$core..fmt..Formatter$u20$as$u20$core..fmt..Write$GT$9write_str17hf9ce29adcc5ccd29E 0000000140129070 f   libcore-16be615c0f945bda:core-16be615c0f945bda.core.4301697966f7db04-cgu.0.rcgu.o
 0001:00128090       _ZN4core3fmt9Formatter9write_fmt17he0d2b9e41a593e4cE 0000000140129090 f   libcore-16be615c0f945bda:core-16be615c0f945bda.core.4301697966f7db04-cgu.0.rcgu.o
 0001:00128090       _ZN57_$LT$core..fmt..Formatter$u20$as$u20$core..fmt..Write$GT$9write_fmt17hf15625e3128cb3e9E 0000000140129090 f   libcore-16be615c0f945bda:core-16be615c0f945bda.core.4301697966f7db04-cgu.0.rcgu.o
 0001:001280b0       _ZN4core3fmt9Formatter9alternate17h476ea39f9fdf08e5E 00000001401290b0 f   libcore-16be615c0f945bda:core-16be615c0f945bda.core.4301697966f7db04-cgu.0.rcgu.o
 0001:001280c0       _ZN4core3fmt9Formatter15debug_lower_hex17h6b7adcb6673ccf36E 00000001401290c0 f   libcore-16be615c0f945bda:core-16be615c0f945bda.core.4301697966f7db04-cgu.0.rcgu.o
 0001:001280d0       _ZN4core3fmt9Formatter15debug_upper_hex17hf48297c0b57543d5E 00000001401290d0 f   libcore-16be615c0f945bda:core-16be615c0f945bda.core.4301697966f7db04-cgu.0.rcgu.o
 0001:001280e0       _ZN4core3fmt9Formatter12debug_struct17hffde25f3040f0e19E 00000001401290e0 f   libcore-16be615c0f945bda:core-16be615c0f945bda.core.4301697966f7db04-cgu.0.rcgu.o
 0001:00128120       _ZN4core3fmt9Formatter26debug_struct_field1_finish17h563153623b2471c5E 0000000140129120 f   libcore-16be615c0f945bda:core-16be615c0f945bda.core.4301697966f7db04-cgu.0.rcgu.o
 0001:001281e0       _ZN4core3fmt9Formatter26debug_struct_field2_finish17hb001ef809993f070E 00000001401291e0 f   libcore-16be615c0f945bda:core-16be615c0f945bda.core.4301697966f7db04-cgu.0.rcgu.o
 0001:001282e0       _ZN4core3fmt9Formatter26debug_struct_field3_finish17hb458dc49103ea08eE 00000001401292e0 f   libcore-16be615c0f945bda:core-16be615c0f945bda.core.4301697966f7db04-cgu.0.rcgu.o
 0001:00128410       _ZN4core3fmt9Formatter26debug_struct_field4_finish17h95af4304d9f17d61E 0000000140129410 f   libcore-16be615c0f945bda:core-16be615c0f945bda.core.4301697966f7db04-cgu.0.rcgu.o
 0001:00128570       _ZN4core3fmt9Formatter26debug_struct_field5_finish17h95f975b5ab3170dfE 0000000140129570 f   libcore-16be615c0f945bda:core-16be615c0f945bda.core.4301697966f7db04-cgu.0.rcgu.o
 0001:001286f0       _ZN4core3fmt9Formatter26debug_struct_fields_finish17h05e3a4cb4c9f7ef8E 00000001401296f0 f   libcore-16be615c0f945bda:core-16be615c0f945bda.core.4301697966f7db04-cgu.0.rcgu.o
 0001:00128800       _ZN4core3fmt9Formatter11debug_tuple17hc42b1d1885bd1f03E 0000000140129800 f   libcore-16be615c0f945bda:core-16be615c0f945bda.core.4301697966f7db04-cgu.0.rcgu.o
 0001:00128850       _ZN4core3fmt9Formatter25debug_tuple_field1_finish17h2912e12a39574d64E 0000000140129850 f   libcore-16be615c0f945bda:core-16be615c0f945bda.core.4301697966f7db04-cgu.0.rcgu.o
 0001:00128920       _ZN4core3fmt9Formatter25debug_tuple_field2_finish17h47c017bfc70de493E 0000000140129920 f   libcore-16be615c0f945bda:core-16be615c0f945bda.core.4301697966f7db04-cgu.0.rcgu.o
 0001:00128a10       _ZN4core3fmt9Formatter25debug_tuple_field3_finish17h466f29d2558b4ba3E 0000000140129a10 f   libcore-16be615c0f945bda:core-16be615c0f945bda.core.4301697966f7db04-cgu.0.rcgu.o
 0001:00128b30       _ZN4core3fmt9Formatter25debug_tuple_field4_finish17hcf1ec74a98a550f8E 0000000140129b30 f   libcore-16be615c0f945bda:core-16be615c0f945bda.core.4301697966f7db04-cgu.0.rcgu.o
 0001:00128c60       _ZN4core3fmt9Formatter10debug_list17h4480b9cb76d1f31aE 0000000140129c60 f   libcore-16be615c0f945bda:core-16be615c0f945bda.core.4301697966f7db04-cgu.0.rcgu.o
 0001:00128ca0       _ZN4core3fmt9Formatter9debug_set17h482a8d41a7b59c77E 0000000140129ca0 f   libcore-16be615c0f945bda:core-16be615c0f945bda.core.4301697966f7db04-cgu.0.rcgu.o
 0001:00128ce0       _ZN4core3fmt9Formatter9debug_map17h9867fca04a527e07E 0000000140129ce0 f   libcore-16be615c0f945bda:core-16be615c0f945bda.core.4301697966f7db04-cgu.0.rcgu.o
 0001:00128d20       _ZN57_$LT$core..fmt..Formatter$u20$as$u20$core..fmt..Write$GT$10write_char17h613f87fffe0491daE 0000000140129d20 f   libcore-16be615c0f945bda:core-16be615c0f945bda.core.4301697966f7db04-cgu.0.rcgu.o
 0001:00128d40       _ZN43_$LT$bool$u20$as$u20$core..fmt..Display$GT$3fmt17hfe5f81dad4363867E 0000000140129d40 f   libcore-16be615c0f945bda:core-16be615c0f945bda.core.4301697966f7db04-cgu.0.rcgu.o
 0001:00128d80       _ZN40_$LT$str$u20$as$u20$core..fmt..Debug$GT$3fmt17h0037aa1510e5c196E 0000000140129d80 f   libcore-16be615c0f945bda:core-16be615c0f945bda.core.4301697966f7db04-cgu.0.rcgu.o
 0001:001290f0       _ZN42_$LT$str$u20$as$u20$core..fmt..Display$GT$3fmt17h09e2cc01d632ddf6E 000000014012a0f0 f   libcore-16be615c0f945bda:core-16be615c0f945bda.core.4301697966f7db04-cgu.0.rcgu.o
 0001:00129110       _ZN41_$LT$char$u20$as$u20$core..fmt..Debug$GT$3fmt17hb7ced13410af4a10E 000000014012a110 f   libcore-16be615c0f945bda:core-16be615c0f945bda.core.4301697966f7db04-cgu.0.rcgu.o
 0001:00129230       _ZN43_$LT$char$u20$as$u20$core..fmt..Display$GT$3fmt17ha807f44c9c902be7E 000000014012a230 f   libcore-16be615c0f945bda:core-16be615c0f945bda.core.4301697966f7db04-cgu.0.rcgu.o
 0001:00129320       _ZN4core3fmt17pointer_fmt_inner17hfc1d329032092e05E 000000014012a320 f   libcore-16be615c0f945bda:core-16be615c0f945bda.core.4301697966f7db04-cgu.0.rcgu.o
 0001:00129410       _ZN4core5slice6memchr14memchr_aligned17h4c131ee5ef4f182bE 000000014012a410 f   libcore-16be615c0f945bda:core-16be615c0f945bda.core.4301697966f7db04-cgu.0.rcgu.o
 0001:00129500       _ZN4core5slice6memchr7memrchr17hfc4ecaafd16c2f44E 000000014012a500 f   libcore-16be615c0f945bda:core-16be615c0f945bda.core.4301697966f7db04-cgu.0.rcgu.o
 0001:00129630       _ZN4core3str8converts9from_utf817hd51c63b7c0bff0dfE 000000014012a630 f   libcore-16be615c0f945bda:core-16be615c0f945bda.core.4301697966f7db04-cgu.0.rcgu.o
 0001:00129830       _ZN4core3str5count14do_count_chars17hfa4c649cc3ff730bE 000000014012a830 f   libcore-16be615c0f945bda:core-16be615c0f945bda.core.4301697966f7db04-cgu.0.rcgu.o
 0001:00129d40       _ZN4core3str5count23char_count_general_case17h3d1de9bf7b7f090fE 000000014012ad40 f   libcore-16be615c0f945bda:core-16be615c0f945bda.core.4301697966f7db04-cgu.0.rcgu.o
 0001:00129e10       _ZN4core3str7pattern11StrSearcher3new17ha3fc1028a660d39cE 000000014012ae10 f   libcore-16be615c0f945bda:core-16be615c0f945bda.core.4301697966f7db04-cgu.0.rcgu.o
 0001:0012a360       _ZN4core3str19slice_error_fail_rt17h74eb732a49f6eeeaE 000000014012b360 f   libcore-16be615c0f945bda:core-16be615c0f945bda.core.4301697966f7db04-cgu.0.rcgu.o
 0001:0012a970       _ZN4core7unicode9printable12is_printable17ha8b28f9f1e6e1061E 000000014012b970 f   libcore-16be615c0f945bda:core-16be615c0f945bda.core.4301697966f7db04-cgu.0.rcgu.o
 0001:0012aaa0       _ZN70_$LT$core..num..error..TryFromIntError$u20$as$u20$core..fmt..Debug$GT$3fmt17hb4b27ba4dadc421cE 000000014012baa0 f   libcore-16be615c0f945bda:core-16be615c0f945bda.core.4301697966f7db04-cgu.0.rcgu.o
 0001:0012ab70       _ZN68_$LT$core..num..error..ParseIntError$u20$as$u20$core..fmt..Debug$GT$3fmt17hbf2e93687a849140E 000000014012bb70 f   libcore-16be615c0f945bda:core-16be615c0f945bda.core.4301697966f7db04-cgu.0.rcgu.o
 0001:0012ac50       _ZN4core3num21_$LT$impl$u20$u32$GT$14from_str_radix17h2642bc06354c351bE 000000014012bc50 f   libcore-16be615c0f945bda:core-16be615c0f945bda.core.4301697966f7db04-cgu.0.rcgu.o
 0001:0012ac60       _ZN4core3num21_$LT$impl$u20$u64$GT$14from_str_radix17h0bd1d983f6e2ede6E 000000014012bc60 f   libcore-16be615c0f945bda:core-16be615c0f945bda.core.4301697966f7db04-cgu.0.rcgu.o
 0001:0012ac60       _ZN4core3num23_$LT$impl$u20$usize$GT$14from_str_radix17h260343d364654c6fE 000000014012bc60 f   libcore-16be615c0f945bda:core-16be615c0f945bda.core.4301697966f7db04-cgu.0.rcgu.o
 0001:0012ac80       _ZN4core3num60_$LT$impl$u20$core..str..traits..FromStr$u20$for$u20$u32$GT$8from_str17hff5c20e5b165c222E 000000014012bc80 f   libcore-16be615c0f945bda:core-16be615c0f945bda.core.4301697966f7db04-cgu.0.rcgu.o
 0001:0012ad60       _ZN4core3num60_$LT$impl$u20$core..str..traits..FromStr$u20$for$u20$u64$GT$8from_str17h8d67b988f831fc72E 000000014012bd60 f   libcore-16be615c0f945bda:core-16be615c0f945bda.core.4301697966f7db04-cgu.0.rcgu.o
 0001:0012ad60       _ZN4core3num62_$LT$impl$u20$core..str..traits..FromStr$u20$for$u20$usize$GT$8from_str17h833ff6a8f93d5100E 000000014012bd60 f   libcore-16be615c0f945bda:core-16be615c0f945bda.core.4301697966f7db04-cgu.0.rcgu.o
 0001:0012ae20       _ZN65_$LT$core..char..TryFromCharError$u20$as$u20$core..fmt..Debug$GT$3fmt17hc5c5d39056f5e142E 000000014012be20 f   libcore-16be615c0f945bda:core-16be615c0f945bda.core.4301697966f7db04-cgu.0.rcgu.o
 0001:0012aef0       _ZN4core3fmt3num52_$LT$impl$u20$core..fmt..LowerHex$u20$for$u20$i8$GT$3fmt17h7671f05bf6b5bf21E 000000014012bef0 f   libcore-16be615c0f945bda:core-16be615c0f945bda.core.4301697966f7db04-cgu.0.rcgu.o
 0001:0012aef0       _ZN4core3fmt3num52_$LT$impl$u20$core..fmt..LowerHex$u20$for$u20$u8$GT$3fmt17h6261f9e57afc927aE 000000014012bef0 f   libcore-16be615c0f945bda:core-16be615c0f945bda.core.4301697966f7db04-cgu.0.rcgu.o
 0001:0012af90       _ZN4core3fmt3num52_$LT$impl$u20$core..fmt..UpperHex$u20$for$u20$i8$GT$3fmt17haae2fba6a09d05aaE 000000014012bf90 f   libcore-16be615c0f945bda:core-16be615c0f945bda.core.4301697966f7db04-cgu.0.rcgu.o
 0001:0012af90       _ZN4core3fmt3num52_$LT$impl$u20$core..fmt..UpperHex$u20$for$u20$u8$GT$3fmt17h1d853535f5abb02dE 000000014012bf90 f   libcore-16be615c0f945bda:core-16be615c0f945bda.core.4301697966f7db04-cgu.0.rcgu.o
 0001:0012b030       _ZN4core3fmt3num53_$LT$impl$u20$core..fmt..LowerHex$u20$for$u20$i16$GT$3fmt17hb852370dde0928a6E 000000014012c030 f   libcore-16be615c0f945bda:core-16be615c0f945bda.core.4301697966f7db04-cgu.0.rcgu.o
 0001:0012b030       _ZN4core3fmt3num53_$LT$impl$u20$core..fmt..LowerHex$u20$for$u20$u16$GT$3fmt17h492d8ba8fadb6621E 000000014012c030 f   libcore-16be615c0f945bda:core-16be615c0f945bda.core.4301697966f7db04-cgu.0.rcgu.o
 0001:0012b0e0       _ZN4core3fmt3num53_$LT$impl$u20$core..fmt..UpperHex$u20$for$u20$i16$GT$3fmt17hc51d58823eaf1527E 000000014012c0e0 f   libcore-16be615c0f945bda:core-16be615c0f945bda.core.4301697966f7db04-cgu.0.rcgu.o
 0001:0012b0e0       _ZN4core3fmt3num53_$LT$impl$u20$core..fmt..UpperHex$u20$for$u20$u16$GT$3fmt17h8c2b995521f8e1caE 000000014012c0e0 f   libcore-16be615c0f945bda:core-16be615c0f945bda.core.4301697966f7db04-cgu.0.rcgu.o
 0001:0012b190       _ZN4core3fmt3num53_$LT$impl$u20$core..fmt..LowerHex$u20$for$u20$i32$GT$3fmt17h7148358fa68bafbdE 000000014012c190 f   libcore-16be615c0f945bda:core-16be615c0f945bda.core.4301697966f7db04-cgu.0.rcgu.o
 0001:0012b190       _ZN4core3fmt3num53_$LT$impl$u20$core..fmt..LowerHex$u20$for$u20$u32$GT$3fmt17h9d563d0f891e303dE 000000014012c190 f   libcore-16be615c0f945bda:core-16be615c0f945bda.core.4301697966f7db04-cgu.0.rcgu.o
 0001:0012b230       _ZN4core3fmt3num53_$LT$impl$u20$core..fmt..UpperHex$u20$for$u20$i32$GT$3fmt17ha75e7ffb1a944827E 000000014012c230 f   libcore-16be615c0f945bda:core-16be615c0f945bda.core.4301697966f7db04-cgu.0.rcgu.o
 0001:0012b230       _ZN4core3fmt3num53_$LT$impl$u20$core..fmt..UpperHex$u20$for$u20$u32$GT$3fmt17h09724932ce7db8e1E 000000014012c230 f   libcore-16be615c0f945bda:core-16be615c0f945bda.core.4301697966f7db04-cgu.0.rcgu.o
 0001:0012b2d0       _ZN4core3fmt3num53_$LT$impl$u20$core..fmt..LowerHex$u20$for$u20$i64$GT$3fmt17h949eabfd23764e74E 000000014012c2d0 f   libcore-16be615c0f945bda:core-16be615c0f945bda.core.4301697966f7db04-cgu.0.rcgu.o
 0001:0012b2d0       _ZN4core3fmt3num53_$LT$impl$u20$core..fmt..LowerHex$u20$for$u20$u64$GT$3fmt17h60c77ca220cc155fE 000000014012c2d0 f   libcore-16be615c0f945bda:core-16be615c0f945bda.core.4301697966f7db04-cgu.0.rcgu.o
 0001:0012b2d0       _ZN4core3fmt3num55_$LT$impl$u20$core..fmt..LowerHex$u20$for$u20$isize$GT$3fmt17hde3ff0e13c4e891bE 000000014012c2d0 f   libcore-16be615c0f945bda:core-16be615c0f945bda.core.4301697966f7db04-cgu.0.rcgu.o
 0001:0012b2d0       _ZN4core3fmt3num55_$LT$impl$u20$core..fmt..LowerHex$u20$for$u20$usize$GT$3fmt17h9cadbefbffd8576cE 000000014012c2d0 f   libcore-16be615c0f945bda:core-16be615c0f945bda.core.4301697966f7db04-cgu.0.rcgu.o
 0001:0012b370       _ZN4core3fmt3num53_$LT$impl$u20$core..fmt..UpperHex$u20$for$u20$i64$GT$3fmt17hd0d79adb7b8d2694E 000000014012c370 f   libcore-16be615c0f945bda:core-16be615c0f945bda.core.4301697966f7db04-cgu.0.rcgu.o
 0001:0012b370       _ZN4core3fmt3num53_$LT$impl$u20$core..fmt..UpperHex$u20$for$u20$u64$GT$3fmt17h0e0a32fb2cfefbf8E 000000014012c370 f   libcore-16be615c0f945bda:core-16be615c0f945bda.core.4301697966f7db04-cgu.0.rcgu.o
 0001:0012b370       _ZN4core3fmt3num55_$LT$impl$u20$core..fmt..UpperHex$u20$for$u20$isize$GT$3fmt17hf21cfa5a9faaf432E 000000014012c370 f   libcore-16be615c0f945bda:core-16be615c0f945bda.core.4301697966f7db04-cgu.0.rcgu.o
 0001:0012b370       _ZN4core3fmt3num55_$LT$impl$u20$core..fmt..UpperHex$u20$for$u20$usize$GT$3fmt17h8ef31e09d3c2ff39E 000000014012c370 f   libcore-16be615c0f945bda:core-16be615c0f945bda.core.4301697966f7db04-cgu.0.rcgu.o
 0001:0012bc50       _ZN4core3fmt3num3imp51_$LT$impl$u20$core..fmt..Display$u20$for$u20$u8$GT$3fmt17h74f33ec5df271eaeE 000000014012cc50 f   libcore-16be615c0f945bda:core-16be615c0f945bda.core.4301697966f7db04-cgu.0.rcgu.o
 0001:0012bcf0       _ZN4core3fmt3num3imp52_$LT$impl$u20$core..fmt..Display$u20$for$u20$u16$GT$3fmt17h0e3ccc2616adb611E 000000014012ccf0 f   libcore-16be615c0f945bda:core-16be615c0f945bda.core.4301697966f7db04-cgu.0.rcgu.o
 0001:0012bdf0       _ZN4core3fmt3num3imp52_$LT$impl$u20$core..fmt..Display$u20$for$u20$i32$GT$3fmt17hf5d67be6a85280b7E 000000014012cdf0 f   libcore-16be615c0f945bda:core-16be615c0f945bda.core.4301697966f7db04-cgu.0.rcgu.o
 0001:0012bf30       _ZN4core3fmt3num3imp52_$LT$impl$u20$core..fmt..Display$u20$for$u20$u32$GT$3fmt17hac8cab66b1efae79E 000000014012cf30 f   libcore-16be615c0f945bda:core-16be615c0f945bda.core.4301697966f7db04-cgu.0.rcgu.o
 0001:0012c050       _ZN4core3fmt3num3imp52_$LT$impl$u20$core..fmt..Display$u20$for$u20$u64$GT$3fmt17h0e8d1f9980f8e2e1E 000000014012d050 f   libcore-16be615c0f945bda:core-16be615c0f945bda.core.4301697966f7db04-cgu.0.rcgu.o
 0001:0012c050       _ZN4core3fmt3num3imp54_$LT$impl$u20$core..fmt..Display$u20$for$u20$usize$GT$3fmt17h85d21d6173dd80cdE 000000014012d050 f   libcore-16be615c0f945bda:core-16be615c0f945bda.core.4301697966f7db04-cgu.0.rcgu.o
 0001:0012c170       _ZN53_$LT$core..fmt..Error$u20$as$u20$core..fmt..Debug$GT$3fmt17hac8735be8cb8d384E 000000014012d170 f   libcore-16be615c0f945bda:core-16be615c0f945bda.core.4301697966f7db04-cgu.0.rcgu.o
 0001:0012c3f0       _ZN64_$LT$core..str..error..Utf8Error$u20$as$u20$core..fmt..Debug$GT$3fmt17he586324d19af2fc0E 000000014012d3f0 f   libcore-16be615c0f945bda:core-16be615c0f945bda.core.4301697966f7db04-cgu.0.rcgu.o
 0001:0012c4e0       _ZN4core7unicode12unicode_data10alphabetic6lookup17h7e3075ee12d4a5a8E 000000014012d4e0 f   libcore-16be615c0f945bda:core-16be615c0f945bda.core.4301697966f7db04-cgu.0.rcgu.o
 0001:0012c640       _ZN4core7unicode12unicode_data2cc6lookup17h52bddef7130d5531E 000000014012d640 f   libcore-16be615c0f945bda:core-16be615c0f945bda.core.4301697966f7db04-cgu.0.rcgu.o
 0001:0012c680       _ZN4core7unicode12unicode_data15grapheme_extend6lookup17h4284b8278d1dffbfE 000000014012d680 f   libcore-16be615c0f945bda:core-16be615c0f945bda.core.4301697966f7db04-cgu.0.rcgu.o
 0001:0012c7e0       _ZN4core7unicode12unicode_data1n6lookup17he5158344c31c3ce6E 000000014012d7e0 f   libcore-16be615c0f945bda:core-16be615c0f945bda.core.4301697966f7db04-cgu.0.rcgu.o
 0001:0012c940       _ZN64_$LT$core..alloc..layout..Layout$u20$as$u20$core..fmt..Debug$GT$3fmt17h3edcc2794ede76a6E 000000014012d940 f   libcore-16be615c0f945bda:core-16be615c0f945bda.core.4301697966f7db04-cgu.0.rcgu.o
 0001:0012ca20       _ZN69_$LT$core..alloc..layout..LayoutError$u20$as$u20$core..fmt..Debug$GT$3fmt17hff7040d0710b7842E 000000014012da20 f   libcore-16be615c0f945bda:core-16be615c0f945bda.core.4301697966f7db04-cgu.0.rcgu.o
 0001:0012ca40       _ZN66_$LT$core..core_arch..x86..__m128i$u20$as$u20$core..fmt..Debug$GT$3fmt17h5dc7089990731f54E 000000014012da40 f   libcore-16be615c0f945bda:core-16be615c0f945bda.core.4301697966f7db04-cgu.0.rcgu.o
 0001:0012ca90       _ZN66_$LT$core..core_arch..x86..__m256i$u20$as$u20$core..fmt..Debug$GT$3fmt17h894e5beba7681e6aE 000000014012da90 f   libcore-16be615c0f945bda:core-16be615c0f945bda.core.4301697966f7db04-cgu.0.rcgu.o
 0001:0012cd60       mainCRTStartup             000000014012dd60 f   msvcrt:exe_main.obj
 0001:0012cd90       __chkstk                   000000014012dd90 f   msvcrt:chkstk.obj
 0001:0012cd90       _alloca_probe              000000014012dd90 f   msvcrt:chkstk.obj
 0001:0012cde0       ??_Etype_info@@UEAAPEAXI@Z 000000014012dde0 f i msvcrt:std_type_info_static.obj
 0001:0012cde0       ??_Gtype_info@@UEAAPEAXI@Z 000000014012dde0 f i msvcrt:std_type_info_static.obj
 0001:0012ce0c       __scrt_acquire_startup_lock 000000014012de0c f   msvcrt:utility.obj
 0001:0012ce48       __scrt_initialize_crt      000000014012de48 f   msvcrt:utility.obj
 0001:0012ce84       __scrt_initialize_onexit_tables 000000014012de84 f   msvcrt:utility.obj
 0001:0012cf10       __scrt_is_nonwritable_in_current_image 000000014012df10 f   msvcrt:utility.obj
 0001:0012cfa8       __scrt_release_startup_lock 000000014012dfa8 f   msvcrt:utility.obj
 0001:0012cfcc       __scrt_uninitialize_crt    000000014012dfcc f   msvcrt:utility.obj
 0001:0012cff8       _onexit                    000000014012dff8 f   msvcrt:utility.obj
 0001:0012d034       atexit                     000000014012e034 f   msvcrt:utility.obj
 0001:0012d04c       __security_init_cookie     000000014012e04c f   msvcrt:gs_support.obj
 0001:0012d0f8       __scrt_exe_initialize_mta  000000014012e0f8 f   msvcrt:utility_desktop.obj
 0001:0012d0f8       __scrt_initialize_winrt    000000014012e0f8 f   msvcrt:utility_desktop.obj
 0001:0012d0f8       __scrt_stub_for_initialize_mta 000000014012e0f8 f   msvcrt:utility_desktop.obj
 0001:0012d0f8       _get_startup_commit_mode   000000014012e0f8 f   msvcrt:commit_mode.obj
 0001:0012d0f8       _get_startup_new_mode      000000014012e0f8 f   msvcrt:new_mode.obj
 0001:0012d0f8       _get_startup_thread_locale_mode 000000014012e0f8 f   msvcrt:thread_locale.obj
 0001:0012d0f8       _matherr                   000000014012e0f8 f   msvcrt:matherr.obj
 0001:0012d0fc       _get_startup_argv_mode     000000014012e0fc f   msvcrt:argv_mode.obj
 0001:0012d104       _get_startup_file_mode     000000014012e104 f   msvcrt:file_mode.obj
 0001:0012d10c       ?__scrt_initialize_type_info@@YAXXZ 000000014012e10c f   msvcrt:tncleanup.obj
 0001:0012d11c       _guard_check_icall_nop     000000014012e11c f   msvcrt:guard_support.obj
 0001:0012d11c       _initialize_denormal_control 000000014012e11c f   msvcrt:denormal_control.obj
 0001:0012d11c       _initialize_invalid_parameter_handler 000000014012e11c f   msvcrt:invalid_parameter_handler.obj
 0001:0012d120       __local_stdio_printf_options 000000014012e120 f i msvcrt:default_local_stdio_options.obj
 0001:0012d128       __local_stdio_scanf_options 000000014012e128 f i msvcrt:default_local_stdio_options.obj
 0001:0012d130       __scrt_initialize_default_local_stdio_options 000000014012e130 f   msvcrt:default_local_stdio_options.obj
 0001:0012d14c       __scrt_is_user_matherr_present 000000014012e14c f   msvcrt:matherr_detection.obj
 0001:0012d158       __scrt_get_dyn_tls_init_callback 000000014012e158 f   msvcrt:dyn_tls_init.obj
 0001:0012d160       __scrt_get_dyn_tls_dtor_callback 000000014012e160 f   msvcrt:dyn_tls_dtor.obj
 0001:0012d168       __crt_debugger_hook        000000014012e168 f   msvcrt:utility_desktop.obj
 0001:0012d170       __scrt_fastfail            000000014012e170 f   msvcrt:utility_desktop.obj
 0001:0012d2b8       __scrt_initialize_mta      000000014012e2b8 f   msvcrt:utility_desktop.obj
 0001:0012d2c0       __scrt_is_managed_app      000000014012e2c0 f   msvcrt:utility_desktop.obj
 0001:0012d314       __scrt_set_unhandled_exception_filter 000000014012e314 f   msvcrt:utility_desktop.obj
 0001:0012d324       __scrt_unhandled_exception_filter 000000014012e324 f   msvcrt:utility_desktop.obj
 0001:0012d380       _RTC_Initialize            000000014012e380 f   msvcrt:initsect.obj
 0001:0012d3bc       _RTC_Terminate             000000014012e3bc f   msvcrt:initsect.obj
 0001:0012d3f8       ??3@YAXPEAX_K@Z            000000014012e3f8 f   msvcrt:delete_scalar_size.obj
 0001:0012d400       __isa_available_init       000000014012e400 f   msvcrt:cpu_disp.obj
 0001:0012d5ac       __scrt_is_ucrt_dll_in_use  000000014012e5ac f   msvcrt:ucrt_detection.obj
 0001:0012d5c0       ??3@YAXPEAX@Z              000000014012e5c0 f   msvcrt:delete_scalar.obj
 0001:0012d5c5       memcpy                     000000014012e5c5 f   vcruntime:VCRUNTIME140.dll
 0001:0012d5cb       __CxxFrameHandler3         000000014012e5cb f   vcruntime:VCRUNTIME140.dll
 0001:0012d5d1       memcmp                     000000014012e5d1 f   vcruntime:VCRUNTIME140.dll
 0001:0012d5d7       memmove                    000000014012e5d7 f   vcruntime:VCRUNTIME140.dll
 0001:0012d5dd       memset                     000000014012e5dd f   vcruntime:VCRUNTIME140.dll
 0001:0012d5e3       _CxxThrowException         000000014012e5e3 f   vcruntime:VCRUNTIME140.dll
 0001:0012d5e9       __C_specific_handler       000000014012e5e9 f   vcruntime:VCRUNTIME140.dll
 0001:0012d5ef       __current_exception        000000014012e5ef f   vcruntime:VCRUNTIME140.dll
 0001:0012d5f5       __current_exception_context 000000014012e5f5 f   vcruntime:VCRUNTIME140.dll
 0001:0012d5fb       _seh_filter_exe            000000014012e5fb f   ucrt:api-ms-win-crt-runtime-l1-1-0.dll
 0001:0012d601       _set_app_type              000000014012e601 f   ucrt:api-ms-win-crt-runtime-l1-1-0.dll
 0001:0012d607       __setusermatherr           000000014012e607 f   ucrt:api-ms-win-crt-math-l1-1-0.dll
 0001:0012d60d       _configure_narrow_argv     000000014012e60d f   ucrt:api-ms-win-crt-runtime-l1-1-0.dll
 0001:0012d613       _initialize_narrow_environment 000000014012e613 f   ucrt:api-ms-win-crt-runtime-l1-1-0.dll
 0001:0012d619       _get_initial_narrow_environment 000000014012e619 f   ucrt:api-ms-win-crt-runtime-l1-1-0.dll
 0001:0012d61f       _initterm                  000000014012e61f f   ucrt:api-ms-win-crt-runtime-l1-1-0.dll
 0001:0012d625       _initterm_e                000000014012e625 f   ucrt:api-ms-win-crt-runtime-l1-1-0.dll
 0001:0012d62b       exit                       000000014012e62b f   ucrt:api-ms-win-crt-runtime-l1-1-0.dll
 0001:0012d631       _exit                      000000014012e631 f   ucrt:api-ms-win-crt-runtime-l1-1-0.dll
 0001:0012d637       _set_fmode                 000000014012e637 f   ucrt:api-ms-win-crt-stdio-l1-1-0.dll
 0001:0012d63d       __p___argc                 000000014012e63d f   ucrt:api-ms-win-crt-runtime-l1-1-0.dll
 0001:0012d643       __p___argv                 000000014012e643 f   ucrt:api-ms-win-crt-runtime-l1-1-0.dll
 0001:0012d649       _cexit                     000000014012e649 f   ucrt:api-ms-win-crt-runtime-l1-1-0.dll
 0001:0012d64f       _c_exit                    000000014012e64f f   ucrt:api-ms-win-crt-runtime-l1-1-0.dll
 0001:0012d655       _register_thread_local_exe_atexit_callback 000000014012e655 f   ucrt:api-ms-win-crt-runtime-l1-1-0.dll
 0001:0012d65b       _configthreadlocale        000000014012e65b f   ucrt:api-ms-win-crt-locale-l1-1-0.dll
 0001:0012d661       _set_new_mode              000000014012e661 f   ucrt:api-ms-win-crt-heap-l1-1-0.dll
 0001:0012d667       __p__commode               000000014012e667 f   ucrt:api-ms-win-crt-stdio-l1-1-0.dll
 0001:0012d66d       _initialize_onexit_table   000000014012e66d f   ucrt:api-ms-win-crt-runtime-l1-1-0.dll
 0001:0012d673       _register_onexit_function  000000014012e673 f   ucrt:api-ms-win-crt-runtime-l1-1-0.dll
 0001:0012d679       _crt_atexit                000000014012e679 f   ucrt:api-ms-win-crt-runtime-l1-1-0.dll
 0001:0012d67f       terminate                  000000014012e67f f   ucrt:api-ms-win-crt-runtime-l1-1-0.dll
 0001:0012d685       free                       000000014012e685 f   ucrt:api-ms-win-crt-heap-l1-1-0.dll
 0001:0012d6a0       _guard_dispatch_icall_nop  000000014012e6a0 f   msvcrt:guard_dispatch.obj
 0001:0012d6c0       _guard_xfg_dispatch_icall_nop 000000014012e6c0 f   msvcrt:guard_xfg_dispatch.obj
 0001:0012d6d0       _ZN5alloc7raw_vec19RawVec$LT$T$C$A$GT$7reserve21do_reserve_and_handle17h329b0f9258b4d43aE 000000014012e6d0 f   libregex_automata-464fc35d41c3d390:regex_automata-464fc35d41c3d390.regex_automata.ab23a1c50add178-cgu.00.rcgu.o
 0001:0012d6d0       _ZN5alloc7raw_vec19RawVec$LT$T$C$A$GT$7reserve21do_reserve_and_handle17h81154b8aa1326a21E 000000014012e6d0 f   libregex_automata-464fc35d41c3d390:regex_automata-464fc35d41c3d390.regex_automata.ab23a1c50add178-cgu.00.rcgu.o
 0001:0012d6d0       _ZN5alloc7raw_vec19RawVec$LT$T$C$A$GT$7reserve21do_reserve_and_handle17h8ceb7ed59ce16619E 000000014012e6d0 f   libregex_automata-464fc35d41c3d390:regex_automata-464fc35d41c3d390.regex_automata.ab23a1c50add178-cgu.00.rcgu.o
 0001:0012d6d0       _ZN5alloc7raw_vec19RawVec$LT$T$C$A$GT$7reserve21do_reserve_and_handle17hab2412678534b370E.llvm.5340089140799553351 000000014012e6d0 f   genealogy.genealogy.21e9e755dfa74b4b-cgu.0.rcgu.o
 0001:0012d6d0       _ZN5alloc7raw_vec19RawVec$LT$T$C$A$GT$7reserve21do_reserve_and_handle17hbf3d2a6d4e39d989E 000000014012e6d0 f   libregex_automata-464fc35d41c3d390:regex_automata-464fc35d41c3d390.regex_automata.ab23a1c50add178-cgu.00.rcgu.o
 0001:0012d7a0       _ZN8smallvec17SmallVec$LT$A$GT$21reserve_one_unchecked17h2099285c2e5459ccE 000000014012e7a0 f   genealogy.genealogy.21e9e755dfa74b4b-cgu.1.rcgu.o
 0001:0012d9f0       _ZN14regex_automata4util4pool5inner17Pool$LT$T$C$F$GT$8get_slow17hd835f97580963fccE 000000014012e9f0 f   libgenealogy-4468c333aa2128b5:genealogy-4468c333aa2128b5.genealogy.75c246340fa38059-cgu.09.rcgu.o
 0001:0012dd70       _ZN9hashbrown3raw21RawTable$LT$T$C$A$GT$14reserve_rehash17h05864ef09c02a8edE.llvm.9864026747483073712 000000014012ed70 f   libgenealogy-4468c333aa2128b5:genealogy-4468c333aa2128b5.genealogy.75c246340fa38059-cgu.02.rcgu.o
 0001:0012e560       _ZN5alloc7raw_vec19RawVec$LT$T$C$A$GT$7reserve21do_reserve_and_handle17haed3e8f39ee2437eE 000000014012f560 f   libgenealogy-4468c333aa2128b5:genealogy-4468c333aa2128b5.genealogy.75c246340fa38059-cgu.01.rcgu.o
 0001:0012e560       _ZN5alloc7raw_vec19RawVec$LT$T$C$A$GT$7reserve21do_reserve_and_handle17hd8d1cd8a538be1b9E 000000014012f560 f   libregex_syntax-1a078ef20d4d7dee:regex_syntax-1a078ef20d4d7dee.regex_syntax.936f5d3813beee8b-cgu.03.rcgu.o
 0001:0012e630       _ZN4core9panicking13assert_failed17hdf90870c83fe34d7E 000000014012f630 f   libgenealogy-4468c333aa2128b5:genealogy-4468c333aa2128b5.genealogy.75c246340fa38059-cgu.08.rcgu.o
 0001:0012e670       _ZN14regex_automata4util4iter8Searcher30handle_overlapping_empty_match17h0def77b86c4bc5c9E 000000014012f670 f   libgenealogy-4468c333aa2128b5:genealogy-4468c333aa2128b5.genealogy.75c246340fa38059-cgu.07.rcgu.o
 0001:0012f480       _ZN4core9panicking13assert_failed17hee52c6cc66eca916E 0000000140130480 f   libregex-0477f9e9a333a0e8:regex-0477f9e9a333a0e8.regex.bdffd6b571ecefc1-cgu.4.rcgu.o
 0001:0012f4c0       _ZN5alloc7raw_vec19RawVec$LT$T$C$A$GT$7reserve21do_reserve_and_handle17h032789d999f17234E 00000001401304c0 f   libregex-0477f9e9a333a0e8:regex-0477f9e9a333a0e8.regex.bdffd6b571ecefc1-cgu.0.rcgu.o
 0001:0012f4c0       _ZN5alloc7raw_vec19RawVec$LT$T$C$A$GT$7reserve21do_reserve_and_handle17h0b992117c49cdae9E 00000001401304c0 f   libregex_automata-464fc35d41c3d390:regex_automata-464fc35d41c3d390.regex_automata.ab23a1c50add178-cgu.00.rcgu.o
 0001:0012f4c0       _ZN5alloc7raw_vec19RawVec$LT$T$C$A$GT$7reserve21do_reserve_and_handle17he88262dd7519f11fE 00000001401304c0 f   libregex_automata-464fc35d41c3d390:regex_automata-464fc35d41c3d390.regex_automata.ab23a1c50add178-cgu.00.rcgu.o
 0001:0012f590       _ZN5alloc7raw_vec19RawVec$LT$T$C$A$GT$7reserve21do_reserve_and_handle17h5b9c3cb3fc02c444E 0000000140130590 f   libregex_syntax-1a078ef20d4d7dee:regex_syntax-1a078ef20d4d7dee.regex_syntax.936f5d3813beee8b-cgu.03.rcgu.o
 0001:0012f590       _ZN5alloc7raw_vec19RawVec$LT$T$C$A$GT$7reserve21do_reserve_and_handle17h5eddc773a31c996dE 0000000140130590 f   libregex_automata-464fc35d41c3d390:regex_automata-464fc35d41c3d390.regex_automata.ab23a1c50add178-cgu.00.rcgu.o
 0001:0012f590       _ZN5alloc7raw_vec19RawVec$LT$T$C$A$GT$7reserve21do_reserve_and_handle17hbfa94b2860c63887E 0000000140130590 f   libregex-0477f9e9a333a0e8:regex-0477f9e9a333a0e8.regex.bdffd6b571ecefc1-cgu.0.rcgu.o
 0001:0012f650       _ZN14regex_automata4util5empty15skip_splits_fwd17h04001f37d9ade023E 0000000140130650 f   libregex_automata-464fc35d41c3d390:regex_automata-464fc35d41c3d390.regex_automata.ab23a1c50add178-cgu.15.rcgu.o
 0001:0012f880       _ZN14regex_automata4util5empty15skip_splits_fwd17hb7a52b271df90cf5E 0000000140130880 f   libregex_automata-464fc35d41c3d390:regex_automata-464fc35d41c3d390.regex_automata.ab23a1c50add178-cgu.15.rcgu.o
 0001:0012faa0       _ZN14regex_automata4util5empty15skip_splits_fwd17hfba2ade9cf90557cE 0000000140130aa0 f   libregex_automata-464fc35d41c3d390:regex_automata-464fc35d41c3d390.regex_automata.ab23a1c50add178-cgu.15.rcgu.o
 0001:0012fcc0       _ZN14regex_automata4util5empty15skip_splits_rev17h1690af51e5139834E 0000000140130cc0 f   libregex_automata-464fc35d41c3d390:regex_automata-464fc35d41c3d390.regex_automata.ab23a1c50add178-cgu.15.rcgu.o
 0001:0012fed0       _ZN9hashbrown3raw21RawTable$LT$T$C$A$GT$14reserve_rehash17h2e86ebf42b5a0d70E.llvm.8640288705726485972 0000000140130ed0 f   libregex_automata-464fc35d41c3d390:regex_automata-464fc35d41c3d390.regex_automata.ab23a1c50add178-cgu.06.rcgu.o
 0001:001306c0       _ZN9hashbrown3raw21RawTable$LT$T$C$A$GT$14reserve_rehash17hf5f2948c51d49a2eE.llvm.8640288705726485972 00000001401316c0 f   libregex_automata-464fc35d41c3d390:regex_automata-464fc35d41c3d390.regex_automata.ab23a1c50add178-cgu.06.rcgu.o
 0001:00130eb0       _ZN14regex_automata6hybrid3dfa4Lazy16cache_next_state17h1700b0ff5388f371E 0000000140131eb0 f   libregex_automata-464fc35d41c3d390:regex_automata-464fc35d41c3d390.regex_automata.ab23a1c50add178-cgu.06.rcgu.o
 0001:00131b60       _ZN14regex_automata6hybrid3dfa4Lazy17cache_start_group17h0fedbd3b2f281c7eE 0000000140132b60 f   libregex_automata-464fc35d41c3d390:regex_automata-464fc35d41c3d390.regex_automata.ab23a1c50add178-cgu.06.rcgu.o
 0001:00132820       _ZN14regex_automata6hybrid3dfa34skip_empty_utf8_splits_overlapping17h111f0e68df823479E 0000000140133820 f   libregex_automata-464fc35d41c3d390:regex_automata-464fc35d41c3d390.regex_automata.ab23a1c50add178-cgu.06.rcgu.o
 0001:001328e0       _ZN5alloc7raw_vec19RawVec$LT$T$C$A$GT$7reserve21do_reserve_and_handle17h00dcb5d821510be3E 00000001401338e0 f   libregex_automata-464fc35d41c3d390:regex_automata-464fc35d41c3d390.regex_automata.ab23a1c50add178-cgu.00.rcgu.o
 0001:001328e0       _ZN5alloc7raw_vec19RawVec$LT$T$C$A$GT$7reserve21do_reserve_and_handle17he25bf20e6f755fe0E 00000001401338e0 f   libregex_automata-464fc35d41c3d390:regex_automata-464fc35d41c3d390.regex_automata.ab23a1c50add178-cgu.00.rcgu.o
 0001:001328e0       _ZN5alloc7raw_vec19RawVec$LT$T$C$A$GT$7reserve21do_reserve_and_handle17hea71ce04493e19b8E 00000001401338e0 f   libregex_syntax-1a078ef20d4d7dee:regex_syntax-1a078ef20d4d7dee.regex_syntax.936f5d3813beee8b-cgu.03.rcgu.o
 0001:001329b0       _ZN5alloc7raw_vec19RawVec$LT$T$C$A$GT$7reserve21do_reserve_and_handle17h1f03f279324c0149E 00000001401339b0 f   libregex_automata-464fc35d41c3d390:regex_automata-464fc35d41c3d390.regex_automata.ab23a1c50add178-cgu.00.rcgu.o
 0001:001329b0       _ZN5alloc7raw_vec19RawVec$LT$T$C$A$GT$7reserve21do_reserve_and_handle17ha2f0eba006d428b7E 00000001401339b0 f   libregex_automata-464fc35d41c3d390:regex_automata-464fc35d41c3d390.regex_automata.ab23a1c50add178-cgu.00.rcgu.o
 0001:001329b0       _ZN5alloc7raw_vec19RawVec$LT$T$C$A$GT$7reserve21do_reserve_and_handle17hc35c755a6609a36dE 00000001401339b0 f   libaho_corasick-b4d6ea81f1a61526:aho_corasick-b4d6ea81f1a61526.aho_corasick.7f4fbca99e96e6a8-cgu.02.rcgu.o
 0001:001329b0       _ZN5alloc7raw_vec19RawVec$LT$T$C$A$GT$7reserve21do_reserve_and_handle17hf59df42d04a0d257E 00000001401339b0 f   libaho_corasick-b4d6ea81f1a61526:aho_corasick-b4d6ea81f1a61526.aho_corasick.7f4fbca99e96e6a8-cgu.02.rcgu.o
 0001:00132a80       _ZN5alloc7raw_vec19RawVec$LT$T$C$A$GT$7reserve21do_reserve_and_handle17h5dad69a375db7ffcE 0000000140133a80 f   libregex_automata-464fc35d41c3d390:regex_automata-464fc35d41c3d390.regex_automata.ab23a1c50add178-cgu.00.rcgu.o
 0001:00132a80       _ZN5alloc7raw_vec19RawVec$LT$T$C$A$GT$7reserve21do_reserve_and_handle17hbc1d4aa4c116d03bE 0000000140133a80 f   libregex_syntax-1a078ef20d4d7dee:regex_syntax-1a078ef20d4d7dee.regex_syntax.936f5d3813beee8b-cgu.03.rcgu.o
 0001:00132a80       _ZN5alloc7raw_vec19RawVec$LT$T$C$A$GT$7reserve21do_reserve_and_handle17hc9ffba890dff1c5bE 0000000140133a80 f   libregex_automata-464fc35d41c3d390:regex_automata-464fc35d41c3d390.regex_automata.ab23a1c50add178-cgu.00.rcgu.o
 0001:00132a80       _ZN5alloc7raw_vec19RawVec$LT$T$C$A$GT$7reserve21do_reserve_and_handle17hd7039b6016b73772E 0000000140133a80 f   libregex_syntax-1a078ef20d4d7dee:regex_syntax-1a078ef20d4d7dee.regex_syntax.936f5d3813beee8b-cgu.03.rcgu.o
 0001:00132b40       _ZN5alloc7raw_vec19RawVec$LT$T$C$A$GT$7reserve21do_reserve_and_handle17h5ee2c87842c6fcc5E 0000000140133b40 f   libregex_syntax-1a078ef20d4d7dee:regex_syntax-1a078ef20d4d7dee.regex_syntax.936f5d3813beee8b-cgu.03.rcgu.o
 0001:00132b40       _ZN5alloc7raw_vec19RawVec$LT$T$C$A$GT$7reserve21do_reserve_and_handle17hfd9bba14928ca453E 0000000140133b40 f   libregex_automata-464fc35d41c3d390:regex_automata-464fc35d41c3d390.regex_automata.ab23a1c50add178-cgu.00.rcgu.o
 0001:00132b40       _ZN5alloc7raw_vec19RawVec$LT$T$C$A$GT$7reserve21do_reserve_and_handle17hfdc25c9a0d57e71bE 0000000140133b40 f   libregex_automata-464fc35d41c3d390:regex_automata-464fc35d41c3d390.regex_automata.ab23a1c50add178-cgu.00.rcgu.o
 0001:00132c00       _ZN4core9panicking13assert_failed17h9902c6f9142271dcE 0000000140133c00 f   libregex_automata-464fc35d41c3d390:regex_automata-464fc35d41c3d390.regex_automata.ab23a1c50add178-cgu.13.rcgu.o
 0001:00132c40       _ZN4core9panicking13assert_failed17hb90b35d37809f692E 0000000140133c40 f   libregex_automata-464fc35d41c3d390:regex_automata-464fc35d41c3d390.regex_automata.ab23a1c50add178-cgu.13.rcgu.o
 0001:00132c80       _ZN4core9panicking13assert_failed17hdd82ae42998b9df8E 0000000140133c80 f   libregex_automata-464fc35d41c3d390:regex_automata-464fc35d41c3d390.regex_automata.ab23a1c50add178-cgu.13.rcgu.o
 0001:00132eb0       _ZN4core9panicking13assert_failed17h3a5e3839040cb264E 0000000140133eb0 f   libaho_corasick-b4d6ea81f1a61526:aho_corasick-b4d6ea81f1a61526.aho_corasick.7f4fbca99e96e6a8-cgu.08.rcgu.o
 0001:00132ef0       _ZN4core9panicking13assert_failed17h46cc585800b9712eE 0000000140133ef0 f   libaho_corasick-b4d6ea81f1a61526:aho_corasick-b4d6ea81f1a61526.aho_corasick.7f4fbca99e96e6a8-cgu.08.rcgu.o
 0001:00132f30       _ZN4core9panicking13assert_failed17h56edeb837ae95b5dE 0000000140133f30 f   libaho_corasick-b4d6ea81f1a61526:aho_corasick-b4d6ea81f1a61526.aho_corasick.7f4fbca99e96e6a8-cgu.08.rcgu.o
 0001:00132f70       _ZN4core9panicking13assert_failed17hf8f51be731a7abf4E 0000000140133f70 f   libaho_corasick-b4d6ea81f1a61526:aho_corasick-b4d6ea81f1a61526.aho_corasick.7f4fbca99e96e6a8-cgu.08.rcgu.o
 0001:00132fb0       _ZN6memchr4arch3all9rabinkarp12is_equal_raw17h203dc15ee1b8c9abE 0000000140133fb0 f   libmemchr-b8eb2490671cc383:memchr-b8eb2490671cc383.memchr.604f8ec62383ffd8-cgu.3.rcgu.o
 0001:00133080       _ZN5alloc7raw_vec19RawVec$LT$T$C$A$GT$7reserve21do_reserve_and_handle17h31a104c38928e226E 0000000140134080 f   libregex_syntax-1a078ef20d4d7dee:regex_syntax-1a078ef20d4d7dee.regex_syntax.936f5d3813beee8b-cgu.03.rcgu.o
 0001:00133150       _ZN5alloc7raw_vec19RawVec$LT$T$C$A$GT$7reserve21do_reserve_and_handle17h38480872ac2d043fE 0000000140134150 f   libregex_syntax-1a078ef20d4d7dee:regex_syntax-1a078ef20d4d7dee.regex_syntax.936f5d3813beee8b-cgu.03.rcgu.o
 0001:00133210       _ZN5alloc7raw_vec19RawVec$LT$T$C$A$GT$7reserve21do_reserve_and_handle17h9f7bc142348fb7daE 0000000140134210 f   libregex_syntax-1a078ef20d4d7dee:regex_syntax-1a078ef20d4d7dee.regex_syntax.936f5d3813beee8b-cgu.03.rcgu.o
 0001:001332e0       _ZN4core9panicking13assert_failed17h5100a39adff3149bE 00000001401342e0 f   libregex_syntax-1a078ef20d4d7dee:regex_syntax-1a078ef20d4d7dee.regex_syntax.936f5d3813beee8b-cgu.10.rcgu.o
 0001:00133320       _ZN4core9panicking13assert_failed17h679451275b55c3b4E 0000000140134320 f   libregex_syntax-1a078ef20d4d7dee:regex_syntax-1a078ef20d4d7dee.regex_syntax.936f5d3813beee8b-cgu.10.rcgu.o
 0001:00133360       _ZN4core9panicking13assert_failed17ha8f3bf90f6d6ecfcE 0000000140134360 f   libregex_syntax-1a078ef20d4d7dee:regex_syntax-1a078ef20d4d7dee.regex_syntax.936f5d3813beee8b-cgu.10.rcgu.o
 0001:00133860       _ZN3std9panicking11panic_count17is_zero_slow_path17hedde2819f8285f70E 0000000140134860 f   libstd-4ee9ee8805e6ac55:std-4ee9ee8805e6ac55.std.ddad90bab7781587-cgu.0.rcgu.o
 0001:00133880       _ZN3std9panicking3try7cleanup17h525b71f6d9b60d03E 0000000140134880 f   libstd-4ee9ee8805e6ac55:std-4ee9ee8805e6ac55.std.ddad90bab7781587-cgu.0.rcgu.o
 0001:001338d0       _ZN3std10sys_common4once5queue4Once4call17h7d1a818e005e0261E 00000001401348d0 f   libstd-4ee9ee8805e6ac55:std-4ee9ee8805e6ac55.std.ddad90bab7781587-cgu.0.rcgu.o
 0001:00133f00       _ZN10std_detect6detect5cache21detect_and_initialize17h61d27f288cbdf40bE 0000000140134f00 f   libstd_detect-dc5e694480c92f7d:std_detect-dc5e694480c92f7d.std_detect.1d9eb5fc06520a33-cgu.0.rcgu.o
 0001:00134400       _ZN5alloc5alloc18handle_alloc_error17hc2a27cf02b78cb9bE 0000000140135400 f   liballoc-a743693af38ef10c:alloc-a743693af38ef10c.alloc.42c67cf0bd15423-cgu.0.rcgu.o
 0001:00134410       _ZN5alloc3vec16Vec$LT$T$C$A$GT$6insert13assert_failed17h0590bdcb2972e7f0E 0000000140135410 f   liballoc-a743693af38ef10c:alloc-a743693af38ef10c.alloc.42c67cf0bd15423-cgu.0.rcgu.o
 0001:00134490       _ZN5alloc3vec16Vec$LT$T$C$A$GT$9split_off13assert_failed17h56539e474706ec04E 0000000140135490 f   liballoc-a743693af38ef10c:alloc-a743693af38ef10c.alloc.42c67cf0bd15423-cgu.0.rcgu.o
 0001:00134510       _ZN4core4cell22panic_already_borrowed17h7e187871319d5afaE 0000000140135510 f   libcore-16be615c0f945bda:core-16be615c0f945bda.core.4301697966f7db04-cgu.0.rcgu.o
 0001:00134570       _ZN4core4cell30panic_already_mutably_borrowed17hb9451f0021825875E 0000000140135570 f   libcore-16be615c0f945bda:core-16be615c0f945bda.core.4301697966f7db04-cgu.0.rcgu.o
 0001:001345d0       _ZN4core6option13expect_failed17h55cf9a1f6203362dE 00000001401355d0 f   libcore-16be615c0f945bda:core-16be615c0f945bda.core.4301697966f7db04-cgu.0.rcgu.o
 0001:00134640       _ZN4core9panicking9panic_fmt17hf9ca4b93f563e888E 0000000140135640 f   libcore-16be615c0f945bda:core-16be615c0f945bda.core.4301697966f7db04-cgu.0.rcgu.o
 0001:00134680       _ZN4core9panicking18panic_nounwind_fmt17hedb96c2599f83503E 0000000140135680 f   libcore-16be615c0f945bda:core-16be615c0f945bda.core.4301697966f7db04-cgu.0.rcgu.o
 0001:001346f0       _ZN4core9panicking5panic17h7a2b4c81188bdcc6E 00000001401356f0 f   libcore-16be615c0f945bda:core-16be615c0f945bda.core.4301697966f7db04-cgu.0.rcgu.o
 0001:00134740       _ZN4core9panicking14panic_nounwind17hd69b7b6fa195fc82E 0000000140135740 f   libcore-16be615c0f945bda:core-16be615c0f945bda.core.4301697966f7db04-cgu.0.rcgu.o
 0001:00134790       _ZN4core9panicking18panic_bounds_check17ha1337df4bcd00f2dE 0000000140135790 f   libcore-16be615c0f945bda:core-16be615c0f945bda.core.4301697966f7db04-cgu.0.rcgu.o
 0001:00134810       _ZN4core9panicking19panic_cannot_unwind17h7ba755edaa0d5d4eE 0000000140135810 f   libcore-16be615c0f945bda:core-16be615c0f945bda.core.4301697966f7db04-cgu.0.rcgu.o
 0001:00134870       _ZN4core9panicking19assert_failed_inner17h37a3c8f8f5660351E 0000000140135870 f   libcore-16be615c0f945bda:core-16be615c0f945bda.core.4301697966f7db04-cgu.0.rcgu.o
 0001:00134a60       _ZN4core6result13unwrap_failed17h884727b744292a11E 0000000140135a60 f   libcore-16be615c0f945bda:core-16be615c0f945bda.core.4301697966f7db04-cgu.0.rcgu.o
 0001:00134b00       _ZN4core5slice5index26slice_start_index_len_fail17hed73095e7d15564cE 0000000140135b00 f   libcore-16be615c0f945bda:core-16be615c0f945bda.core.4301697966f7db04-cgu.0.rcgu.o
 0001:00134b80       _ZN4core5slice5index24slice_end_index_len_fail17h61bfdcddcc435fb5E 0000000140135b80 f   libcore-16be615c0f945bda:core-16be615c0f945bda.core.4301697966f7db04-cgu.0.rcgu.o
 0001:00134c00       _ZN4core5slice5index22slice_index_order_fail17h3c355be11f45b9cdE 0000000140135c00 f   libcore-16be615c0f945bda:core-16be615c0f945bda.core.4301697966f7db04-cgu.0.rcgu.o
 0001:00134c80       _ZN4core5slice29_$LT$impl$u20$$u5b$T$u5d$$GT$15copy_from_slice17len_mismatch_fail17h526a879e374b07cdE 0000000140135c80 f   libcore-16be615c0f945bda:core-16be615c0f945bda.core.4301697966f7db04-cgu.0.rcgu.o
 0001:00134d00       _ZN4core3str6traits23str_index_overflow_fail17hb642fc6326ef2eeeE 0000000140135d00 f   libcore-16be615c0f945bda:core-16be615c0f945bda.core.4301697966f7db04-cgu.0.rcgu.o
 0001:00134d40       _ZN4core3str16slice_error_fail17ha4e68af9f328b82cE 0000000140135d40 f   libcore-16be615c0f945bda:core-16be615c0f945bda.core.4301697966f7db04-cgu.0.rcgu.o
 0002:00000000       __imp_SystemFunction036    0000000140136000     advapi32:ADVAPI32.dll
 0002:00000008       \177ADVAPI32_NULL_THUNK_DATA 0000000140136008     advapi32:ADVAPI32.dll
 0002:00000010       __imp_ReleaseMutex         0000000140136010     kernel32:KERNEL32.dll
 0002:00000018       __imp_ReleaseSRWLockShared 0000000140136018     kernel32:KERNEL32.dll
 0002:00000020       __imp_GetLastError         0000000140136020     kernel32:KERNEL32.dll
 0002:00000028       __imp_AddVectoredExceptionHandler 0000000140136028     kernel32:KERNEL32.dll
 0002:00000030       __imp_SetThreadStackGuarantee 0000000140136030     kernel32:KERNEL32.dll
 0002:00000038       __imp_QueryPerformanceCounter 0000000140136038     kernel32:KERNEL32.dll
 0002:00000040       __imp_AcquireSRWLockExclusive 0000000140136040     kernel32:KERNEL32.dll
 0002:00000048       __imp_GetCurrentProcess    0000000140136048     kernel32:KERNEL32.dll
 0002:00000050       __imp_GetCurrentThread     0000000140136050     kernel32:KERNEL32.dll
 0002:00000058       __imp_RtlCaptureContext    0000000140136058     kernel32:KERNEL32.dll
 0002:00000060       __imp_GetProcAddress       0000000140136060     kernel32:KERNEL32.dll
 0002:00000068       __imp_RtlLookupFunctionEntry 0000000140136068     kernel32:KERNEL32.dll
 0002:00000070       __imp_SetLastError         0000000140136070     kernel32:KERNEL32.dll
 0002:00000078       __imp_GetCurrentDirectoryW 0000000140136078     kernel32:KERNEL32.dll
 0002:00000080       __imp_GetEnvironmentVariableW 0000000140136080     kernel32:KERNEL32.dll
 0002:00000088       __imp_GetStdHandle         0000000140136088     kernel32:KERNEL32.dll
 0002:00000090       __imp_GetCurrentProcessId  0000000140136090     kernel32:KERNEL32.dll
 0002:00000098       __imp_WaitForSingleObject  0000000140136098     kernel32:KERNEL32.dll
 0002:000000a0       __imp_HeapAlloc            00000001401360a0     kernel32:KERNEL32.dll
 0002:000000a8       __imp_GetProcessHeap       00000001401360a8     kernel32:KERNEL32.dll
 0002:000000b0       __imp_HeapFree             00000001401360b0     kernel32:KERNEL32.dll
 0002:000000b8       __imp_CloseHandle          00000001401360b8     kernel32:KERNEL32.dll
 0002:000000c0       __imp_AcquireSRWLockShared 00000001401360c0     kernel32:KERNEL32.dll
 0002:000000c8       __imp_WaitForSingleObjectEx 00000001401360c8     kernel32:KERNEL32.dll
 0002:000000d0       __imp_LoadLibraryA         00000001401360d0     kernel32:KERNEL32.dll
 0002:000000d8       __imp_CreateMutexA         00000001401360d8     kernel32:KERNEL32.dll
 0002:000000e0       __imp_GetModuleHandleA     00000001401360e0     kernel32:KERNEL32.dll
 0002:000000e8       __imp_CreateFileW          00000001401360e8     kernel32:KERNEL32.dll
 0002:000000f0       __imp_GetFileInformationByHandle 00000001401360f0     kernel32:KERNEL32.dll
 0002:000000f8       __imp_GetFileInformationByHandleEx 00000001401360f8     kernel32:KERNEL32.dll
 0002:00000100       __imp_GetConsoleMode       0000000140136100     kernel32:KERNEL32.dll
 0002:00000108       __imp_GetModuleHandleW     0000000140136108     kernel32:KERNEL32.dll
 0002:00000110       __imp_FormatMessageW       0000000140136110     kernel32:KERNEL32.dll
 0002:00000118       __imp_GetFullPathNameW     0000000140136118     kernel32:KERNEL32.dll
 0002:00000120       __imp_MultiByteToWideChar  0000000140136120     kernel32:KERNEL32.dll
 0002:00000128       __imp_WriteConsoleW        0000000140136128     kernel32:KERNEL32.dll
 0002:00000130       __imp_GetSystemTimeAsFileTime 0000000140136130     kernel32:KERNEL32.dll
 0002:00000138       __imp_TryAcquireSRWLockExclusive 0000000140136138     kernel32:KERNEL32.dll
 0002:00000140       __imp_HeapReAlloc          0000000140136140     kernel32:KERNEL32.dll
 0002:00000148       __imp_ReleaseSRWLockExclusive 0000000140136148     kernel32:KERNEL32.dll
 0002:00000150       __imp_SetUnhandledExceptionFilter 0000000140136150     kernel32:KERNEL32.dll
 0002:00000158       __imp_UnhandledExceptionFilter 0000000140136158     kernel32:KERNEL32.dll
 0002:00000160       __imp_IsDebuggerPresent    0000000140136160     kernel32:KERNEL32.dll
 0002:00000168       __imp_RtlVirtualUnwind     0000000140136168     kernel32:KERNEL32.dll
 0002:00000170       __imp_InitializeSListHead  0000000140136170     kernel32:KERNEL32.dll
 0002:00000178       __imp_GetCurrentThreadId   0000000140136178     kernel32:KERNEL32.dll
 0002:00000180       __imp_IsProcessorFeaturePresent 0000000140136180     kernel32:KERNEL32.dll
 0002:00000188       \177KERNEL32_NULL_THUNK_DATA 0000000140136188     kernel32:KERNEL32.dll
 0002:00000190       __imp___current_exception_context 0000000140136190     vcruntime:VCRUNTIME140.dll
 0002:00000198       __imp___current_exception  0000000140136198     vcruntime:VCRUNTIME140.dll
 0002:000001a0       __imp___C_specific_handler 00000001401361a0     vcruntime:VCRUNTIME140.dll
 0002:000001a8       __imp__CxxThrowException   00000001401361a8     vcruntime:VCRUNTIME140.dll
 0002:000001b0       __imp_memset               00000001401361b0     vcruntime:VCRUNTIME140.dll
 0002:000001b8       __imp_memmove              00000001401361b8     vcruntime:VCRUNTIME140.dll
 0002:000001c0       __imp_memcmp               00000001401361c0     vcruntime:VCRUNTIME140.dll
 0002:000001c8       __imp___CxxFrameHandler3   00000001401361c8     vcruntime:VCRUNTIME140.dll
 0002:000001d0       __imp_memcpy               00000001401361d0     vcruntime:VCRUNTIME140.dll
 0002:000001d8       \177VCRUNTIME140_NULL_THUNK_DATA 00000001401361d8     vcruntime:VCRUNTIME140.dll
 0002:000001e0       __imp_free                 00000001401361e0     ucrt:api-ms-win-crt-heap-l1-1-0.dll
 0002:000001e8       __imp__set_new_mode        00000001401361e8     ucrt:api-ms-win-crt-heap-l1-1-0.dll
 0002:000001f0       \177api-ms-win-crt-heap-l1-1-0_NULL_THUNK_DATA 00000001401361f0     ucrt:api-ms-win-crt-heap-l1-1-0.dll
 0002:000001f8       __imp__configthreadlocale  00000001401361f8     ucrt:api-ms-win-crt-locale-l1-1-0.dll
 0002:00000200       \177api-ms-win-crt-locale-l1-1-0_NULL_THUNK_DATA 0000000140136200     ucrt:api-ms-win-crt-locale-l1-1-0.dll
 0002:00000208       __imp___setusermatherr     0000000140136208     ucrt:api-ms-win-crt-math-l1-1-0.dll
 0002:00000210       \177api-ms-win-crt-math-l1-1-0_NULL_THUNK_DATA 0000000140136210     ucrt:api-ms-win-crt-math-l1-1-0.dll
 0002:00000218       __imp__initterm_e          0000000140136218     ucrt:api-ms-win-crt-runtime-l1-1-0.dll
 0002:00000220       __imp_exit                 0000000140136220     ucrt:api-ms-win-crt-runtime-l1-1-0.dll
 0002:00000228       __imp__exit                0000000140136228     ucrt:api-ms-win-crt-runtime-l1-1-0.dll
 0002:00000230       __imp__initterm            0000000140136230     ucrt:api-ms-win-crt-runtime-l1-1-0.dll
 0002:00000238       __imp___p___argc           0000000140136238     ucrt:api-ms-win-crt-runtime-l1-1-0.dll
 0002:00000240       __imp___p___argv           0000000140136240     ucrt:api-ms-win-crt-runtime-l1-1-0.dll
 0002:00000248       __imp__cexit               0000000140136248     ucrt:api-ms-win-crt-runtime-l1-1-0.dll
 0002:00000250       __imp__c_exit              0000000140136250     ucrt:api-ms-win-crt-runtime-l1-1-0.dll
 0002:00000258       __imp__register_thread_local_exe_atexit_callback 0000000140136258     ucrt:api-ms-win-crt-runtime-l1-1-0.dll
 0002:00000260       __imp__get_initial_narrow_environment 0000000140136260     ucrt:api-ms-win-crt-runtime-l1-1-0.dll
 0002:00000268       __imp__initialize_narrow_environment 0000000140136268     ucrt:api-ms-win-crt-runtime-l1-1-0.dll
 0002:00000270       __imp__configure_narrow_argv 0000000140136270     ucrt:api-ms-win-crt-runtime-l1-1-0.dll
 0002:00000278       __imp__initialize_onexit_table 0000000140136278     ucrt:api-ms-win-crt-runtime-l1-1-0.dll
 0002:00000280       __imp__register_onexit_function 0000000140136280     ucrt:api-ms-win-crt-runtime-l1-1-0.dll
 0002:00000288       __imp__crt_atexit          0000000140136288     ucrt:api-ms-win-crt-runtime-l1-1-0.dll
 0002:00000290       __imp_terminate            0000000140136290     ucrt:api-ms-win-crt-runtime-l1-1-0.dll
 0002:00000298       __imp__set_app_type        0000000140136298     ucrt:api-ms-win-crt-runtime-l1-1-0.dll
 0002:000002a0       __imp__seh_filter_exe      00000001401362a0     ucrt:api-ms-win-crt-runtime-l1-1-0.dll
 0002:000002a8       \177api-ms-win-crt-runtime-l1-1-0_NULL_THUNK_DATA 00000001401362a8     ucrt:api-ms-win-crt-runtime-l1-1-0.dll
 0002:000002b0       __imp___p__commode         00000001401362b0     ucrt:api-ms-win-crt-stdio-l1-1-0.dll
 0002:000002b8       __imp__set_fmode           00000001401362b8     ucrt:api-ms-win-crt-stdio-l1-1-0.dll
 0002:000002c0       \177api-ms-win-crt-stdio-l1-1-0_NULL_THUNK_DATA 00000001401362c0     ucrt:api-ms-win-crt-stdio-l1-1-0.dll
 0002:000002c8       __imp_BCryptGenRandom      00000001401362c8     bcrypt:bcrypt.dll
 0002:000002d0       \177bcrypt_NULL_THUNK_DATA 00000001401362d0     bcrypt:bcrypt.dll
 0002:000002d8       __imp_RtlNtStatusToDosError 00000001401362d8     ntdll:ntdll.dll
 0002:000002e0       __imp_NtReadFile           00000001401362e0     ntdll:ntdll.dll
 0002:000002e8       __imp_NtWriteFile          00000001401362e8     ntdll:ntdll.dll
 0002:000002f0       \177ntdll_NULL_THUNK_DATA  00000001401362f0     ntdll:ntdll.dll
 0002:000002f8       __guard_check_icall_fptr   00000001401362f8     msvcrt:guard_support.obj
 0002:00000300       __guard_xfg_check_icall_fptr 0000000140136300     msvcrt:guard_support.obj
 0002:00000308       __guard_dispatch_icall_fptr 0000000140136308     msvcrt:guard_support.obj
 0002:00000310       __guard_xfg_dispatch_icall_fptr 0000000140136310     msvcrt:guard_support.obj
 0002:00000318       __guard_xfg_table_dispatch_icall_fptr 0000000140136318     msvcrt:guard_support.obj
 0002:00000320       __castguard_check_failure_os_handled_fptr 0000000140136320     msvcrt:guard_support.obj
 0002:00000328       __guard_memcpy_fptr        0000000140136328     vcruntime:softmemtag.obj
 0002:00000330       __xc_a                     0000000140136330     msvcrt:initializers.obj
 0002:00000340       _ZN3std3sys7windows6compat16INIT_TABLE_ENTRY17ha0b320f085af16b4E 0000000140136340     libstd-4ee9ee8805e6ac55:std-4ee9ee8805e6ac55.std.ddad90bab7781587-cgu.0.rcgu.o
 0002:00000348       __xc_z                     0000000140136348     msvcrt:initializers.obj
 0002:00000350       __xi_a                     0000000140136350     msvcrt:initializers.obj
 0002:00000368       __xi_z                     0000000140136368     msvcrt:initializers.obj
 0002:00000370       __xl_a                     0000000140136370     msvcrt:tlssup.obj
 0002:00000378       _ZN3std3sys7windows16thread_local_key17p_thread_callback17h1e4da70523c8559dE 0000000140136378     libstd-4ee9ee8805e6ac55:std-4ee9ee8805e6ac55.std.ddad90bab7781587-cgu.0.rcgu.o
 0002:00000380       __xl_z                     0000000140136380     msvcrt:tlssup.obj
 0002:00000388       __xp_a                     0000000140136388     msvcrt:initializers.obj
 0002:00000390       __xp_z                     0000000140136390     msvcrt:initializers.obj
 0002:00000398       __xt_a                     0000000140136398     msvcrt:initializers.obj
 0002:000003a0       __xt_z                     00000001401363a0     msvcrt:initializers.obj
 0002:000003c0       anon.695896f695c74c4edb1c9c24b025e680.0.llvm.5340089140799553351 00000001401363c0     genealogy.genealogy.21e9e755dfa74b4b-cgu.0.rcgu.o
 0002:000010d7       anon.7fa29285d0f1edd1f40cb055896f1eef.0.llvm.11350392118606471501 00000001401370d7     libgenealogy-4468c333aa2128b5:genealogy-4468c333aa2128b5.genealogy.75c246340fa38059-cgu.09.rcgu.o
 0002:00001199       anon.7fa29285d0f1edd1f40cb055896f1eef.2.llvm.11350392118606471501 0000000140137199     libgenealogy-4468c333aa2128b5:genealogy-4468c333aa2128b5.genealogy.75c246340fa38059-cgu.09.rcgu.o
 0002:000011c8       anon.7fa29285d0f1edd1f40cb055896f1eef.3.llvm.11350392118606471501 00000001401371c8     libgenealogy-4468c333aa2128b5:genealogy-4468c333aa2128b5.genealogy.75c246340fa38059-cgu.09.rcgu.o
 0002:000011d8       anon.7fa29285d0f1edd1f40cb055896f1eef.4.llvm.11350392118606471501 00000001401371d8     libgenealogy-4468c333aa2128b5:genealogy-4468c333aa2128b5.genealogy.75c246340fa38059-cgu.09.rcgu.o
 0002:000011d8       anon.7fa29285d0f1edd1f40cb055896f1eef.5.llvm.11350392118606471501 00000001401371d8     libgenealogy-4468c333aa2128b5:genealogy-4468c333aa2128b5.genealogy.75c246340fa38059-cgu.09.rcgu.o
 0002:000011f0       __xmm@80808080808080808080808080808080 00000001401371f0     libgenealogy-4468c333aa2128b5:genealogy-4468c333aa2128b5.genealogy.75c246340fa38059-cgu.02.rcgu.o
 0002:00001220       anon.d074c12ff08501d0cd6c52a595215906.1.llvm.14477547794709756972 0000000140137220     libgenealogy-4468c333aa2128b5:genealogy-4468c333aa2128b5.genealogy.75c246340fa38059-cgu.08.rcgu.o
 0002:0000124b       anon.d074c12ff08501d0cd6c52a595215906.2.llvm.14477547794709756972 000000014013724b     libgenealogy-4468c333aa2128b5:genealogy-4468c333aa2128b5.genealogy.75c246340fa38059-cgu.08.rcgu.o
 0002:000012b0       anon.d074c12ff08501d0cd6c52a595215906.3.llvm.14477547794709756972 00000001401372b0     libgenealogy-4468c333aa2128b5:genealogy-4468c333aa2128b5.genealogy.75c246340fa38059-cgu.08.rcgu.o
 0002:000012c8       anon.d074c12ff08501d0cd6c52a595215906.4.llvm.14477547794709756972 00000001401372c8     libgenealogy-4468c333aa2128b5:genealogy-4468c333aa2128b5.genealogy.75c246340fa38059-cgu.08.rcgu.o
 0002:00001630       anon.f751f2569c621d27c43219286895374d.24.llvm.13326697792258290709 0000000140137630     libgenealogy-4468c333aa2128b5:genealogy-4468c333aa2128b5.genealogy.75c246340fa38059-cgu.04.rcgu.o
 0002:0000165b       anon.f751f2569c621d27c43219286895374d.25.llvm.13326697792258290709 000000014013765b     libgenealogy-4468c333aa2128b5:genealogy-4468c333aa2128b5.genealogy.75c246340fa38059-cgu.04.rcgu.o
 0002:00001710       anon.f751f2569c621d27c43219286895374d.35.llvm.13326697792258290709 0000000140137710     libgenealogy-4468c333aa2128b5:genealogy-4468c333aa2128b5.genealogy.75c246340fa38059-cgu.04.rcgu.o
 0002:00001920       __xmm@6c7967656e657261736f6d6570736575 0000000140137920     libgenealogy-4468c333aa2128b5:genealogy-4468c333aa2128b5.genealogy.75c246340fa38059-cgu.06.rcgu.o
 0002:00001930       __xmm@7465646279746573646f72616e646f6d 0000000140137930     libgenealogy-4468c333aa2128b5:genealogy-4468c333aa2128b5.genealogy.75c246340fa38059-cgu.06.rcgu.o
 0002:00001940       anon.39bf72837a0280c0ed4f17603b55337f.0.llvm.13319894357200198638 0000000140137940     libgenealogy-4468c333aa2128b5:genealogy-4468c333aa2128b5.genealogy.75c246340fa38059-cgu.06.rcgu.o
 0002:00001bb0       __xmm@00000000000000010000000000000000 0000000140137bb0     libregex-0477f9e9a333a0e8:regex-0477f9e9a333a0e8.regex.bdffd6b571ecefc1-cgu.4.rcgu.o
 0002:00001bc0       __xmm@00000000000000300000000000000030 0000000140137bc0     libregex-0477f9e9a333a0e8:regex-0477f9e9a333a0e8.regex.bdffd6b571ecefc1-cgu.4.rcgu.o
 0002:00001bd0       __xmm@00000000000000600000000000000060 0000000140137bd0     libregex-0477f9e9a333a0e8:regex-0477f9e9a333a0e8.regex.bdffd6b571ecefc1-cgu.4.rcgu.o
 0002:00001be0       __xmm@00000000000000040000000000000004 0000000140137be0     libregex-0477f9e9a333a0e8:regex-0477f9e9a333a0e8.regex.bdffd6b571ecefc1-cgu.4.rcgu.o
 0002:00001c10       anon.e24adb6090b3e012748585afcdc05741.0.llvm.4878409327168373810 0000000140137c10     libregex-0477f9e9a333a0e8:regex-0477f9e9a333a0e8.regex.bdffd6b571ecefc1-cgu.5.rcgu.o
 0002:00001c40       anon.e24adb6090b3e012748585afcdc05741.1.llvm.4878409327168373810 0000000140137c40     libregex-0477f9e9a333a0e8:regex-0477f9e9a333a0e8.regex.bdffd6b571ecefc1-cgu.5.rcgu.o
 0002:00001c77       anon.e24adb6090b3e012748585afcdc05741.2.llvm.4878409327168373810 0000000140137c77     libregex-0477f9e9a333a0e8:regex-0477f9e9a333a0e8.regex.bdffd6b571ecefc1-cgu.5.rcgu.o
 0002:00001cc8       anon.e24adb6090b3e012748585afcdc05741.3.llvm.4878409327168373810 0000000140137cc8     libregex-0477f9e9a333a0e8:regex-0477f9e9a333a0e8.regex.bdffd6b571ecefc1-cgu.5.rcgu.o
 0002:00001ce0       anon.e24adb6090b3e012748585afcdc05741.5.llvm.4878409327168373810 0000000140137ce0     libregex-0477f9e9a333a0e8:regex-0477f9e9a333a0e8.regex.bdffd6b571ecefc1-cgu.5.rcgu.o
 0002:00001d88       anon.12377b323b26159d48d34c6e5bd5d883.0.llvm.10500910617839526563 0000000140137d88     libregex-0477f9e9a333a0e8:regex-0477f9e9a333a0e8.regex.bdffd6b571ecefc1-cgu.8.rcgu.o
 0002:00001db8       anon.12377b323b26159d48d34c6e5bd5d883.1.llvm.10500910617839526563 0000000140137db8     libregex-0477f9e9a333a0e8:regex-0477f9e9a333a0e8.regex.bdffd6b571ecefc1-cgu.8.rcgu.o
 0002:00001dd8       anon.12377b323b26159d48d34c6e5bd5d883.2.llvm.10500910617839526563 0000000140137dd8     libregex-0477f9e9a333a0e8:regex-0477f9e9a333a0e8.regex.bdffd6b571ecefc1-cgu.8.rcgu.o
 0002:00001e28       anon.12377b323b26159d48d34c6e5bd5d883.3.llvm.10500910617839526563 0000000140137e28     libregex-0477f9e9a333a0e8:regex-0477f9e9a333a0e8.regex.bdffd6b571ecefc1-cgu.8.rcgu.o
 0002:00001ef0       __xmm@01010101010101010101010101010101 0000000140137ef0     libregex_automata-464fc35d41c3d390:regex_automata-464fc35d41c3d390.regex_automata.ab23a1c50add178-cgu.14.rcgu.o
 0002:00001f00       anon.50e4894438f5ce66e009287b34967a59.2.llvm.551548863055934565 0000000140137f00     libregex_automata-464fc35d41c3d390:regex_automata-464fc35d41c3d390.regex_automata.ab23a1c50add178-cgu.14.rcgu.o
 0002:00001f30       anon.50e4894438f5ce66e009287b34967a59.4.llvm.551548863055934565 0000000140137f30     libregex_automata-464fc35d41c3d390:regex_automata-464fc35d41c3d390.regex_automata.ab23a1c50add178-cgu.14.rcgu.o
 0002:00001f50       anon.50e4894438f5ce66e009287b34967a59.5.llvm.551548863055934565 0000000140137f50     libregex_automata-464fc35d41c3d390:regex_automata-464fc35d41c3d390.regex_automata.ab23a1c50add178-cgu.14.rcgu.o
 0002:00001f70       anon.50e4894438f5ce66e009287b34967a59.6.llvm.551548863055934565 0000000140137f70     libregex_automata-464fc35d41c3d390:regex_automata-464fc35d41c3d390.regex_automata.ab23a1c50add178-cgu.14.rcgu.o
 0002:00001fc0       anon.50e4894438f5ce66e009287b34967a59.7.llvm.551548863055934565 0000000140137fc0     libregex_automata-464fc35d41c3d390:regex_automata-464fc35d41c3d390.regex_automata.ab23a1c50add178-cgu.14.rcgu.o
 0002:00001fd8       anon.50e4894438f5ce66e009287b34967a59.9.llvm.551548863055934565 0000000140137fd8     libregex_automata-464fc35d41c3d390:regex_automata-464fc35d41c3d390.regex_automata.ab23a1c50add178-cgu.14.rcgu.o
 0002:00002048       anon.50e4894438f5ce66e009287b34967a59.11.llvm.551548863055934565 0000000140138048     libregex_automata-464fc35d41c3d390:regex_automata-464fc35d41c3d390.regex_automata.ab23a1c50add178-cgu.14.rcgu.o
 0002:00002060       str.1.llvm.551548863055934565 0000000140138060     libregex_automata-464fc35d41c3d390:regex_automata-464fc35d41c3d390.regex_automata.ab23a1c50add178-cgu.14.rcgu.o
 0002:000020a0       anon.50e4894438f5ce66e009287b34967a59.13.llvm.551548863055934565 00000001401380a0     libregex_automata-464fc35d41c3d390:regex_automata-464fc35d41c3d390.regex_automata.ab23a1c50add178-cgu.14.rcgu.o
 0002:000020b8       anon.50e4894438f5ce66e009287b34967a59.15.llvm.551548863055934565 00000001401380b8     libregex_automata-464fc35d41c3d390:regex_automata-464fc35d41c3d390.regex_automata.ab23a1c50add178-cgu.14.rcgu.o
 0002:000020d0       anon.50e4894438f5ce66e009287b34967a59.17.llvm.551548863055934565 00000001401380d0     libregex_automata-464fc35d41c3d390:regex_automata-464fc35d41c3d390.regex_automata.ab23a1c50add178-cgu.14.rcgu.o
 0002:000020e8       anon.50e4894438f5ce66e009287b34967a59.18.llvm.551548863055934565 00000001401380e8     libregex_automata-464fc35d41c3d390:regex_automata-464fc35d41c3d390.regex_automata.ab23a1c50add178-cgu.14.rcgu.o
 0002:00002170       anon.50e4894438f5ce66e009287b34967a59.33.llvm.551548863055934565 0000000140138170     libregex_automata-464fc35d41c3d390:regex_automata-464fc35d41c3d390.regex_automata.ab23a1c50add178-cgu.14.rcgu.o
 0002:00002198       anon.50e4894438f5ce66e009287b34967a59.34.llvm.551548863055934565 0000000140138198     libregex_automata-464fc35d41c3d390:regex_automata-464fc35d41c3d390.regex_automata.ab23a1c50add178-cgu.14.rcgu.o
 0002:000021b0       anon.50e4894438f5ce66e009287b34967a59.35.llvm.551548863055934565 00000001401381b0     libregex_automata-464fc35d41c3d390:regex_automata-464fc35d41c3d390.regex_automata.ab23a1c50add178-cgu.14.rcgu.o
 0002:000025e0       anon.50e4894438f5ce66e009287b34967a59.88.llvm.551548863055934565 00000001401385e0     libregex_automata-464fc35d41c3d390:regex_automata-464fc35d41c3d390.regex_automata.ab23a1c50add178-cgu.14.rcgu.o
 0002:00002650       anon.50e4894438f5ce66e009287b34967a59.89.llvm.551548863055934565 0000000140138650     libregex_automata-464fc35d41c3d390:regex_automata-464fc35d41c3d390.regex_automata.ab23a1c50add178-cgu.14.rcgu.o
 0002:00002668       anon.50e4894438f5ce66e009287b34967a59.90.llvm.551548863055934565 0000000140138668     libregex_automata-464fc35d41c3d390:regex_automata-464fc35d41c3d390.regex_automata.ab23a1c50add178-cgu.14.rcgu.o
 0002:00002730       anon.50e4894438f5ce66e009287b34967a59.94.llvm.551548863055934565 0000000140138730     libregex_automata-464fc35d41c3d390:regex_automata-464fc35d41c3d390.regex_automata.ab23a1c50add178-cgu.14.rcgu.o
 0002:00002a90       __xmm@00000000000000000000000002020202 0000000140138a90     libregex_automata-464fc35d41c3d390:regex_automata-464fc35d41c3d390.regex_automata.ab23a1c50add178-cgu.08.rcgu.o
 0002:00002ac0       anon.a1e769ceded6860b2e34c1edb4a950f3.14.llvm.8572194949199378180 0000000140138ac0     libregex_automata-464fc35d41c3d390:regex_automata-464fc35d41c3d390.regex_automata.ab23a1c50add178-cgu.08.rcgu.o
 0002:00002b98       _ZN14regex_automata4util4pool5inner17THREAD_ID_DROPPED17h8cb1d08e659d1cdfE 0000000140138b98     libregex_automata-464fc35d41c3d390:regex_automata-464fc35d41c3d390.regex_automata.ab23a1c50add178-cgu.08.rcgu.o
 0002:00002bd0       anon.a1e769ceded6860b2e34c1edb4a950f3.66.llvm.8572194949199378180 0000000140138bd0     libregex_automata-464fc35d41c3d390:regex_automata-464fc35d41c3d390.regex_automata.ab23a1c50add178-cgu.08.rcgu.o
 0002:00002bda       anon.a1e769ceded6860b2e34c1edb4a950f3.67.llvm.8572194949199378180 0000000140138bda     libregex_automata-464fc35d41c3d390:regex_automata-464fc35d41c3d390.regex_automata.ab23a1c50add178-cgu.08.rcgu.o
 0002:00002be0       anon.a1e769ceded6860b2e34c1edb4a950f3.68.llvm.8572194949199378180 0000000140138be0     libregex_automata-464fc35d41c3d390:regex_automata-464fc35d41c3d390.regex_automata.ab23a1c50add178-cgu.08.rcgu.o
 0002:00002c00       anon.a1e769ceded6860b2e34c1edb4a950f3.69.llvm.8572194949199378180 0000000140138c00     libregex_automata-464fc35d41c3d390:regex_automata-464fc35d41c3d390.regex_automata.ab23a1c50add178-cgu.08.rcgu.o
 0002:00002c08       anon.a1e769ceded6860b2e34c1edb4a950f3.70.llvm.8572194949199378180 0000000140138c08     libregex_automata-464fc35d41c3d390:regex_automata-464fc35d41c3d390.regex_automata.ab23a1c50add178-cgu.08.rcgu.o
 0002:00002c28       anon.a1e769ceded6860b2e34c1edb4a950f3.71.llvm.8572194949199378180 0000000140138c28     libregex_automata-464fc35d41c3d390:regex_automata-464fc35d41c3d390.regex_automata.ab23a1c50add178-cgu.08.rcgu.o
 0002:00002c38       anon.a1e769ceded6860b2e34c1edb4a950f3.72.llvm.8572194949199378180 0000000140138c38     libregex_automata-464fc35d41c3d390:regex_automata-464fc35d41c3d390.regex_automata.ab23a1c50add178-cgu.08.rcgu.o
 0002:00002c58       anon.a1e769ceded6860b2e34c1edb4a950f3.94.llvm.8572194949199378180 0000000140138c58     libregex_automata-464fc35d41c3d390:regex_automata-464fc35d41c3d390.regex_automata.ab23a1c50add178-cgu.08.rcgu.o
 0002:00002c61       anon.a1e769ceded6860b2e34c1edb4a950f3.95.llvm.8572194949199378180 0000000140138c61     libregex_automata-464fc35d41c3d390:regex_automata-464fc35d41c3d390.regex_automata.ab23a1c50add178-cgu.08.rcgu.o
 0002:00002c68       anon.a1e769ceded6860b2e34c1edb4a950f3.96.llvm.8572194949199378180 0000000140138c68     libregex_automata-464fc35d41c3d390:regex_automata-464fc35d41c3d390.regex_automata.ab23a1c50add178-cgu.08.rcgu.o
 0002:00002f88       anon.a1e769ceded6860b2e34c1edb4a950f3.146.llvm.8572194949199378180 0000000140138f88     libregex_automata-464fc35d41c3d390:regex_automata-464fc35d41c3d390.regex_automata.ab23a1c50add178-cgu.08.rcgu.o
 0002:00002fd0       anon.a1e769ceded6860b2e34c1edb4a950f3.147.llvm.8572194949199378180 0000000140138fd0     libregex_automata-464fc35d41c3d390:regex_automata-464fc35d41c3d390.regex_automata.ab23a1c50add178-cgu.08.rcgu.o
 0002:00002fe0       anon.a1e769ceded6860b2e34c1edb4a950f3.148.llvm.8572194949199378180 0000000140138fe0     libregex_automata-464fc35d41c3d390:regex_automata-464fc35d41c3d390.regex_automata.ab23a1c50add178-cgu.08.rcgu.o
 0002:00002fe8       anon.a1e769ceded6860b2e34c1edb4a950f3.149.llvm.8572194949199378180 0000000140138fe8     libregex_automata-464fc35d41c3d390:regex_automata-464fc35d41c3d390.regex_automata.ab23a1c50add178-cgu.08.rcgu.o
 0002:00003058       anon.a1e769ceded6860b2e34c1edb4a950f3.150.llvm.8572194949199378180 0000000140139058     libregex_automata-464fc35d41c3d390:regex_automata-464fc35d41c3d390.regex_automata.ab23a1c50add178-cgu.08.rcgu.o
 0002:00003070       anon.a1e769ceded6860b2e34c1edb4a950f3.151.llvm.8572194949199378180 0000000140139070     libregex_automata-464fc35d41c3d390:regex_automata-464fc35d41c3d390.regex_automata.ab23a1c50add178-cgu.08.rcgu.o
 0002:000030d7       anon.a1e769ceded6860b2e34c1edb4a950f3.159.llvm.8572194949199378180 00000001401390d7     libregex_automata-464fc35d41c3d390:regex_automata-464fc35d41c3d390.regex_automata.ab23a1c50add178-cgu.08.rcgu.o
 0002:00003120       anon.a1e769ceded6860b2e34c1edb4a950f3.160.llvm.8572194949199378180 0000000140139120     libregex_automata-464fc35d41c3d390:regex_automata-464fc35d41c3d390.regex_automata.ab23a1c50add178-cgu.08.rcgu.o
 0002:00003130       anon.a1e769ceded6860b2e34c1edb4a950f3.161.llvm.8572194949199378180 0000000140139130     libregex_automata-464fc35d41c3d390:regex_automata-464fc35d41c3d390.regex_automata.ab23a1c50add178-cgu.08.rcgu.o
 0002:00003230       __xmm@0f0e0d0c0b0a09080706050403020100 0000000140139230     libregex_automata-464fc35d41c3d390:regex_automata-464fc35d41c3d390.regex_automata.ab23a1c50add178-cgu.15.rcgu.o
 0002:00003240       __xmm@1f1e1d1c1b1a19181716151413121110 0000000140139240     libregex_automata-464fc35d41c3d390:regex_automata-464fc35d41c3d390.regex_automata.ab23a1c50add178-cgu.15.rcgu.o
 0002:00003250       __xmm@2f2e2d2c2b2a29282726252423222120 0000000140139250     libregex_automata-464fc35d41c3d390:regex_automata-464fc35d41c3d390.regex_automata.ab23a1c50add178-cgu.15.rcgu.o
 0002:00003260       __xmm@3f3e3d3c3b3a39383736353433323130 0000000140139260     libregex_automata-464fc35d41c3d390:regex_automata-464fc35d41c3d390.regex_automata.ab23a1c50add178-cgu.15.rcgu.o
 0002:00003270       __xmm@4f4e4d4c4b4a49484746454443424140 0000000140139270     libregex_automata-464fc35d41c3d390:regex_automata-464fc35d41c3d390.regex_automata.ab23a1c50add178-cgu.15.rcgu.o
 0002:00003280       __xmm@5f5e5d5c5b5a59585756555453525150 0000000140139280     libregex_automata-464fc35d41c3d390:regex_automata-464fc35d41c3d390.regex_automata.ab23a1c50add178-cgu.15.rcgu.o
 0002:00003290       __xmm@6f6e6d6c6b6a69686766656463626160 0000000140139290     libregex_automata-464fc35d41c3d390:regex_automata-464fc35d41c3d390.regex_automata.ab23a1c50add178-cgu.15.rcgu.o
 0002:000032a0       __xmm@7f7e7d7c7b7a79787776757473727170 00000001401392a0     libregex_automata-464fc35d41c3d390:regex_automata-464fc35d41c3d390.regex_automata.ab23a1c50add178-cgu.15.rcgu.o
 0002:000032b0       __xmm@8f8e8d8c8b8a89888786858483828180 00000001401392b0     libregex_automata-464fc35d41c3d390:regex_automata-464fc35d41c3d390.regex_automata.ab23a1c50add178-cgu.15.rcgu.o
 0002:000032c0       __xmm@9f9e9d9c9b9a99989796959493929190 00000001401392c0     libregex_automata-464fc35d41c3d390:regex_automata-464fc35d41c3d390.regex_automata.ab23a1c50add178-cgu.15.rcgu.o
 0002:000032d0       __xmm@afaeadacabaaa9a8a7a6a5a4a3a2a1a0 00000001401392d0     libregex_automata-464fc35d41c3d390:regex_automata-464fc35d41c3d390.regex_automata.ab23a1c50add178-cgu.15.rcgu.o
 0002:000032e0       __xmm@bfbebdbcbbbab9b8b7b6b5b4b3b2b1b0 00000001401392e0     libregex_automata-464fc35d41c3d390:regex_automata-464fc35d41c3d390.regex_automata.ab23a1c50add178-cgu.15.rcgu.o
 0002:000032f0       __xmm@cfcecdcccbcac9c8c7c6c5c4c3c2c1c0 00000001401392f0     libregex_automata-464fc35d41c3d390:regex_automata-464fc35d41c3d390.regex_automata.ab23a1c50add178-cgu.15.rcgu.o
 0002:00003300       __xmm@dfdedddcdbdad9d8d7d6d5d4d3d2d1d0 0000000140139300     libregex_automata-464fc35d41c3d390:regex_automata-464fc35d41c3d390.regex_automata.ab23a1c50add178-cgu.15.rcgu.o
 0002:00003310       __xmm@efeeedecebeae9e8e7e6e5e4e3e2e1e0 0000000140139310     libregex_automata-464fc35d41c3d390:regex_automata-464fc35d41c3d390.regex_automata.ab23a1c50add178-cgu.15.rcgu.o
 0002:00003320       __xmm@fffefdfcfbfaf9f8f7f6f5f4f3f2f1f0 0000000140139320     libregex_automata-464fc35d41c3d390:regex_automata-464fc35d41c3d390.regex_automata.ab23a1c50add178-cgu.15.rcgu.o
 0002:00003330       anon.f1ac8965b5975990f5fafa6f4da9946c.2.llvm.8184359522858241340 0000000140139330     libregex_automata-464fc35d41c3d390:regex_automata-464fc35d41c3d390.regex_automata.ab23a1c50add178-cgu.15.rcgu.o
 0002:00003380       anon.f1ac8965b5975990f5fafa6f4da9946c.3.llvm.8184359522858241340 0000000140139380     libregex_automata-464fc35d41c3d390:regex_automata-464fc35d41c3d390.regex_automata.ab23a1c50add178-cgu.15.rcgu.o
 0002:00003398       anon.f1ac8965b5975990f5fafa6f4da9946c.7.llvm.8184359522858241340 0000000140139398     libregex_automata-464fc35d41c3d390:regex_automata-464fc35d41c3d390.regex_automata.ab23a1c50add178-cgu.15.rcgu.o
 0002:00003568       anon.f1ac8965b5975990f5fafa6f4da9946c.19.llvm.8184359522858241340 0000000140139568     libregex_automata-464fc35d41c3d390:regex_automata-464fc35d41c3d390.regex_automata.ab23a1c50add178-cgu.15.rcgu.o
 0002:00003828       anon.f1ac8965b5975990f5fafa6f4da9946c.50.llvm.8184359522858241340 0000000140139828     libregex_automata-464fc35d41c3d390:regex_automata-464fc35d41c3d390.regex_automata.ab23a1c50add178-cgu.15.rcgu.o
 0002:00003880       anon.f1ac8965b5975990f5fafa6f4da9946c.51.llvm.8184359522858241340 0000000140139880     libregex_automata-464fc35d41c3d390:regex_automata-464fc35d41c3d390.regex_automata.ab23a1c50add178-cgu.15.rcgu.o
 0002:00003890       anon.f1ac8965b5975990f5fafa6f4da9946c.52.llvm.8184359522858241340 0000000140139890     libregex_automata-464fc35d41c3d390:regex_automata-464fc35d41c3d390.regex_automata.ab23a1c50add178-cgu.15.rcgu.o
 0002:00003900       anon.f1ac8965b5975990f5fafa6f4da9946c.53.llvm.8184359522858241340 0000000140139900     libregex_automata-464fc35d41c3d390:regex_automata-464fc35d41c3d390.regex_automata.ab23a1c50add178-cgu.15.rcgu.o
 0002:00003a68       anon.f1ac8965b5975990f5fafa6f4da9946c.65.llvm.8184359522858241340 0000000140139a68     libregex_automata-464fc35d41c3d390:regex_automata-464fc35d41c3d390.regex_automata.ab23a1c50add178-cgu.15.rcgu.o
 0002:00003b78       anon.f1ac8965b5975990f5fafa6f4da9946c.82.llvm.8184359522858241340 0000000140139b78     libregex_automata-464fc35d41c3d390:regex_automata-464fc35d41c3d390.regex_automata.ab23a1c50add178-cgu.15.rcgu.o
 0002:00003bc8       anon.f1ac8965b5975990f5fafa6f4da9946c.90.llvm.8184359522858241340 0000000140139bc8     libregex_automata-464fc35d41c3d390:regex_automata-464fc35d41c3d390.regex_automata.ab23a1c50add178-cgu.15.rcgu.o
 0002:00003cc8       anon.f1ac8965b5975990f5fafa6f4da9946c.91.llvm.8184359522858241340 0000000140139cc8     libregex_automata-464fc35d41c3d390:regex_automata-464fc35d41c3d390.regex_automata.ab23a1c50add178-cgu.15.rcgu.o
 0002:00003ce8       anon.f1ac8965b5975990f5fafa6f4da9946c.92.llvm.8184359522858241340 0000000140139ce8     libregex_automata-464fc35d41c3d390:regex_automata-464fc35d41c3d390.regex_automata.ab23a1c50add178-cgu.15.rcgu.o
 0002:00004340       __xmm@00000000000000100000000000000001 000000014013a340     libregex_automata-464fc35d41c3d390:regex_automata-464fc35d41c3d390.regex_automata.ab23a1c50add178-cgu.05.rcgu.o
 0002:00004350       anon.1bd2d24173ee2cfeb6e2b5ebbd9a2370.0.llvm.12241314740873085142 000000014013a350     libregex_automata-464fc35d41c3d390:regex_automata-464fc35d41c3d390.regex_automata.ab23a1c50add178-cgu.05.rcgu.o
 0002:000043cb       anon.1bd2d24173ee2cfeb6e2b5ebbd9a2370.14.llvm.12241314740873085142 000000014013a3cb     libregex_automata-464fc35d41c3d390:regex_automata-464fc35d41c3d390.regex_automata.ab23a1c50add178-cgu.05.rcgu.o
 0002:00004618       anon.1bd2d24173ee2cfeb6e2b5ebbd9a2370.130.llvm.12241314740873085142 000000014013a618     libregex_automata-464fc35d41c3d390:regex_automata-464fc35d41c3d390.regex_automata.ab23a1c50add178-cgu.05.rcgu.o
 0002:00004680       anon.1bd2d24173ee2cfeb6e2b5ebbd9a2370.131.llvm.12241314740873085142 000000014013a680     libregex_automata-464fc35d41c3d390:regex_automata-464fc35d41c3d390.regex_automata.ab23a1c50add178-cgu.05.rcgu.o
 0002:00004698       anon.1bd2d24173ee2cfeb6e2b5ebbd9a2370.134.llvm.12241314740873085142 000000014013a698     libregex_automata-464fc35d41c3d390:regex_automata-464fc35d41c3d390.regex_automata.ab23a1c50add178-cgu.05.rcgu.o
 0002:000046c0       anon.1bd2d24173ee2cfeb6e2b5ebbd9a2370.157.llvm.12241314740873085142 000000014013a6c0     libregex_automata-464fc35d41c3d390:regex_automata-464fc35d41c3d390.regex_automata.ab23a1c50add178-cgu.05.rcgu.o
 0002:00004740       anon.1bd2d24173ee2cfeb6e2b5ebbd9a2370.180.llvm.12241314740873085142 000000014013a740     libregex_automata-464fc35d41c3d390:regex_automata-464fc35d41c3d390.regex_automata.ab23a1c50add178-cgu.05.rcgu.o
 0002:0000474e       anon.1bd2d24173ee2cfeb6e2b5ebbd9a2370.181.llvm.12241314740873085142 000000014013a74e     libregex_automata-464fc35d41c3d390:regex_automata-464fc35d41c3d390.regex_automata.ab23a1c50add178-cgu.05.rcgu.o
 0002:00004760       anon.1bd2d24173ee2cfeb6e2b5ebbd9a2370.182.llvm.12241314740873085142 000000014013a760     libregex_automata-464fc35d41c3d390:regex_automata-464fc35d41c3d390.regex_automata.ab23a1c50add178-cgu.05.rcgu.o
 0002:00004780       anon.1bd2d24173ee2cfeb6e2b5ebbd9a2370.183.llvm.12241314740873085142 000000014013a780     libregex_automata-464fc35d41c3d390:regex_automata-464fc35d41c3d390.regex_automata.ab23a1c50add178-cgu.05.rcgu.o
 0002:00004790       anon.1bd2d24173ee2cfeb6e2b5ebbd9a2370.184.llvm.12241314740873085142 000000014013a790     libregex_automata-464fc35d41c3d390:regex_automata-464fc35d41c3d390.regex_automata.ab23a1c50add178-cgu.05.rcgu.o
 0002:000047b0       anon.1bd2d24173ee2cfeb6e2b5ebbd9a2370.185.llvm.12241314740873085142 000000014013a7b0     libregex_automata-464fc35d41c3d390:regex_automata-464fc35d41c3d390.regex_automata.ab23a1c50add178-cgu.05.rcgu.o
 0002:000047c0       anon.1bd2d24173ee2cfeb6e2b5ebbd9a2370.186.llvm.12241314740873085142 000000014013a7c0     libregex_automata-464fc35d41c3d390:regex_automata-464fc35d41c3d390.regex_automata.ab23a1c50add178-cgu.05.rcgu.o
 0002:000047e0       anon.1bd2d24173ee2cfeb6e2b5ebbd9a2370.187.llvm.12241314740873085142 000000014013a7e0     libregex_automata-464fc35d41c3d390:regex_automata-464fc35d41c3d390.regex_automata.ab23a1c50add178-cgu.05.rcgu.o
 0002:00004910       anon.ea1e65ffece2b23a3be6870d5e74184f.0.llvm.9692425724856445687 000000014013a910     libregex_automata-464fc35d41c3d390:regex_automata-464fc35d41c3d390.regex_automata.ab23a1c50add178-cgu.07.rcgu.o
 0002:00004930       anon.ea1e65ffece2b23a3be6870d5e74184f.1.llvm.9692425724856445687 000000014013a930     libregex_automata-464fc35d41c3d390:regex_automata-464fc35d41c3d390.regex_automata.ab23a1c50add178-cgu.07.rcgu.o
 0002:00004950       anon.ea1e65ffece2b23a3be6870d5e74184f.10.llvm.9692425724856445687 000000014013a950     libregex_automata-464fc35d41c3d390:regex_automata-464fc35d41c3d390.regex_automata.ab23a1c50add178-cgu.07.rcgu.o
 0002:00004970       anon.ea1e65ffece2b23a3be6870d5e74184f.11.llvm.9692425724856445687 000000014013a970     libregex_automata-464fc35d41c3d390:regex_automata-464fc35d41c3d390.regex_automata.ab23a1c50add178-cgu.07.rcgu.o
 0002:00004990       anon.ea1e65ffece2b23a3be6870d5e74184f.15.llvm.9692425724856445687 000000014013a990     libregex_automata-464fc35d41c3d390:regex_automata-464fc35d41c3d390.regex_automata.ab23a1c50add178-cgu.07.rcgu.o
 0002:000049b0       anon.ea1e65ffece2b23a3be6870d5e74184f.20.llvm.9692425724856445687 000000014013a9b0     libregex_automata-464fc35d41c3d390:regex_automata-464fc35d41c3d390.regex_automata.ab23a1c50add178-cgu.07.rcgu.o
 0002:000049d0       anon.ea1e65ffece2b23a3be6870d5e74184f.26.llvm.9692425724856445687 000000014013a9d0     libregex_automata-464fc35d41c3d390:regex_automata-464fc35d41c3d390.regex_automata.ab23a1c50add178-cgu.07.rcgu.o
 0002:000049f0       anon.ea1e65ffece2b23a3be6870d5e74184f.27.llvm.9692425724856445687 000000014013a9f0     libregex_automata-464fc35d41c3d390:regex_automata-464fc35d41c3d390.regex_automata.ab23a1c50add178-cgu.07.rcgu.o
 0002:00004a10       anon.ea1e65ffece2b23a3be6870d5e74184f.28.llvm.9692425724856445687 000000014013aa10     libregex_automata-464fc35d41c3d390:regex_automata-464fc35d41c3d390.regex_automata.ab23a1c50add178-cgu.07.rcgu.o
 0002:00004a30       anon.ea1e65ffece2b23a3be6870d5e74184f.29.llvm.9692425724856445687 000000014013aa30     libregex_automata-464fc35d41c3d390:regex_automata-464fc35d41c3d390.regex_automata.ab23a1c50add178-cgu.07.rcgu.o
 0002:00004a50       anon.ea1e65ffece2b23a3be6870d5e74184f.30.llvm.9692425724856445687 000000014013aa50     libregex_automata-464fc35d41c3d390:regex_automata-464fc35d41c3d390.regex_automata.ab23a1c50add178-cgu.07.rcgu.o
 0002:00004a50       anon.ea1e65ffece2b23a3be6870d5e74184f.31.llvm.9692425724856445687 000000014013aa50     libregex_automata-464fc35d41c3d390:regex_automata-464fc35d41c3d390.regex_automata.ab23a1c50add178-cgu.07.rcgu.o
 0002:00004a90       anon.ea1e65ffece2b23a3be6870d5e74184f.33.llvm.9692425724856445687 000000014013aa90     libregex_automata-464fc35d41c3d390:regex_automata-464fc35d41c3d390.regex_automata.ab23a1c50add178-cgu.07.rcgu.o
 0002:00004b03       anon.ea1e65ffece2b23a3be6870d5e74184f.34.llvm.9692425724856445687 000000014013ab03     libregex_automata-464fc35d41c3d390:regex_automata-464fc35d41c3d390.regex_automata.ab23a1c50add178-cgu.07.rcgu.o
 0002:00004b28       anon.ea1e65ffece2b23a3be6870d5e74184f.35.llvm.9692425724856445687 000000014013ab28     libregex_automata-464fc35d41c3d390:regex_automata-464fc35d41c3d390.regex_automata.ab23a1c50add178-cgu.07.rcgu.o
 0002:00004e50       anon.ea1e65ffece2b23a3be6870d5e74184f.70.llvm.9692425724856445687 000000014013ae50     libregex_automata-464fc35d41c3d390:regex_automata-464fc35d41c3d390.regex_automata.ab23a1c50add178-cgu.07.rcgu.o
 0002:00004e68       anon.ea1e65ffece2b23a3be6870d5e74184f.71.llvm.9692425724856445687 000000014013ae68     libregex_automata-464fc35d41c3d390:regex_automata-464fc35d41c3d390.regex_automata.ab23a1c50add178-cgu.07.rcgu.o
 0002:00004e80       anon.ea1e65ffece2b23a3be6870d5e74184f.72.llvm.9692425724856445687 000000014013ae80     libregex_automata-464fc35d41c3d390:regex_automata-464fc35d41c3d390.regex_automata.ab23a1c50add178-cgu.07.rcgu.o
 0002:00004ea0       anon.ea1e65ffece2b23a3be6870d5e74184f.73.llvm.9692425724856445687 000000014013aea0     libregex_automata-464fc35d41c3d390:regex_automata-464fc35d41c3d390.regex_automata.ab23a1c50add178-cgu.07.rcgu.o
 0002:000050e0       anon.ea1e65ffece2b23a3be6870d5e74184f.123.llvm.9692425724856445687 000000014013b0e0     libregex_automata-464fc35d41c3d390:regex_automata-464fc35d41c3d390.regex_automata.ab23a1c50add178-cgu.07.rcgu.o
 0002:0000514a       anon.ea1e65ffece2b23a3be6870d5e74184f.125.llvm.9692425724856445687 000000014013b14a     libregex_automata-464fc35d41c3d390:regex_automata-464fc35d41c3d390.regex_automata.ab23a1c50add178-cgu.07.rcgu.o
 0002:00005178       anon.ea1e65ffece2b23a3be6870d5e74184f.126.llvm.9692425724856445687 000000014013b178     libregex_automata-464fc35d41c3d390:regex_automata-464fc35d41c3d390.regex_automata.ab23a1c50add178-cgu.07.rcgu.o
 0002:00005358       anon.ea1e65ffece2b23a3be6870d5e74184f.197.llvm.9692425724856445687 000000014013b358     libregex_automata-464fc35d41c3d390:regex_automata-464fc35d41c3d390.regex_automata.ab23a1c50add178-cgu.07.rcgu.o
 0002:0000535e       anon.ea1e65ffece2b23a3be6870d5e74184f.200.llvm.9692425724856445687 000000014013b35e     libregex_automata-464fc35d41c3d390:regex_automata-464fc35d41c3d390.regex_automata.ab23a1c50add178-cgu.07.rcgu.o
 0002:000053d0       anon.ea1e65ffece2b23a3be6870d5e74184f.216.llvm.9692425724856445687 000000014013b3d0     libregex_automata-464fc35d41c3d390:regex_automata-464fc35d41c3d390.regex_automata.ab23a1c50add178-cgu.07.rcgu.o
 0002:000053d4       anon.ea1e65ffece2b23a3be6870d5e74184f.217.llvm.9692425724856445687 000000014013b3d4     libregex_automata-464fc35d41c3d390:regex_automata-464fc35d41c3d390.regex_automata.ab23a1c50add178-cgu.07.rcgu.o
 0002:000053d8       anon.ea1e65ffece2b23a3be6870d5e74184f.218.llvm.9692425724856445687 000000014013b3d8     libregex_automata-464fc35d41c3d390:regex_automata-464fc35d41c3d390.regex_automata.ab23a1c50add178-cgu.07.rcgu.o
 0002:000053f8       anon.ea1e65ffece2b23a3be6870d5e74184f.219.llvm.9692425724856445687 000000014013b3f8     libregex_automata-464fc35d41c3d390:regex_automata-464fc35d41c3d390.regex_automata.ab23a1c50add178-cgu.07.rcgu.o
 0002:000053fe       anon.ea1e65ffece2b23a3be6870d5e74184f.220.llvm.9692425724856445687 000000014013b3fe     libregex_automata-464fc35d41c3d390:regex_automata-464fc35d41c3d390.regex_automata.ab23a1c50add178-cgu.07.rcgu.o
 0002:0000540d       anon.ea1e65ffece2b23a3be6870d5e74184f.221.llvm.9692425724856445687 000000014013b40d     libregex_automata-464fc35d41c3d390:regex_automata-464fc35d41c3d390.regex_automata.ab23a1c50add178-cgu.07.rcgu.o
 0002:00005420       anon.ea1e65ffece2b23a3be6870d5e74184f.222.llvm.9692425724856445687 000000014013b420     libregex_automata-464fc35d41c3d390:regex_automata-464fc35d41c3d390.regex_automata.ab23a1c50add178-cgu.07.rcgu.o
 0002:00005428       anon.ea1e65ffece2b23a3be6870d5e74184f.223.llvm.9692425724856445687 000000014013b428     libregex_automata-464fc35d41c3d390:regex_automata-464fc35d41c3d390.regex_automata.ab23a1c50add178-cgu.07.rcgu.o
 0002:000054e0       __real@0000000000000002    000000014013b4e0     libregex_automata-464fc35d41c3d390:regex_automata-464fc35d41c3d390.regex_automata.ab23a1c50add178-cgu.02.rcgu.o
 0002:00006af0       __xmm@00000000000000000000000003020202 000000014013caf0     libregex_automata-464fc35d41c3d390:regex_automata-464fc35d41c3d390.regex_automata.ab23a1c50add178-cgu.04.rcgu.o
 0002:00006b70       anon.913e2a74a317f5cac08d72b54c112092.6.llvm.13069747341390513184 000000014013cb70     libregex_automata-464fc35d41c3d390:regex_automata-464fc35d41c3d390.regex_automata.ab23a1c50add178-cgu.04.rcgu.o
 0002:00006b9b       anon.913e2a74a317f5cac08d72b54c112092.7.llvm.13069747341390513184 000000014013cb9b     libregex_automata-464fc35d41c3d390:regex_automata-464fc35d41c3d390.regex_automata.ab23a1c50add178-cgu.04.rcgu.o
 0002:00006c08       anon.913e2a74a317f5cac08d72b54c112092.8.llvm.13069747341390513184 000000014013cc08     libregex_automata-464fc35d41c3d390:regex_automata-464fc35d41c3d390.regex_automata.ab23a1c50add178-cgu.04.rcgu.o
 0002:00006c20       anon.913e2a74a317f5cac08d72b54c112092.9.llvm.13069747341390513184 000000014013cc20     libregex_automata-464fc35d41c3d390:regex_automata-464fc35d41c3d390.regex_automata.ab23a1c50add178-cgu.04.rcgu.o
 0002:00006c38       anon.913e2a74a317f5cac08d72b54c112092.10.llvm.13069747341390513184 000000014013cc38     libregex_automata-464fc35d41c3d390:regex_automata-464fc35d41c3d390.regex_automata.ab23a1c50add178-cgu.04.rcgu.o
 0002:00006c50       anon.913e2a74a317f5cac08d72b54c112092.11.llvm.13069747341390513184 000000014013cc50     libregex_automata-464fc35d41c3d390:regex_automata-464fc35d41c3d390.regex_automata.ab23a1c50add178-cgu.04.rcgu.o
